
DTMF_Recover_Starter.elf:     file format elf32-littlearm

Sections:
Idx Name          Size      VMA       LMA       File off  Algn
  0 .isr_vector   00000188  08000000  08000000  00010000  2**0
                  CONTENTS, ALLOC, LOAD, READONLY, DATA
  1 .text         00005aa0  08000190  08000190  00010190  2**4
                  CONTENTS, ALLOC, LOAD, READONLY, CODE
  2 .rodata       00000240  08005c30  08005c30  00015c30  2**3
                  CONTENTS, ALLOC, LOAD, READONLY, DATA
  3 .ARM          00000008  08005e70  08005e70  00015e70  2**2
                  CONTENTS, ALLOC, LOAD, READONLY, DATA
  4 .init_array   00000004  08005e78  08005e78  00015e78  2**2
                  CONTENTS, ALLOC, LOAD, DATA
  5 .fini_array   00000004  08005e7c  08005e7c  00015e7c  2**2
                  CONTENTS, ALLOC, LOAD, DATA
  6 .data         000000c0  20000000  08005e80  00020000  2**3
                  CONTENTS, ALLOC, LOAD, DATA
  7 .ccmram       00000000  10000000  10000000  000200c0  2**0
                  CONTENTS
  8 .bss          000055a4  200000c0  200000c0  000200c0  2**2
                  ALLOC
  9 ._user_heap_stack 00000600  20005664  20005664  000200c0  2**0
                  ALLOC
 10 .ARM.attributes 00000030  00000000  00000000  000200c0  2**0
                  CONTENTS, READONLY
 11 .comment      00000043  00000000  00000000  000200f0  2**0
                  CONTENTS, READONLY
 12 .debug_info   000146b5  00000000  00000000  00020133  2**0
                  CONTENTS, READONLY, DEBUGGING, OCTETS
 13 .debug_abbrev 000032ea  00000000  00000000  000347e8  2**0
                  CONTENTS, READONLY, DEBUGGING, OCTETS
 14 .debug_loclists 00007875  00000000  00000000  00037ad2  2**0
                  CONTENTS, READONLY, DEBUGGING, OCTETS
 15 .debug_aranges 00000cc0  00000000  00000000  0003f348  2**3
                  CONTENTS, READONLY, DEBUGGING, OCTETS
 16 .debug_rnglists 00000d47  00000000  00000000  00040008  2**0
                  CONTENTS, READONLY, DEBUGGING, OCTETS
 17 .debug_macro  000223da  00000000  00000000  00040d4f  2**0
                  CONTENTS, READONLY, DEBUGGING, OCTETS
 18 .debug_line   00018d1c  00000000  00000000  00063129  2**0
                  CONTENTS, READONLY, DEBUGGING, OCTETS
 19 .debug_str    000d224c  00000000  00000000  0007be45  2**0
                  CONTENTS, READONLY, DEBUGGING, OCTETS
 20 .debug_frame  000033bc  00000000  00000000  0014e094  2**2
                  CONTENTS, READONLY, DEBUGGING, OCTETS
 21 .debug_line_str 00000071  00000000  00000000  00151450  2**0
                  CONTENTS, READONLY, DEBUGGING, OCTETS

Disassembly of section .text:

08000190 <__do_global_dtors_aux>:
 8000190:	b510      	push	{r4, lr}
 8000192:	4c05      	ldr	r4, [pc, #20]	; (80001a8 <__do_global_dtors_aux+0x18>)
 8000194:	7823      	ldrb	r3, [r4, #0]
 8000196:	b933      	cbnz	r3, 80001a6 <__do_global_dtors_aux+0x16>
 8000198:	4b04      	ldr	r3, [pc, #16]	; (80001ac <__do_global_dtors_aux+0x1c>)
 800019a:	b113      	cbz	r3, 80001a2 <__do_global_dtors_aux+0x12>
 800019c:	4804      	ldr	r0, [pc, #16]	; (80001b0 <__do_global_dtors_aux+0x20>)
 800019e:	f3af 8000 	nop.w
 80001a2:	2301      	movs	r3, #1
 80001a4:	7023      	strb	r3, [r4, #0]
 80001a6:	bd10      	pop	{r4, pc}
 80001a8:	200000c0 	.word	0x200000c0
 80001ac:	00000000 	.word	0x00000000
 80001b0:	08005c18 	.word	0x08005c18

080001b4 <frame_dummy>:
 80001b4:	b508      	push	{r3, lr}
 80001b6:	4b03      	ldr	r3, [pc, #12]	; (80001c4 <frame_dummy+0x10>)
 80001b8:	b11b      	cbz	r3, 80001c2 <frame_dummy+0xe>
 80001ba:	4903      	ldr	r1, [pc, #12]	; (80001c8 <frame_dummy+0x14>)
 80001bc:	4803      	ldr	r0, [pc, #12]	; (80001cc <frame_dummy+0x18>)
 80001be:	f3af 8000 	nop.w
 80001c2:	bd08      	pop	{r3, pc}
 80001c4:	00000000 	.word	0x00000000
 80001c8:	200000c4 	.word	0x200000c4
 80001cc:	08005c18 	.word	0x08005c18

080001d0 <memchr>:
 80001d0:	f001 01ff 	and.w	r1, r1, #255	; 0xff
 80001d4:	2a10      	cmp	r2, #16
 80001d6:	db2b      	blt.n	8000230 <memchr+0x60>
 80001d8:	f010 0f07 	tst.w	r0, #7
 80001dc:	d008      	beq.n	80001f0 <memchr+0x20>
 80001de:	f810 3b01 	ldrb.w	r3, [r0], #1
 80001e2:	3a01      	subs	r2, #1
 80001e4:	428b      	cmp	r3, r1
 80001e6:	d02d      	beq.n	8000244 <memchr+0x74>
 80001e8:	f010 0f07 	tst.w	r0, #7
 80001ec:	b342      	cbz	r2, 8000240 <memchr+0x70>
 80001ee:	d1f6      	bne.n	80001de <memchr+0xe>
 80001f0:	b4f0      	push	{r4, r5, r6, r7}
 80001f2:	ea41 2101 	orr.w	r1, r1, r1, lsl #8
 80001f6:	ea41 4101 	orr.w	r1, r1, r1, lsl #16
 80001fa:	f022 0407 	bic.w	r4, r2, #7
 80001fe:	f07f 0700 	mvns.w	r7, #0
 8000202:	2300      	movs	r3, #0
 8000204:	e8f0 5602 	ldrd	r5, r6, [r0], #8
 8000208:	3c08      	subs	r4, #8
 800020a:	ea85 0501 	eor.w	r5, r5, r1
 800020e:	ea86 0601 	eor.w	r6, r6, r1
 8000212:	fa85 f547 	uadd8	r5, r5, r7
 8000216:	faa3 f587 	sel	r5, r3, r7
 800021a:	fa86 f647 	uadd8	r6, r6, r7
 800021e:	faa5 f687 	sel	r6, r5, r7
 8000222:	b98e      	cbnz	r6, 8000248 <memchr+0x78>
 8000224:	d1ee      	bne.n	8000204 <memchr+0x34>
 8000226:	bcf0      	pop	{r4, r5, r6, r7}
 8000228:	f001 01ff 	and.w	r1, r1, #255	; 0xff
 800022c:	f002 0207 	and.w	r2, r2, #7
 8000230:	b132      	cbz	r2, 8000240 <memchr+0x70>
 8000232:	f810 3b01 	ldrb.w	r3, [r0], #1
 8000236:	3a01      	subs	r2, #1
 8000238:	ea83 0301 	eor.w	r3, r3, r1
 800023c:	b113      	cbz	r3, 8000244 <memchr+0x74>
 800023e:	d1f8      	bne.n	8000232 <memchr+0x62>
 8000240:	2000      	movs	r0, #0
 8000242:	4770      	bx	lr
 8000244:	3801      	subs	r0, #1
 8000246:	4770      	bx	lr
 8000248:	2d00      	cmp	r5, #0
 800024a:	bf06      	itte	eq
 800024c:	4635      	moveq	r5, r6
 800024e:	3803      	subeq	r0, #3
 8000250:	3807      	subne	r0, #7
 8000252:	f015 0f01 	tst.w	r5, #1
 8000256:	d107      	bne.n	8000268 <memchr+0x98>
 8000258:	3001      	adds	r0, #1
 800025a:	f415 7f80 	tst.w	r5, #256	; 0x100
 800025e:	bf02      	ittt	eq
 8000260:	3001      	addeq	r0, #1
 8000262:	f415 3fc0 	tsteq.w	r5, #98304	; 0x18000
 8000266:	3001      	addeq	r0, #1
 8000268:	bcf0      	pop	{r4, r5, r6, r7}
 800026a:	3801      	subs	r0, #1
 800026c:	4770      	bx	lr
 800026e:	bf00      	nop

08000270 <__aeabi_drsub>:
 8000270:	f081 4100 	eor.w	r1, r1, #2147483648	; 0x80000000
 8000274:	e002      	b.n	800027c <__adddf3>
 8000276:	bf00      	nop

08000278 <__aeabi_dsub>:
 8000278:	f083 4300 	eor.w	r3, r3, #2147483648	; 0x80000000

0800027c <__adddf3>:
 800027c:	b530      	push	{r4, r5, lr}
 800027e:	ea4f 0441 	mov.w	r4, r1, lsl #1
 8000282:	ea4f 0543 	mov.w	r5, r3, lsl #1
 8000286:	ea94 0f05 	teq	r4, r5
 800028a:	bf08      	it	eq
 800028c:	ea90 0f02 	teqeq	r0, r2
 8000290:	bf1f      	itttt	ne
 8000292:	ea54 0c00 	orrsne.w	ip, r4, r0
 8000296:	ea55 0c02 	orrsne.w	ip, r5, r2
 800029a:	ea7f 5c64 	mvnsne.w	ip, r4, asr #21
 800029e:	ea7f 5c65 	mvnsne.w	ip, r5, asr #21
 80002a2:	f000 80e2 	beq.w	800046a <__adddf3+0x1ee>
 80002a6:	ea4f 5454 	mov.w	r4, r4, lsr #21
 80002aa:	ebd4 5555 	rsbs	r5, r4, r5, lsr #21
 80002ae:	bfb8      	it	lt
 80002b0:	426d      	neglt	r5, r5
 80002b2:	dd0c      	ble.n	80002ce <__adddf3+0x52>
 80002b4:	442c      	add	r4, r5
 80002b6:	ea80 0202 	eor.w	r2, r0, r2
 80002ba:	ea81 0303 	eor.w	r3, r1, r3
 80002be:	ea82 0000 	eor.w	r0, r2, r0
 80002c2:	ea83 0101 	eor.w	r1, r3, r1
 80002c6:	ea80 0202 	eor.w	r2, r0, r2
 80002ca:	ea81 0303 	eor.w	r3, r1, r3
 80002ce:	2d36      	cmp	r5, #54	; 0x36
 80002d0:	bf88      	it	hi
 80002d2:	bd30      	pophi	{r4, r5, pc}
 80002d4:	f011 4f00 	tst.w	r1, #2147483648	; 0x80000000
 80002d8:	ea4f 3101 	mov.w	r1, r1, lsl #12
 80002dc:	f44f 1c80 	mov.w	ip, #1048576	; 0x100000
 80002e0:	ea4c 3111 	orr.w	r1, ip, r1, lsr #12
 80002e4:	d002      	beq.n	80002ec <__adddf3+0x70>
 80002e6:	4240      	negs	r0, r0
 80002e8:	eb61 0141 	sbc.w	r1, r1, r1, lsl #1
 80002ec:	f013 4f00 	tst.w	r3, #2147483648	; 0x80000000
 80002f0:	ea4f 3303 	mov.w	r3, r3, lsl #12
 80002f4:	ea4c 3313 	orr.w	r3, ip, r3, lsr #12
 80002f8:	d002      	beq.n	8000300 <__adddf3+0x84>
 80002fa:	4252      	negs	r2, r2
 80002fc:	eb63 0343 	sbc.w	r3, r3, r3, lsl #1
 8000300:	ea94 0f05 	teq	r4, r5
 8000304:	f000 80a7 	beq.w	8000456 <__adddf3+0x1da>
 8000308:	f1a4 0401 	sub.w	r4, r4, #1
 800030c:	f1d5 0e20 	rsbs	lr, r5, #32
 8000310:	db0d      	blt.n	800032e <__adddf3+0xb2>
 8000312:	fa02 fc0e 	lsl.w	ip, r2, lr
 8000316:	fa22 f205 	lsr.w	r2, r2, r5
 800031a:	1880      	adds	r0, r0, r2
 800031c:	f141 0100 	adc.w	r1, r1, #0
 8000320:	fa03 f20e 	lsl.w	r2, r3, lr
 8000324:	1880      	adds	r0, r0, r2
 8000326:	fa43 f305 	asr.w	r3, r3, r5
 800032a:	4159      	adcs	r1, r3
 800032c:	e00e      	b.n	800034c <__adddf3+0xd0>
 800032e:	f1a5 0520 	sub.w	r5, r5, #32
 8000332:	f10e 0e20 	add.w	lr, lr, #32
 8000336:	2a01      	cmp	r2, #1
 8000338:	fa03 fc0e 	lsl.w	ip, r3, lr
 800033c:	bf28      	it	cs
 800033e:	f04c 0c02 	orrcs.w	ip, ip, #2
 8000342:	fa43 f305 	asr.w	r3, r3, r5
 8000346:	18c0      	adds	r0, r0, r3
 8000348:	eb51 71e3 	adcs.w	r1, r1, r3, asr #31
 800034c:	f001 4500 	and.w	r5, r1, #2147483648	; 0x80000000
 8000350:	d507      	bpl.n	8000362 <__adddf3+0xe6>
 8000352:	f04f 0e00 	mov.w	lr, #0
 8000356:	f1dc 0c00 	rsbs	ip, ip, #0
 800035a:	eb7e 0000 	sbcs.w	r0, lr, r0
 800035e:	eb6e 0101 	sbc.w	r1, lr, r1
 8000362:	f5b1 1f80 	cmp.w	r1, #1048576	; 0x100000
 8000366:	d31b      	bcc.n	80003a0 <__adddf3+0x124>
 8000368:	f5b1 1f00 	cmp.w	r1, #2097152	; 0x200000
 800036c:	d30c      	bcc.n	8000388 <__adddf3+0x10c>
 800036e:	0849      	lsrs	r1, r1, #1
 8000370:	ea5f 0030 	movs.w	r0, r0, rrx
 8000374:	ea4f 0c3c 	mov.w	ip, ip, rrx
 8000378:	f104 0401 	add.w	r4, r4, #1
 800037c:	ea4f 5244 	mov.w	r2, r4, lsl #21
 8000380:	f512 0f80 	cmn.w	r2, #4194304	; 0x400000
 8000384:	f080 809a 	bcs.w	80004bc <__adddf3+0x240>
 8000388:	f1bc 4f00 	cmp.w	ip, #2147483648	; 0x80000000
 800038c:	bf08      	it	eq
 800038e:	ea5f 0c50 	movseq.w	ip, r0, lsr #1
 8000392:	f150 0000 	adcs.w	r0, r0, #0
 8000396:	eb41 5104 	adc.w	r1, r1, r4, lsl #20
 800039a:	ea41 0105 	orr.w	r1, r1, r5
 800039e:	bd30      	pop	{r4, r5, pc}
 80003a0:	ea5f 0c4c 	movs.w	ip, ip, lsl #1
 80003a4:	4140      	adcs	r0, r0
 80003a6:	eb41 0101 	adc.w	r1, r1, r1
 80003aa:	3c01      	subs	r4, #1
 80003ac:	bf28      	it	cs
 80003ae:	f5b1 1f80 	cmpcs.w	r1, #1048576	; 0x100000
 80003b2:	d2e9      	bcs.n	8000388 <__adddf3+0x10c>
 80003b4:	f091 0f00 	teq	r1, #0
 80003b8:	bf04      	itt	eq
 80003ba:	4601      	moveq	r1, r0
 80003bc:	2000      	moveq	r0, #0
 80003be:	fab1 f381 	clz	r3, r1
 80003c2:	bf08      	it	eq
 80003c4:	3320      	addeq	r3, #32
 80003c6:	f1a3 030b 	sub.w	r3, r3, #11
 80003ca:	f1b3 0220 	subs.w	r2, r3, #32
 80003ce:	da0c      	bge.n	80003ea <__adddf3+0x16e>
 80003d0:	320c      	adds	r2, #12
 80003d2:	dd08      	ble.n	80003e6 <__adddf3+0x16a>
 80003d4:	f102 0c14 	add.w	ip, r2, #20
 80003d8:	f1c2 020c 	rsb	r2, r2, #12
 80003dc:	fa01 f00c 	lsl.w	r0, r1, ip
 80003e0:	fa21 f102 	lsr.w	r1, r1, r2
 80003e4:	e00c      	b.n	8000400 <__adddf3+0x184>
 80003e6:	f102 0214 	add.w	r2, r2, #20
 80003ea:	bfd8      	it	le
 80003ec:	f1c2 0c20 	rsble	ip, r2, #32
 80003f0:	fa01 f102 	lsl.w	r1, r1, r2
 80003f4:	fa20 fc0c 	lsr.w	ip, r0, ip
 80003f8:	bfdc      	itt	le
 80003fa:	ea41 010c 	orrle.w	r1, r1, ip
 80003fe:	4090      	lslle	r0, r2
 8000400:	1ae4      	subs	r4, r4, r3
 8000402:	bfa2      	ittt	ge
 8000404:	eb01 5104 	addge.w	r1, r1, r4, lsl #20
 8000408:	4329      	orrge	r1, r5
 800040a:	bd30      	popge	{r4, r5, pc}
 800040c:	ea6f 0404 	mvn.w	r4, r4
 8000410:	3c1f      	subs	r4, #31
 8000412:	da1c      	bge.n	800044e <__adddf3+0x1d2>
 8000414:	340c      	adds	r4, #12
 8000416:	dc0e      	bgt.n	8000436 <__adddf3+0x1ba>
 8000418:	f104 0414 	add.w	r4, r4, #20
 800041c:	f1c4 0220 	rsb	r2, r4, #32
 8000420:	fa20 f004 	lsr.w	r0, r0, r4
 8000424:	fa01 f302 	lsl.w	r3, r1, r2
 8000428:	ea40 0003 	orr.w	r0, r0, r3
 800042c:	fa21 f304 	lsr.w	r3, r1, r4
 8000430:	ea45 0103 	orr.w	r1, r5, r3
 8000434:	bd30      	pop	{r4, r5, pc}
 8000436:	f1c4 040c 	rsb	r4, r4, #12
 800043a:	f1c4 0220 	rsb	r2, r4, #32
 800043e:	fa20 f002 	lsr.w	r0, r0, r2
 8000442:	fa01 f304 	lsl.w	r3, r1, r4
 8000446:	ea40 0003 	orr.w	r0, r0, r3
 800044a:	4629      	mov	r1, r5
 800044c:	bd30      	pop	{r4, r5, pc}
 800044e:	fa21 f004 	lsr.w	r0, r1, r4
 8000452:	4629      	mov	r1, r5
 8000454:	bd30      	pop	{r4, r5, pc}
 8000456:	f094 0f00 	teq	r4, #0
 800045a:	f483 1380 	eor.w	r3, r3, #1048576	; 0x100000
 800045e:	bf06      	itte	eq
 8000460:	f481 1180 	eoreq.w	r1, r1, #1048576	; 0x100000
 8000464:	3401      	addeq	r4, #1
 8000466:	3d01      	subne	r5, #1
 8000468:	e74e      	b.n	8000308 <__adddf3+0x8c>
 800046a:	ea7f 5c64 	mvns.w	ip, r4, asr #21
 800046e:	bf18      	it	ne
 8000470:	ea7f 5c65 	mvnsne.w	ip, r5, asr #21
 8000474:	d029      	beq.n	80004ca <__adddf3+0x24e>
 8000476:	ea94 0f05 	teq	r4, r5
 800047a:	bf08      	it	eq
 800047c:	ea90 0f02 	teqeq	r0, r2
 8000480:	d005      	beq.n	800048e <__adddf3+0x212>
 8000482:	ea54 0c00 	orrs.w	ip, r4, r0
 8000486:	bf04      	itt	eq
 8000488:	4619      	moveq	r1, r3
 800048a:	4610      	moveq	r0, r2
 800048c:	bd30      	pop	{r4, r5, pc}
 800048e:	ea91 0f03 	teq	r1, r3
 8000492:	bf1e      	ittt	ne
 8000494:	2100      	movne	r1, #0
 8000496:	2000      	movne	r0, #0
 8000498:	bd30      	popne	{r4, r5, pc}
 800049a:	ea5f 5c54 	movs.w	ip, r4, lsr #21
 800049e:	d105      	bne.n	80004ac <__adddf3+0x230>
 80004a0:	0040      	lsls	r0, r0, #1
 80004a2:	4149      	adcs	r1, r1
 80004a4:	bf28      	it	cs
 80004a6:	f041 4100 	orrcs.w	r1, r1, #2147483648	; 0x80000000
 80004aa:	bd30      	pop	{r4, r5, pc}
 80004ac:	f514 0480 	adds.w	r4, r4, #4194304	; 0x400000
 80004b0:	bf3c      	itt	cc
 80004b2:	f501 1180 	addcc.w	r1, r1, #1048576	; 0x100000
 80004b6:	bd30      	popcc	{r4, r5, pc}
 80004b8:	f001 4500 	and.w	r5, r1, #2147483648	; 0x80000000
 80004bc:	f045 41fe 	orr.w	r1, r5, #2130706432	; 0x7f000000
 80004c0:	f441 0170 	orr.w	r1, r1, #15728640	; 0xf00000
 80004c4:	f04f 0000 	mov.w	r0, #0
 80004c8:	bd30      	pop	{r4, r5, pc}
 80004ca:	ea7f 5c64 	mvns.w	ip, r4, asr #21
 80004ce:	bf1a      	itte	ne
 80004d0:	4619      	movne	r1, r3
 80004d2:	4610      	movne	r0, r2
 80004d4:	ea7f 5c65 	mvnseq.w	ip, r5, asr #21
 80004d8:	bf1c      	itt	ne
 80004da:	460b      	movne	r3, r1
 80004dc:	4602      	movne	r2, r0
 80004de:	ea50 3401 	orrs.w	r4, r0, r1, lsl #12
 80004e2:	bf06      	itte	eq
 80004e4:	ea52 3503 	orrseq.w	r5, r2, r3, lsl #12
 80004e8:	ea91 0f03 	teqeq	r1, r3
 80004ec:	f441 2100 	orrne.w	r1, r1, #524288	; 0x80000
 80004f0:	bd30      	pop	{r4, r5, pc}
 80004f2:	bf00      	nop

080004f4 <__aeabi_ui2d>:
 80004f4:	f090 0f00 	teq	r0, #0
 80004f8:	bf04      	itt	eq
 80004fa:	2100      	moveq	r1, #0
 80004fc:	4770      	bxeq	lr
 80004fe:	b530      	push	{r4, r5, lr}
 8000500:	f44f 6480 	mov.w	r4, #1024	; 0x400
 8000504:	f104 0432 	add.w	r4, r4, #50	; 0x32
 8000508:	f04f 0500 	mov.w	r5, #0
 800050c:	f04f 0100 	mov.w	r1, #0
 8000510:	e750      	b.n	80003b4 <__adddf3+0x138>
 8000512:	bf00      	nop

08000514 <__aeabi_i2d>:
 8000514:	f090 0f00 	teq	r0, #0
 8000518:	bf04      	itt	eq
 800051a:	2100      	moveq	r1, #0
 800051c:	4770      	bxeq	lr
 800051e:	b530      	push	{r4, r5, lr}
 8000520:	f44f 6480 	mov.w	r4, #1024	; 0x400
 8000524:	f104 0432 	add.w	r4, r4, #50	; 0x32
 8000528:	f010 4500 	ands.w	r5, r0, #2147483648	; 0x80000000
 800052c:	bf48      	it	mi
 800052e:	4240      	negmi	r0, r0
 8000530:	f04f 0100 	mov.w	r1, #0
 8000534:	e73e      	b.n	80003b4 <__adddf3+0x138>
 8000536:	bf00      	nop

08000538 <__aeabi_f2d>:
 8000538:	0042      	lsls	r2, r0, #1
 800053a:	ea4f 01e2 	mov.w	r1, r2, asr #3
 800053e:	ea4f 0131 	mov.w	r1, r1, rrx
 8000542:	ea4f 7002 	mov.w	r0, r2, lsl #28
 8000546:	bf1f      	itttt	ne
 8000548:	f012 437f 	andsne.w	r3, r2, #4278190080	; 0xff000000
 800054c:	f093 4f7f 	teqne	r3, #4278190080	; 0xff000000
 8000550:	f081 5160 	eorne.w	r1, r1, #939524096	; 0x38000000
 8000554:	4770      	bxne	lr
 8000556:	f032 427f 	bics.w	r2, r2, #4278190080	; 0xff000000
 800055a:	bf08      	it	eq
 800055c:	4770      	bxeq	lr
 800055e:	f093 4f7f 	teq	r3, #4278190080	; 0xff000000
 8000562:	bf04      	itt	eq
 8000564:	f441 2100 	orreq.w	r1, r1, #524288	; 0x80000
 8000568:	4770      	bxeq	lr
 800056a:	b530      	push	{r4, r5, lr}
 800056c:	f44f 7460 	mov.w	r4, #896	; 0x380
 8000570:	f001 4500 	and.w	r5, r1, #2147483648	; 0x80000000
 8000574:	f021 4100 	bic.w	r1, r1, #2147483648	; 0x80000000
 8000578:	e71c      	b.n	80003b4 <__adddf3+0x138>
 800057a:	bf00      	nop

0800057c <__aeabi_ul2d>:
 800057c:	ea50 0201 	orrs.w	r2, r0, r1
 8000580:	bf08      	it	eq
 8000582:	4770      	bxeq	lr
 8000584:	b530      	push	{r4, r5, lr}
 8000586:	f04f 0500 	mov.w	r5, #0
 800058a:	e00a      	b.n	80005a2 <__aeabi_l2d+0x16>

0800058c <__aeabi_l2d>:
 800058c:	ea50 0201 	orrs.w	r2, r0, r1
 8000590:	bf08      	it	eq
 8000592:	4770      	bxeq	lr
 8000594:	b530      	push	{r4, r5, lr}
 8000596:	f011 4500 	ands.w	r5, r1, #2147483648	; 0x80000000
 800059a:	d502      	bpl.n	80005a2 <__aeabi_l2d+0x16>
 800059c:	4240      	negs	r0, r0
 800059e:	eb61 0141 	sbc.w	r1, r1, r1, lsl #1
 80005a2:	f44f 6480 	mov.w	r4, #1024	; 0x400
 80005a6:	f104 0432 	add.w	r4, r4, #50	; 0x32
 80005aa:	ea5f 5c91 	movs.w	ip, r1, lsr #22
 80005ae:	f43f aed8 	beq.w	8000362 <__adddf3+0xe6>
 80005b2:	f04f 0203 	mov.w	r2, #3
 80005b6:	ea5f 0cdc 	movs.w	ip, ip, lsr #3
 80005ba:	bf18      	it	ne
 80005bc:	3203      	addne	r2, #3
 80005be:	ea5f 0cdc 	movs.w	ip, ip, lsr #3
 80005c2:	bf18      	it	ne
 80005c4:	3203      	addne	r2, #3
 80005c6:	eb02 02dc 	add.w	r2, r2, ip, lsr #3
 80005ca:	f1c2 0320 	rsb	r3, r2, #32
 80005ce:	fa00 fc03 	lsl.w	ip, r0, r3
 80005d2:	fa20 f002 	lsr.w	r0, r0, r2
 80005d6:	fa01 fe03 	lsl.w	lr, r1, r3
 80005da:	ea40 000e 	orr.w	r0, r0, lr
 80005de:	fa21 f102 	lsr.w	r1, r1, r2
 80005e2:	4414      	add	r4, r2
 80005e4:	e6bd      	b.n	8000362 <__adddf3+0xe6>
 80005e6:	bf00      	nop

080005e8 <__aeabi_dmul>:
 80005e8:	b570      	push	{r4, r5, r6, lr}
 80005ea:	f04f 0cff 	mov.w	ip, #255	; 0xff
 80005ee:	f44c 6ce0 	orr.w	ip, ip, #1792	; 0x700
 80005f2:	ea1c 5411 	ands.w	r4, ip, r1, lsr #20
 80005f6:	bf1d      	ittte	ne
 80005f8:	ea1c 5513 	andsne.w	r5, ip, r3, lsr #20
 80005fc:	ea94 0f0c 	teqne	r4, ip
 8000600:	ea95 0f0c 	teqne	r5, ip
 8000604:	f000 f8de 	bleq	80007c4 <__aeabi_dmul+0x1dc>
 8000608:	442c      	add	r4, r5
 800060a:	ea81 0603 	eor.w	r6, r1, r3
 800060e:	ea21 514c 	bic.w	r1, r1, ip, lsl #21
 8000612:	ea23 534c 	bic.w	r3, r3, ip, lsl #21
 8000616:	ea50 3501 	orrs.w	r5, r0, r1, lsl #12
 800061a:	bf18      	it	ne
 800061c:	ea52 3503 	orrsne.w	r5, r2, r3, lsl #12
 8000620:	f441 1180 	orr.w	r1, r1, #1048576	; 0x100000
 8000624:	f443 1380 	orr.w	r3, r3, #1048576	; 0x100000
 8000628:	d038      	beq.n	800069c <__aeabi_dmul+0xb4>
 800062a:	fba0 ce02 	umull	ip, lr, r0, r2
 800062e:	f04f 0500 	mov.w	r5, #0
 8000632:	fbe1 e502 	umlal	lr, r5, r1, r2
 8000636:	f006 4200 	and.w	r2, r6, #2147483648	; 0x80000000
 800063a:	fbe0 e503 	umlal	lr, r5, r0, r3
 800063e:	f04f 0600 	mov.w	r6, #0
 8000642:	fbe1 5603 	umlal	r5, r6, r1, r3
 8000646:	f09c 0f00 	teq	ip, #0
 800064a:	bf18      	it	ne
 800064c:	f04e 0e01 	orrne.w	lr, lr, #1
 8000650:	f1a4 04ff 	sub.w	r4, r4, #255	; 0xff
 8000654:	f5b6 7f00 	cmp.w	r6, #512	; 0x200
 8000658:	f564 7440 	sbc.w	r4, r4, #768	; 0x300
 800065c:	d204      	bcs.n	8000668 <__aeabi_dmul+0x80>
 800065e:	ea5f 0e4e 	movs.w	lr, lr, lsl #1
 8000662:	416d      	adcs	r5, r5
 8000664:	eb46 0606 	adc.w	r6, r6, r6
 8000668:	ea42 21c6 	orr.w	r1, r2, r6, lsl #11
 800066c:	ea41 5155 	orr.w	r1, r1, r5, lsr #21
 8000670:	ea4f 20c5 	mov.w	r0, r5, lsl #11
 8000674:	ea40 505e 	orr.w	r0, r0, lr, lsr #21
 8000678:	ea4f 2ece 	mov.w	lr, lr, lsl #11
 800067c:	f1b4 0cfd 	subs.w	ip, r4, #253	; 0xfd
 8000680:	bf88      	it	hi
 8000682:	f5bc 6fe0 	cmphi.w	ip, #1792	; 0x700
 8000686:	d81e      	bhi.n	80006c6 <__aeabi_dmul+0xde>
 8000688:	f1be 4f00 	cmp.w	lr, #2147483648	; 0x80000000
 800068c:	bf08      	it	eq
 800068e:	ea5f 0e50 	movseq.w	lr, r0, lsr #1
 8000692:	f150 0000 	adcs.w	r0, r0, #0
 8000696:	eb41 5104 	adc.w	r1, r1, r4, lsl #20
 800069a:	bd70      	pop	{r4, r5, r6, pc}
 800069c:	f006 4600 	and.w	r6, r6, #2147483648	; 0x80000000
 80006a0:	ea46 0101 	orr.w	r1, r6, r1
 80006a4:	ea40 0002 	orr.w	r0, r0, r2
 80006a8:	ea81 0103 	eor.w	r1, r1, r3
 80006ac:	ebb4 045c 	subs.w	r4, r4, ip, lsr #1
 80006b0:	bfc2      	ittt	gt
 80006b2:	ebd4 050c 	rsbsgt	r5, r4, ip
 80006b6:	ea41 5104 	orrgt.w	r1, r1, r4, lsl #20
 80006ba:	bd70      	popgt	{r4, r5, r6, pc}
 80006bc:	f441 1180 	orr.w	r1, r1, #1048576	; 0x100000
 80006c0:	f04f 0e00 	mov.w	lr, #0
 80006c4:	3c01      	subs	r4, #1
 80006c6:	f300 80ab 	bgt.w	8000820 <__aeabi_dmul+0x238>
 80006ca:	f114 0f36 	cmn.w	r4, #54	; 0x36
 80006ce:	bfde      	ittt	le
 80006d0:	2000      	movle	r0, #0
 80006d2:	f001 4100 	andle.w	r1, r1, #2147483648	; 0x80000000
 80006d6:	bd70      	pople	{r4, r5, r6, pc}
 80006d8:	f1c4 0400 	rsb	r4, r4, #0
 80006dc:	3c20      	subs	r4, #32
 80006de:	da35      	bge.n	800074c <__aeabi_dmul+0x164>
 80006e0:	340c      	adds	r4, #12
 80006e2:	dc1b      	bgt.n	800071c <__aeabi_dmul+0x134>
 80006e4:	f104 0414 	add.w	r4, r4, #20
 80006e8:	f1c4 0520 	rsb	r5, r4, #32
 80006ec:	fa00 f305 	lsl.w	r3, r0, r5
 80006f0:	fa20 f004 	lsr.w	r0, r0, r4
 80006f4:	fa01 f205 	lsl.w	r2, r1, r5
 80006f8:	ea40 0002 	orr.w	r0, r0, r2
 80006fc:	f001 4200 	and.w	r2, r1, #2147483648	; 0x80000000
 8000700:	f021 4100 	bic.w	r1, r1, #2147483648	; 0x80000000
 8000704:	eb10 70d3 	adds.w	r0, r0, r3, lsr #31
 8000708:	fa21 f604 	lsr.w	r6, r1, r4
 800070c:	eb42 0106 	adc.w	r1, r2, r6
 8000710:	ea5e 0e43 	orrs.w	lr, lr, r3, lsl #1
 8000714:	bf08      	it	eq
 8000716:	ea20 70d3 	biceq.w	r0, r0, r3, lsr #31
 800071a:	bd70      	pop	{r4, r5, r6, pc}
 800071c:	f1c4 040c 	rsb	r4, r4, #12
 8000720:	f1c4 0520 	rsb	r5, r4, #32
 8000724:	fa00 f304 	lsl.w	r3, r0, r4
 8000728:	fa20 f005 	lsr.w	r0, r0, r5
 800072c:	fa01 f204 	lsl.w	r2, r1, r4
 8000730:	ea40 0002 	orr.w	r0, r0, r2
 8000734:	f001 4100 	and.w	r1, r1, #2147483648	; 0x80000000
 8000738:	eb10 70d3 	adds.w	r0, r0, r3, lsr #31
 800073c:	f141 0100 	adc.w	r1, r1, #0
 8000740:	ea5e 0e43 	orrs.w	lr, lr, r3, lsl #1
 8000744:	bf08      	it	eq
 8000746:	ea20 70d3 	biceq.w	r0, r0, r3, lsr #31
 800074a:	bd70      	pop	{r4, r5, r6, pc}
 800074c:	f1c4 0520 	rsb	r5, r4, #32
 8000750:	fa00 f205 	lsl.w	r2, r0, r5
 8000754:	ea4e 0e02 	orr.w	lr, lr, r2
 8000758:	fa20 f304 	lsr.w	r3, r0, r4
 800075c:	fa01 f205 	lsl.w	r2, r1, r5
 8000760:	ea43 0302 	orr.w	r3, r3, r2
 8000764:	fa21 f004 	lsr.w	r0, r1, r4
 8000768:	f001 4100 	and.w	r1, r1, #2147483648	; 0x80000000
 800076c:	fa21 f204 	lsr.w	r2, r1, r4
 8000770:	ea20 0002 	bic.w	r0, r0, r2
 8000774:	eb00 70d3 	add.w	r0, r0, r3, lsr #31
 8000778:	ea5e 0e43 	orrs.w	lr, lr, r3, lsl #1
 800077c:	bf08      	it	eq
 800077e:	ea20 70d3 	biceq.w	r0, r0, r3, lsr #31
 8000782:	bd70      	pop	{r4, r5, r6, pc}
 8000784:	f094 0f00 	teq	r4, #0
 8000788:	d10f      	bne.n	80007aa <__aeabi_dmul+0x1c2>
 800078a:	f001 4600 	and.w	r6, r1, #2147483648	; 0x80000000
 800078e:	0040      	lsls	r0, r0, #1
 8000790:	eb41 0101 	adc.w	r1, r1, r1
 8000794:	f411 1f80 	tst.w	r1, #1048576	; 0x100000
 8000798:	bf08      	it	eq
 800079a:	3c01      	subeq	r4, #1
 800079c:	d0f7      	beq.n	800078e <__aeabi_dmul+0x1a6>
 800079e:	ea41 0106 	orr.w	r1, r1, r6
 80007a2:	f095 0f00 	teq	r5, #0
 80007a6:	bf18      	it	ne
 80007a8:	4770      	bxne	lr
 80007aa:	f003 4600 	and.w	r6, r3, #2147483648	; 0x80000000
 80007ae:	0052      	lsls	r2, r2, #1
 80007b0:	eb43 0303 	adc.w	r3, r3, r3
 80007b4:	f413 1f80 	tst.w	r3, #1048576	; 0x100000
 80007b8:	bf08      	it	eq
 80007ba:	3d01      	subeq	r5, #1
 80007bc:	d0f7      	beq.n	80007ae <__aeabi_dmul+0x1c6>
 80007be:	ea43 0306 	orr.w	r3, r3, r6
 80007c2:	4770      	bx	lr
 80007c4:	ea94 0f0c 	teq	r4, ip
 80007c8:	ea0c 5513 	and.w	r5, ip, r3, lsr #20
 80007cc:	bf18      	it	ne
 80007ce:	ea95 0f0c 	teqne	r5, ip
 80007d2:	d00c      	beq.n	80007ee <__aeabi_dmul+0x206>
 80007d4:	ea50 0641 	orrs.w	r6, r0, r1, lsl #1
 80007d8:	bf18      	it	ne
 80007da:	ea52 0643 	orrsne.w	r6, r2, r3, lsl #1
 80007de:	d1d1      	bne.n	8000784 <__aeabi_dmul+0x19c>
 80007e0:	ea81 0103 	eor.w	r1, r1, r3
 80007e4:	f001 4100 	and.w	r1, r1, #2147483648	; 0x80000000
 80007e8:	f04f 0000 	mov.w	r0, #0
 80007ec:	bd70      	pop	{r4, r5, r6, pc}
 80007ee:	ea50 0641 	orrs.w	r6, r0, r1, lsl #1
 80007f2:	bf06      	itte	eq
 80007f4:	4610      	moveq	r0, r2
 80007f6:	4619      	moveq	r1, r3
 80007f8:	ea52 0643 	orrsne.w	r6, r2, r3, lsl #1
 80007fc:	d019      	beq.n	8000832 <__aeabi_dmul+0x24a>
 80007fe:	ea94 0f0c 	teq	r4, ip
 8000802:	d102      	bne.n	800080a <__aeabi_dmul+0x222>
 8000804:	ea50 3601 	orrs.w	r6, r0, r1, lsl #12
 8000808:	d113      	bne.n	8000832 <__aeabi_dmul+0x24a>
 800080a:	ea95 0f0c 	teq	r5, ip
 800080e:	d105      	bne.n	800081c <__aeabi_dmul+0x234>
 8000810:	ea52 3603 	orrs.w	r6, r2, r3, lsl #12
 8000814:	bf1c      	itt	ne
 8000816:	4610      	movne	r0, r2
 8000818:	4619      	movne	r1, r3
 800081a:	d10a      	bne.n	8000832 <__aeabi_dmul+0x24a>
 800081c:	ea81 0103 	eor.w	r1, r1, r3
 8000820:	f001 4100 	and.w	r1, r1, #2147483648	; 0x80000000
 8000824:	f041 41fe 	orr.w	r1, r1, #2130706432	; 0x7f000000
 8000828:	f441 0170 	orr.w	r1, r1, #15728640	; 0xf00000
 800082c:	f04f 0000 	mov.w	r0, #0
 8000830:	bd70      	pop	{r4, r5, r6, pc}
 8000832:	f041 41fe 	orr.w	r1, r1, #2130706432	; 0x7f000000
 8000836:	f441 0178 	orr.w	r1, r1, #16252928	; 0xf80000
 800083a:	bd70      	pop	{r4, r5, r6, pc}

0800083c <__aeabi_ddiv>:
 800083c:	b570      	push	{r4, r5, r6, lr}
 800083e:	f04f 0cff 	mov.w	ip, #255	; 0xff
 8000842:	f44c 6ce0 	orr.w	ip, ip, #1792	; 0x700
 8000846:	ea1c 5411 	ands.w	r4, ip, r1, lsr #20
 800084a:	bf1d      	ittte	ne
 800084c:	ea1c 5513 	andsne.w	r5, ip, r3, lsr #20
 8000850:	ea94 0f0c 	teqne	r4, ip
 8000854:	ea95 0f0c 	teqne	r5, ip
 8000858:	f000 f8a7 	bleq	80009aa <__aeabi_ddiv+0x16e>
 800085c:	eba4 0405 	sub.w	r4, r4, r5
 8000860:	ea81 0e03 	eor.w	lr, r1, r3
 8000864:	ea52 3503 	orrs.w	r5, r2, r3, lsl #12
 8000868:	ea4f 3101 	mov.w	r1, r1, lsl #12
 800086c:	f000 8088 	beq.w	8000980 <__aeabi_ddiv+0x144>
 8000870:	ea4f 3303 	mov.w	r3, r3, lsl #12
 8000874:	f04f 5580 	mov.w	r5, #268435456	; 0x10000000
 8000878:	ea45 1313 	orr.w	r3, r5, r3, lsr #4
 800087c:	ea43 6312 	orr.w	r3, r3, r2, lsr #24
 8000880:	ea4f 2202 	mov.w	r2, r2, lsl #8
 8000884:	ea45 1511 	orr.w	r5, r5, r1, lsr #4
 8000888:	ea45 6510 	orr.w	r5, r5, r0, lsr #24
 800088c:	ea4f 2600 	mov.w	r6, r0, lsl #8
 8000890:	f00e 4100 	and.w	r1, lr, #2147483648	; 0x80000000
 8000894:	429d      	cmp	r5, r3
 8000896:	bf08      	it	eq
 8000898:	4296      	cmpeq	r6, r2
 800089a:	f144 04fd 	adc.w	r4, r4, #253	; 0xfd
 800089e:	f504 7440 	add.w	r4, r4, #768	; 0x300
 80008a2:	d202      	bcs.n	80008aa <__aeabi_ddiv+0x6e>
 80008a4:	085b      	lsrs	r3, r3, #1
 80008a6:	ea4f 0232 	mov.w	r2, r2, rrx
 80008aa:	1ab6      	subs	r6, r6, r2
 80008ac:	eb65 0503 	sbc.w	r5, r5, r3
 80008b0:	085b      	lsrs	r3, r3, #1
 80008b2:	ea4f 0232 	mov.w	r2, r2, rrx
 80008b6:	f44f 1080 	mov.w	r0, #1048576	; 0x100000
 80008ba:	f44f 2c00 	mov.w	ip, #524288	; 0x80000
 80008be:	ebb6 0e02 	subs.w	lr, r6, r2
 80008c2:	eb75 0e03 	sbcs.w	lr, r5, r3
 80008c6:	bf22      	ittt	cs
 80008c8:	1ab6      	subcs	r6, r6, r2
 80008ca:	4675      	movcs	r5, lr
 80008cc:	ea40 000c 	orrcs.w	r0, r0, ip
 80008d0:	085b      	lsrs	r3, r3, #1
 80008d2:	ea4f 0232 	mov.w	r2, r2, rrx
 80008d6:	ebb6 0e02 	subs.w	lr, r6, r2
 80008da:	eb75 0e03 	sbcs.w	lr, r5, r3
 80008de:	bf22      	ittt	cs
 80008e0:	1ab6      	subcs	r6, r6, r2
 80008e2:	4675      	movcs	r5, lr
 80008e4:	ea40 005c 	orrcs.w	r0, r0, ip, lsr #1
 80008e8:	085b      	lsrs	r3, r3, #1
 80008ea:	ea4f 0232 	mov.w	r2, r2, rrx
 80008ee:	ebb6 0e02 	subs.w	lr, r6, r2
 80008f2:	eb75 0e03 	sbcs.w	lr, r5, r3
 80008f6:	bf22      	ittt	cs
 80008f8:	1ab6      	subcs	r6, r6, r2
 80008fa:	4675      	movcs	r5, lr
 80008fc:	ea40 009c 	orrcs.w	r0, r0, ip, lsr #2
 8000900:	085b      	lsrs	r3, r3, #1
 8000902:	ea4f 0232 	mov.w	r2, r2, rrx
 8000906:	ebb6 0e02 	subs.w	lr, r6, r2
 800090a:	eb75 0e03 	sbcs.w	lr, r5, r3
 800090e:	bf22      	ittt	cs
 8000910:	1ab6      	subcs	r6, r6, r2
 8000912:	4675      	movcs	r5, lr
 8000914:	ea40 00dc 	orrcs.w	r0, r0, ip, lsr #3
 8000918:	ea55 0e06 	orrs.w	lr, r5, r6
 800091c:	d018      	beq.n	8000950 <__aeabi_ddiv+0x114>
 800091e:	ea4f 1505 	mov.w	r5, r5, lsl #4
 8000922:	ea45 7516 	orr.w	r5, r5, r6, lsr #28
 8000926:	ea4f 1606 	mov.w	r6, r6, lsl #4
 800092a:	ea4f 03c3 	mov.w	r3, r3, lsl #3
 800092e:	ea43 7352 	orr.w	r3, r3, r2, lsr #29
 8000932:	ea4f 02c2 	mov.w	r2, r2, lsl #3
 8000936:	ea5f 1c1c 	movs.w	ip, ip, lsr #4
 800093a:	d1c0      	bne.n	80008be <__aeabi_ddiv+0x82>
 800093c:	f411 1f80 	tst.w	r1, #1048576	; 0x100000
 8000940:	d10b      	bne.n	800095a <__aeabi_ddiv+0x11e>
 8000942:	ea41 0100 	orr.w	r1, r1, r0
 8000946:	f04f 0000 	mov.w	r0, #0
 800094a:	f04f 4c00 	mov.w	ip, #2147483648	; 0x80000000
 800094e:	e7b6      	b.n	80008be <__aeabi_ddiv+0x82>
 8000950:	f411 1f80 	tst.w	r1, #1048576	; 0x100000
 8000954:	bf04      	itt	eq
 8000956:	4301      	orreq	r1, r0
 8000958:	2000      	moveq	r0, #0
 800095a:	f1b4 0cfd 	subs.w	ip, r4, #253	; 0xfd
 800095e:	bf88      	it	hi
 8000960:	f5bc 6fe0 	cmphi.w	ip, #1792	; 0x700
 8000964:	f63f aeaf 	bhi.w	80006c6 <__aeabi_dmul+0xde>
 8000968:	ebb5 0c03 	subs.w	ip, r5, r3
 800096c:	bf04      	itt	eq
 800096e:	ebb6 0c02 	subseq.w	ip, r6, r2
 8000972:	ea5f 0c50 	movseq.w	ip, r0, lsr #1
 8000976:	f150 0000 	adcs.w	r0, r0, #0
 800097a:	eb41 5104 	adc.w	r1, r1, r4, lsl #20
 800097e:	bd70      	pop	{r4, r5, r6, pc}
 8000980:	f00e 4e00 	and.w	lr, lr, #2147483648	; 0x80000000
 8000984:	ea4e 3111 	orr.w	r1, lr, r1, lsr #12
 8000988:	eb14 045c 	adds.w	r4, r4, ip, lsr #1
 800098c:	bfc2      	ittt	gt
 800098e:	ebd4 050c 	rsbsgt	r5, r4, ip
 8000992:	ea41 5104 	orrgt.w	r1, r1, r4, lsl #20
 8000996:	bd70      	popgt	{r4, r5, r6, pc}
 8000998:	f441 1180 	orr.w	r1, r1, #1048576	; 0x100000
 800099c:	f04f 0e00 	mov.w	lr, #0
 80009a0:	3c01      	subs	r4, #1
 80009a2:	e690      	b.n	80006c6 <__aeabi_dmul+0xde>
 80009a4:	ea45 0e06 	orr.w	lr, r5, r6
 80009a8:	e68d      	b.n	80006c6 <__aeabi_dmul+0xde>
 80009aa:	ea0c 5513 	and.w	r5, ip, r3, lsr #20
 80009ae:	ea94 0f0c 	teq	r4, ip
 80009b2:	bf08      	it	eq
 80009b4:	ea95 0f0c 	teqeq	r5, ip
 80009b8:	f43f af3b 	beq.w	8000832 <__aeabi_dmul+0x24a>
 80009bc:	ea94 0f0c 	teq	r4, ip
 80009c0:	d10a      	bne.n	80009d8 <__aeabi_ddiv+0x19c>
 80009c2:	ea50 3401 	orrs.w	r4, r0, r1, lsl #12
 80009c6:	f47f af34 	bne.w	8000832 <__aeabi_dmul+0x24a>
 80009ca:	ea95 0f0c 	teq	r5, ip
 80009ce:	f47f af25 	bne.w	800081c <__aeabi_dmul+0x234>
 80009d2:	4610      	mov	r0, r2
 80009d4:	4619      	mov	r1, r3
 80009d6:	e72c      	b.n	8000832 <__aeabi_dmul+0x24a>
 80009d8:	ea95 0f0c 	teq	r5, ip
 80009dc:	d106      	bne.n	80009ec <__aeabi_ddiv+0x1b0>
 80009de:	ea52 3503 	orrs.w	r5, r2, r3, lsl #12
 80009e2:	f43f aefd 	beq.w	80007e0 <__aeabi_dmul+0x1f8>
 80009e6:	4610      	mov	r0, r2
 80009e8:	4619      	mov	r1, r3
 80009ea:	e722      	b.n	8000832 <__aeabi_dmul+0x24a>
 80009ec:	ea50 0641 	orrs.w	r6, r0, r1, lsl #1
 80009f0:	bf18      	it	ne
 80009f2:	ea52 0643 	orrsne.w	r6, r2, r3, lsl #1
 80009f6:	f47f aec5 	bne.w	8000784 <__aeabi_dmul+0x19c>
 80009fa:	ea50 0441 	orrs.w	r4, r0, r1, lsl #1
 80009fe:	f47f af0d 	bne.w	800081c <__aeabi_dmul+0x234>
 8000a02:	ea52 0543 	orrs.w	r5, r2, r3, lsl #1
 8000a06:	f47f aeeb 	bne.w	80007e0 <__aeabi_dmul+0x1f8>
 8000a0a:	e712      	b.n	8000832 <__aeabi_dmul+0x24a>

08000a0c <__gedf2>:
 8000a0c:	f04f 3cff 	mov.w	ip, #4294967295
 8000a10:	e006      	b.n	8000a20 <__cmpdf2+0x4>
 8000a12:	bf00      	nop

08000a14 <__ledf2>:
 8000a14:	f04f 0c01 	mov.w	ip, #1
 8000a18:	e002      	b.n	8000a20 <__cmpdf2+0x4>
 8000a1a:	bf00      	nop

08000a1c <__cmpdf2>:
 8000a1c:	f04f 0c01 	mov.w	ip, #1
 8000a20:	f84d cd04 	str.w	ip, [sp, #-4]!
 8000a24:	ea4f 0c41 	mov.w	ip, r1, lsl #1
 8000a28:	ea7f 5c6c 	mvns.w	ip, ip, asr #21
 8000a2c:	ea4f 0c43 	mov.w	ip, r3, lsl #1
 8000a30:	bf18      	it	ne
 8000a32:	ea7f 5c6c 	mvnsne.w	ip, ip, asr #21
 8000a36:	d01b      	beq.n	8000a70 <__cmpdf2+0x54>
 8000a38:	b001      	add	sp, #4
 8000a3a:	ea50 0c41 	orrs.w	ip, r0, r1, lsl #1
 8000a3e:	bf0c      	ite	eq
 8000a40:	ea52 0c43 	orrseq.w	ip, r2, r3, lsl #1
 8000a44:	ea91 0f03 	teqne	r1, r3
 8000a48:	bf02      	ittt	eq
 8000a4a:	ea90 0f02 	teqeq	r0, r2
 8000a4e:	2000      	moveq	r0, #0
 8000a50:	4770      	bxeq	lr
 8000a52:	f110 0f00 	cmn.w	r0, #0
 8000a56:	ea91 0f03 	teq	r1, r3
 8000a5a:	bf58      	it	pl
 8000a5c:	4299      	cmppl	r1, r3
 8000a5e:	bf08      	it	eq
 8000a60:	4290      	cmpeq	r0, r2
 8000a62:	bf2c      	ite	cs
 8000a64:	17d8      	asrcs	r0, r3, #31
 8000a66:	ea6f 70e3 	mvncc.w	r0, r3, asr #31
 8000a6a:	f040 0001 	orr.w	r0, r0, #1
 8000a6e:	4770      	bx	lr
 8000a70:	ea4f 0c41 	mov.w	ip, r1, lsl #1
 8000a74:	ea7f 5c6c 	mvns.w	ip, ip, asr #21
 8000a78:	d102      	bne.n	8000a80 <__cmpdf2+0x64>
 8000a7a:	ea50 3c01 	orrs.w	ip, r0, r1, lsl #12
 8000a7e:	d107      	bne.n	8000a90 <__cmpdf2+0x74>
 8000a80:	ea4f 0c43 	mov.w	ip, r3, lsl #1
 8000a84:	ea7f 5c6c 	mvns.w	ip, ip, asr #21
 8000a88:	d1d6      	bne.n	8000a38 <__cmpdf2+0x1c>
 8000a8a:	ea52 3c03 	orrs.w	ip, r2, r3, lsl #12
 8000a8e:	d0d3      	beq.n	8000a38 <__cmpdf2+0x1c>
 8000a90:	f85d 0b04 	ldr.w	r0, [sp], #4
 8000a94:	4770      	bx	lr
 8000a96:	bf00      	nop

08000a98 <__aeabi_cdrcmple>:
 8000a98:	4684      	mov	ip, r0
 8000a9a:	4610      	mov	r0, r2
 8000a9c:	4662      	mov	r2, ip
 8000a9e:	468c      	mov	ip, r1
 8000aa0:	4619      	mov	r1, r3
 8000aa2:	4663      	mov	r3, ip
 8000aa4:	e000      	b.n	8000aa8 <__aeabi_cdcmpeq>
 8000aa6:	bf00      	nop

08000aa8 <__aeabi_cdcmpeq>:
 8000aa8:	b501      	push	{r0, lr}
 8000aaa:	f7ff ffb7 	bl	8000a1c <__cmpdf2>
 8000aae:	2800      	cmp	r0, #0
 8000ab0:	bf48      	it	mi
 8000ab2:	f110 0f00 	cmnmi.w	r0, #0
 8000ab6:	bd01      	pop	{r0, pc}

08000ab8 <__aeabi_dcmpeq>:
 8000ab8:	f84d ed08 	str.w	lr, [sp, #-8]!
 8000abc:	f7ff fff4 	bl	8000aa8 <__aeabi_cdcmpeq>
 8000ac0:	bf0c      	ite	eq
 8000ac2:	2001      	moveq	r0, #1
 8000ac4:	2000      	movne	r0, #0
 8000ac6:	f85d fb08 	ldr.w	pc, [sp], #8
 8000aca:	bf00      	nop

08000acc <__aeabi_dcmplt>:
 8000acc:	f84d ed08 	str.w	lr, [sp, #-8]!
 8000ad0:	f7ff ffea 	bl	8000aa8 <__aeabi_cdcmpeq>
 8000ad4:	bf34      	ite	cc
 8000ad6:	2001      	movcc	r0, #1
 8000ad8:	2000      	movcs	r0, #0
 8000ada:	f85d fb08 	ldr.w	pc, [sp], #8
 8000ade:	bf00      	nop

08000ae0 <__aeabi_dcmple>:
 8000ae0:	f84d ed08 	str.w	lr, [sp, #-8]!
 8000ae4:	f7ff ffe0 	bl	8000aa8 <__aeabi_cdcmpeq>
 8000ae8:	bf94      	ite	ls
 8000aea:	2001      	movls	r0, #1
 8000aec:	2000      	movhi	r0, #0
 8000aee:	f85d fb08 	ldr.w	pc, [sp], #8
 8000af2:	bf00      	nop

08000af4 <__aeabi_dcmpge>:
 8000af4:	f84d ed08 	str.w	lr, [sp, #-8]!
 8000af8:	f7ff ffce 	bl	8000a98 <__aeabi_cdrcmple>
 8000afc:	bf94      	ite	ls
 8000afe:	2001      	movls	r0, #1
 8000b00:	2000      	movhi	r0, #0
 8000b02:	f85d fb08 	ldr.w	pc, [sp], #8
 8000b06:	bf00      	nop

08000b08 <__aeabi_dcmpgt>:
 8000b08:	f84d ed08 	str.w	lr, [sp, #-8]!
 8000b0c:	f7ff ffc4 	bl	8000a98 <__aeabi_cdrcmple>
 8000b10:	bf34      	ite	cc
 8000b12:	2001      	movcc	r0, #1
 8000b14:	2000      	movcs	r0, #0
 8000b16:	f85d fb08 	ldr.w	pc, [sp], #8
 8000b1a:	bf00      	nop

08000b1c <__aeabi_dcmpun>:
 8000b1c:	ea4f 0c41 	mov.w	ip, r1, lsl #1
 8000b20:	ea7f 5c6c 	mvns.w	ip, ip, asr #21
 8000b24:	d102      	bne.n	8000b2c <__aeabi_dcmpun+0x10>
 8000b26:	ea50 3c01 	orrs.w	ip, r0, r1, lsl #12
 8000b2a:	d10a      	bne.n	8000b42 <__aeabi_dcmpun+0x26>
 8000b2c:	ea4f 0c43 	mov.w	ip, r3, lsl #1
 8000b30:	ea7f 5c6c 	mvns.w	ip, ip, asr #21
 8000b34:	d102      	bne.n	8000b3c <__aeabi_dcmpun+0x20>
 8000b36:	ea52 3c03 	orrs.w	ip, r2, r3, lsl #12
 8000b3a:	d102      	bne.n	8000b42 <__aeabi_dcmpun+0x26>
 8000b3c:	f04f 0000 	mov.w	r0, #0
 8000b40:	4770      	bx	lr
 8000b42:	f04f 0001 	mov.w	r0, #1
 8000b46:	4770      	bx	lr

08000b48 <__aeabi_d2iz>:
 8000b48:	ea4f 0241 	mov.w	r2, r1, lsl #1
 8000b4c:	f512 1200 	adds.w	r2, r2, #2097152	; 0x200000
 8000b50:	d215      	bcs.n	8000b7e <__aeabi_d2iz+0x36>
 8000b52:	d511      	bpl.n	8000b78 <__aeabi_d2iz+0x30>
 8000b54:	f46f 7378 	mvn.w	r3, #992	; 0x3e0
 8000b58:	ebb3 5262 	subs.w	r2, r3, r2, asr #21
 8000b5c:	d912      	bls.n	8000b84 <__aeabi_d2iz+0x3c>
 8000b5e:	ea4f 23c1 	mov.w	r3, r1, lsl #11
 8000b62:	f043 4300 	orr.w	r3, r3, #2147483648	; 0x80000000
 8000b66:	ea43 5350 	orr.w	r3, r3, r0, lsr #21
 8000b6a:	f011 4f00 	tst.w	r1, #2147483648	; 0x80000000
 8000b6e:	fa23 f002 	lsr.w	r0, r3, r2
 8000b72:	bf18      	it	ne
 8000b74:	4240      	negne	r0, r0
 8000b76:	4770      	bx	lr
 8000b78:	f04f 0000 	mov.w	r0, #0
 8000b7c:	4770      	bx	lr
 8000b7e:	ea50 3001 	orrs.w	r0, r0, r1, lsl #12
 8000b82:	d105      	bne.n	8000b90 <__aeabi_d2iz+0x48>
 8000b84:	f011 4000 	ands.w	r0, r1, #2147483648	; 0x80000000
 8000b88:	bf08      	it	eq
 8000b8a:	f06f 4000 	mvneq.w	r0, #2147483648	; 0x80000000
 8000b8e:	4770      	bx	lr
 8000b90:	f04f 0000 	mov.w	r0, #0
 8000b94:	4770      	bx	lr
 8000b96:	bf00      	nop

08000b98 <__aeabi_d2f>:
 8000b98:	ea4f 0241 	mov.w	r2, r1, lsl #1
 8000b9c:	f1b2 43e0 	subs.w	r3, r2, #1879048192	; 0x70000000
 8000ba0:	bf24      	itt	cs
 8000ba2:	f5b3 1c00 	subscs.w	ip, r3, #2097152	; 0x200000
 8000ba6:	f1dc 5cfe 	rsbscs	ip, ip, #532676608	; 0x1fc00000
 8000baa:	d90d      	bls.n	8000bc8 <__aeabi_d2f+0x30>
 8000bac:	f001 4c00 	and.w	ip, r1, #2147483648	; 0x80000000
 8000bb0:	ea4f 02c0 	mov.w	r2, r0, lsl #3
 8000bb4:	ea4c 7050 	orr.w	r0, ip, r0, lsr #29
 8000bb8:	f1b2 4f00 	cmp.w	r2, #2147483648	; 0x80000000
 8000bbc:	eb40 0083 	adc.w	r0, r0, r3, lsl #2
 8000bc0:	bf08      	it	eq
 8000bc2:	f020 0001 	biceq.w	r0, r0, #1
 8000bc6:	4770      	bx	lr
 8000bc8:	f011 4f80 	tst.w	r1, #1073741824	; 0x40000000
 8000bcc:	d121      	bne.n	8000c12 <__aeabi_d2f+0x7a>
 8000bce:	f113 7238 	adds.w	r2, r3, #48234496	; 0x2e00000
 8000bd2:	bfbc      	itt	lt
 8000bd4:	f001 4000 	andlt.w	r0, r1, #2147483648	; 0x80000000
 8000bd8:	4770      	bxlt	lr
 8000bda:	f441 1180 	orr.w	r1, r1, #1048576	; 0x100000
 8000bde:	ea4f 5252 	mov.w	r2, r2, lsr #21
 8000be2:	f1c2 0218 	rsb	r2, r2, #24
 8000be6:	f1c2 0c20 	rsb	ip, r2, #32
 8000bea:	fa10 f30c 	lsls.w	r3, r0, ip
 8000bee:	fa20 f002 	lsr.w	r0, r0, r2
 8000bf2:	bf18      	it	ne
 8000bf4:	f040 0001 	orrne.w	r0, r0, #1
 8000bf8:	ea4f 23c1 	mov.w	r3, r1, lsl #11
 8000bfc:	ea4f 23d3 	mov.w	r3, r3, lsr #11
 8000c00:	fa03 fc0c 	lsl.w	ip, r3, ip
 8000c04:	ea40 000c 	orr.w	r0, r0, ip
 8000c08:	fa23 f302 	lsr.w	r3, r3, r2
 8000c0c:	ea4f 0343 	mov.w	r3, r3, lsl #1
 8000c10:	e7cc      	b.n	8000bac <__aeabi_d2f+0x14>
 8000c12:	ea7f 5362 	mvns.w	r3, r2, asr #21
 8000c16:	d107      	bne.n	8000c28 <__aeabi_d2f+0x90>
 8000c18:	ea50 3301 	orrs.w	r3, r0, r1, lsl #12
 8000c1c:	bf1e      	ittt	ne
 8000c1e:	f04f 40fe 	movne.w	r0, #2130706432	; 0x7f000000
 8000c22:	f440 0040 	orrne.w	r0, r0, #12582912	; 0xc00000
 8000c26:	4770      	bxne	lr
 8000c28:	f001 4000 	and.w	r0, r1, #2147483648	; 0x80000000
 8000c2c:	f040 40fe 	orr.w	r0, r0, #2130706432	; 0x7f000000
 8000c30:	f440 0000 	orr.w	r0, r0, #8388608	; 0x800000
 8000c34:	4770      	bx	lr
 8000c36:	bf00      	nop

08000c38 <__aeabi_uldivmod>:
 8000c38:	b953      	cbnz	r3, 8000c50 <__aeabi_uldivmod+0x18>
 8000c3a:	b94a      	cbnz	r2, 8000c50 <__aeabi_uldivmod+0x18>
 8000c3c:	2900      	cmp	r1, #0
 8000c3e:	bf08      	it	eq
 8000c40:	2800      	cmpeq	r0, #0
 8000c42:	bf1c      	itt	ne
 8000c44:	f04f 31ff 	movne.w	r1, #4294967295
 8000c48:	f04f 30ff 	movne.w	r0, #4294967295
 8000c4c:	f000 b970 	b.w	8000f30 <__aeabi_idiv0>
 8000c50:	f1ad 0c08 	sub.w	ip, sp, #8
 8000c54:	e96d ce04 	strd	ip, lr, [sp, #-16]!
 8000c58:	f000 f806 	bl	8000c68 <__udivmoddi4>
 8000c5c:	f8dd e004 	ldr.w	lr, [sp, #4]
 8000c60:	e9dd 2302 	ldrd	r2, r3, [sp, #8]
 8000c64:	b004      	add	sp, #16
 8000c66:	4770      	bx	lr

08000c68 <__udivmoddi4>:
 8000c68:	e92d 47f0 	stmdb	sp!, {r4, r5, r6, r7, r8, r9, sl, lr}
 8000c6c:	9e08      	ldr	r6, [sp, #32]
 8000c6e:	460d      	mov	r5, r1
 8000c70:	4604      	mov	r4, r0
 8000c72:	460f      	mov	r7, r1
 8000c74:	2b00      	cmp	r3, #0
 8000c76:	d14a      	bne.n	8000d0e <__udivmoddi4+0xa6>
 8000c78:	428a      	cmp	r2, r1
 8000c7a:	4694      	mov	ip, r2
 8000c7c:	d965      	bls.n	8000d4a <__udivmoddi4+0xe2>
 8000c7e:	fab2 f382 	clz	r3, r2
 8000c82:	b143      	cbz	r3, 8000c96 <__udivmoddi4+0x2e>
 8000c84:	fa02 fc03 	lsl.w	ip, r2, r3
 8000c88:	f1c3 0220 	rsb	r2, r3, #32
 8000c8c:	409f      	lsls	r7, r3
 8000c8e:	fa20 f202 	lsr.w	r2, r0, r2
 8000c92:	4317      	orrs	r7, r2
 8000c94:	409c      	lsls	r4, r3
 8000c96:	ea4f 4e1c 	mov.w	lr, ip, lsr #16
 8000c9a:	fa1f f58c 	uxth.w	r5, ip
 8000c9e:	fbb7 f1fe 	udiv	r1, r7, lr
 8000ca2:	0c22      	lsrs	r2, r4, #16
 8000ca4:	fb0e 7711 	mls	r7, lr, r1, r7
 8000ca8:	ea42 4207 	orr.w	r2, r2, r7, lsl #16
 8000cac:	fb01 f005 	mul.w	r0, r1, r5
 8000cb0:	4290      	cmp	r0, r2
 8000cb2:	d90a      	bls.n	8000cca <__udivmoddi4+0x62>
 8000cb4:	eb1c 0202 	adds.w	r2, ip, r2
 8000cb8:	f101 37ff 	add.w	r7, r1, #4294967295
 8000cbc:	f080 811c 	bcs.w	8000ef8 <__udivmoddi4+0x290>
 8000cc0:	4290      	cmp	r0, r2
 8000cc2:	f240 8119 	bls.w	8000ef8 <__udivmoddi4+0x290>
 8000cc6:	3902      	subs	r1, #2
 8000cc8:	4462      	add	r2, ip
 8000cca:	1a12      	subs	r2, r2, r0
 8000ccc:	b2a4      	uxth	r4, r4
 8000cce:	fbb2 f0fe 	udiv	r0, r2, lr
 8000cd2:	fb0e 2210 	mls	r2, lr, r0, r2
 8000cd6:	ea44 4402 	orr.w	r4, r4, r2, lsl #16
 8000cda:	fb00 f505 	mul.w	r5, r0, r5
 8000cde:	42a5      	cmp	r5, r4
 8000ce0:	d90a      	bls.n	8000cf8 <__udivmoddi4+0x90>
 8000ce2:	eb1c 0404 	adds.w	r4, ip, r4
 8000ce6:	f100 32ff 	add.w	r2, r0, #4294967295
 8000cea:	f080 8107 	bcs.w	8000efc <__udivmoddi4+0x294>
 8000cee:	42a5      	cmp	r5, r4
 8000cf0:	f240 8104 	bls.w	8000efc <__udivmoddi4+0x294>
 8000cf4:	4464      	add	r4, ip
 8000cf6:	3802      	subs	r0, #2
 8000cf8:	ea40 4001 	orr.w	r0, r0, r1, lsl #16
 8000cfc:	1b64      	subs	r4, r4, r5
 8000cfe:	2100      	movs	r1, #0
 8000d00:	b11e      	cbz	r6, 8000d0a <__udivmoddi4+0xa2>
 8000d02:	40dc      	lsrs	r4, r3
 8000d04:	2300      	movs	r3, #0
 8000d06:	e9c6 4300 	strd	r4, r3, [r6]
 8000d0a:	e8bd 87f0 	ldmia.w	sp!, {r4, r5, r6, r7, r8, r9, sl, pc}
 8000d0e:	428b      	cmp	r3, r1
 8000d10:	d908      	bls.n	8000d24 <__udivmoddi4+0xbc>
 8000d12:	2e00      	cmp	r6, #0
 8000d14:	f000 80ed 	beq.w	8000ef2 <__udivmoddi4+0x28a>
 8000d18:	2100      	movs	r1, #0
 8000d1a:	e9c6 0500 	strd	r0, r5, [r6]
 8000d1e:	4608      	mov	r0, r1
 8000d20:	e8bd 87f0 	ldmia.w	sp!, {r4, r5, r6, r7, r8, r9, sl, pc}
 8000d24:	fab3 f183 	clz	r1, r3
 8000d28:	2900      	cmp	r1, #0
 8000d2a:	d149      	bne.n	8000dc0 <__udivmoddi4+0x158>
 8000d2c:	42ab      	cmp	r3, r5
 8000d2e:	d302      	bcc.n	8000d36 <__udivmoddi4+0xce>
 8000d30:	4282      	cmp	r2, r0
 8000d32:	f200 80f8 	bhi.w	8000f26 <__udivmoddi4+0x2be>
 8000d36:	1a84      	subs	r4, r0, r2
 8000d38:	eb65 0203 	sbc.w	r2, r5, r3
 8000d3c:	2001      	movs	r0, #1
 8000d3e:	4617      	mov	r7, r2
 8000d40:	2e00      	cmp	r6, #0
 8000d42:	d0e2      	beq.n	8000d0a <__udivmoddi4+0xa2>
 8000d44:	e9c6 4700 	strd	r4, r7, [r6]
 8000d48:	e7df      	b.n	8000d0a <__udivmoddi4+0xa2>
 8000d4a:	b902      	cbnz	r2, 8000d4e <__udivmoddi4+0xe6>
 8000d4c:	deff      	udf	#255	; 0xff
 8000d4e:	fab2 f382 	clz	r3, r2
 8000d52:	2b00      	cmp	r3, #0
 8000d54:	f040 8090 	bne.w	8000e78 <__udivmoddi4+0x210>
 8000d58:	1a8a      	subs	r2, r1, r2
 8000d5a:	ea4f 471c 	mov.w	r7, ip, lsr #16
 8000d5e:	fa1f fe8c 	uxth.w	lr, ip
 8000d62:	2101      	movs	r1, #1
 8000d64:	fbb2 f5f7 	udiv	r5, r2, r7
 8000d68:	fb07 2015 	mls	r0, r7, r5, r2
 8000d6c:	0c22      	lsrs	r2, r4, #16
 8000d6e:	ea42 4200 	orr.w	r2, r2, r0, lsl #16
 8000d72:	fb0e f005 	mul.w	r0, lr, r5
 8000d76:	4290      	cmp	r0, r2
 8000d78:	d908      	bls.n	8000d8c <__udivmoddi4+0x124>
 8000d7a:	eb1c 0202 	adds.w	r2, ip, r2
 8000d7e:	f105 38ff 	add.w	r8, r5, #4294967295
 8000d82:	d202      	bcs.n	8000d8a <__udivmoddi4+0x122>
 8000d84:	4290      	cmp	r0, r2
 8000d86:	f200 80cb 	bhi.w	8000f20 <__udivmoddi4+0x2b8>
 8000d8a:	4645      	mov	r5, r8
 8000d8c:	1a12      	subs	r2, r2, r0
 8000d8e:	b2a4      	uxth	r4, r4
 8000d90:	fbb2 f0f7 	udiv	r0, r2, r7
 8000d94:	fb07 2210 	mls	r2, r7, r0, r2
 8000d98:	ea44 4402 	orr.w	r4, r4, r2, lsl #16
 8000d9c:	fb0e fe00 	mul.w	lr, lr, r0
 8000da0:	45a6      	cmp	lr, r4
 8000da2:	d908      	bls.n	8000db6 <__udivmoddi4+0x14e>
 8000da4:	eb1c 0404 	adds.w	r4, ip, r4
 8000da8:	f100 32ff 	add.w	r2, r0, #4294967295
 8000dac:	d202      	bcs.n	8000db4 <__udivmoddi4+0x14c>
 8000dae:	45a6      	cmp	lr, r4
 8000db0:	f200 80bb 	bhi.w	8000f2a <__udivmoddi4+0x2c2>
 8000db4:	4610      	mov	r0, r2
 8000db6:	eba4 040e 	sub.w	r4, r4, lr
 8000dba:	ea40 4005 	orr.w	r0, r0, r5, lsl #16
 8000dbe:	e79f      	b.n	8000d00 <__udivmoddi4+0x98>
 8000dc0:	f1c1 0720 	rsb	r7, r1, #32
 8000dc4:	408b      	lsls	r3, r1
 8000dc6:	fa22 fc07 	lsr.w	ip, r2, r7
 8000dca:	ea4c 0c03 	orr.w	ip, ip, r3
 8000dce:	fa05 f401 	lsl.w	r4, r5, r1
 8000dd2:	fa20 f307 	lsr.w	r3, r0, r7
 8000dd6:	40fd      	lsrs	r5, r7
 8000dd8:	ea4f 491c 	mov.w	r9, ip, lsr #16
 8000ddc:	4323      	orrs	r3, r4
 8000dde:	fbb5 f8f9 	udiv	r8, r5, r9
 8000de2:	fa1f fe8c 	uxth.w	lr, ip
 8000de6:	fb09 5518 	mls	r5, r9, r8, r5
 8000dea:	0c1c      	lsrs	r4, r3, #16
 8000dec:	ea44 4405 	orr.w	r4, r4, r5, lsl #16
 8000df0:	fb08 f50e 	mul.w	r5, r8, lr
 8000df4:	42a5      	cmp	r5, r4
 8000df6:	fa02 f201 	lsl.w	r2, r2, r1
 8000dfa:	fa00 f001 	lsl.w	r0, r0, r1
 8000dfe:	d90b      	bls.n	8000e18 <__udivmoddi4+0x1b0>
 8000e00:	eb1c 0404 	adds.w	r4, ip, r4
 8000e04:	f108 3aff 	add.w	sl, r8, #4294967295
 8000e08:	f080 8088 	bcs.w	8000f1c <__udivmoddi4+0x2b4>
 8000e0c:	42a5      	cmp	r5, r4
 8000e0e:	f240 8085 	bls.w	8000f1c <__udivmoddi4+0x2b4>
 8000e12:	f1a8 0802 	sub.w	r8, r8, #2
 8000e16:	4464      	add	r4, ip
 8000e18:	1b64      	subs	r4, r4, r5
 8000e1a:	b29d      	uxth	r5, r3
 8000e1c:	fbb4 f3f9 	udiv	r3, r4, r9
 8000e20:	fb09 4413 	mls	r4, r9, r3, r4
 8000e24:	ea45 4404 	orr.w	r4, r5, r4, lsl #16
 8000e28:	fb03 fe0e 	mul.w	lr, r3, lr
 8000e2c:	45a6      	cmp	lr, r4
 8000e2e:	d908      	bls.n	8000e42 <__udivmoddi4+0x1da>
 8000e30:	eb1c 0404 	adds.w	r4, ip, r4
 8000e34:	f103 35ff 	add.w	r5, r3, #4294967295
 8000e38:	d26c      	bcs.n	8000f14 <__udivmoddi4+0x2ac>
 8000e3a:	45a6      	cmp	lr, r4
 8000e3c:	d96a      	bls.n	8000f14 <__udivmoddi4+0x2ac>
 8000e3e:	3b02      	subs	r3, #2
 8000e40:	4464      	add	r4, ip
 8000e42:	ea43 4308 	orr.w	r3, r3, r8, lsl #16
 8000e46:	fba3 9502 	umull	r9, r5, r3, r2
 8000e4a:	eba4 040e 	sub.w	r4, r4, lr
 8000e4e:	42ac      	cmp	r4, r5
 8000e50:	46c8      	mov	r8, r9
 8000e52:	46ae      	mov	lr, r5
 8000e54:	d356      	bcc.n	8000f04 <__udivmoddi4+0x29c>
 8000e56:	d053      	beq.n	8000f00 <__udivmoddi4+0x298>
 8000e58:	b156      	cbz	r6, 8000e70 <__udivmoddi4+0x208>
 8000e5a:	ebb0 0208 	subs.w	r2, r0, r8
 8000e5e:	eb64 040e 	sbc.w	r4, r4, lr
 8000e62:	fa04 f707 	lsl.w	r7, r4, r7
 8000e66:	40ca      	lsrs	r2, r1
 8000e68:	40cc      	lsrs	r4, r1
 8000e6a:	4317      	orrs	r7, r2
 8000e6c:	e9c6 7400 	strd	r7, r4, [r6]
 8000e70:	4618      	mov	r0, r3
 8000e72:	2100      	movs	r1, #0
 8000e74:	e8bd 87f0 	ldmia.w	sp!, {r4, r5, r6, r7, r8, r9, sl, pc}
 8000e78:	f1c3 0120 	rsb	r1, r3, #32
 8000e7c:	fa02 fc03 	lsl.w	ip, r2, r3
 8000e80:	fa20 f201 	lsr.w	r2, r0, r1
 8000e84:	fa25 f101 	lsr.w	r1, r5, r1
 8000e88:	409d      	lsls	r5, r3
 8000e8a:	432a      	orrs	r2, r5
 8000e8c:	ea4f 471c 	mov.w	r7, ip, lsr #16
 8000e90:	fa1f fe8c 	uxth.w	lr, ip
 8000e94:	fbb1 f0f7 	udiv	r0, r1, r7
 8000e98:	fb07 1510 	mls	r5, r7, r0, r1
 8000e9c:	0c11      	lsrs	r1, r2, #16
 8000e9e:	ea41 4105 	orr.w	r1, r1, r5, lsl #16
 8000ea2:	fb00 f50e 	mul.w	r5, r0, lr
 8000ea6:	428d      	cmp	r5, r1
 8000ea8:	fa04 f403 	lsl.w	r4, r4, r3
 8000eac:	d908      	bls.n	8000ec0 <__udivmoddi4+0x258>
 8000eae:	eb1c 0101 	adds.w	r1, ip, r1
 8000eb2:	f100 38ff 	add.w	r8, r0, #4294967295
 8000eb6:	d22f      	bcs.n	8000f18 <__udivmoddi4+0x2b0>
 8000eb8:	428d      	cmp	r5, r1
 8000eba:	d92d      	bls.n	8000f18 <__udivmoddi4+0x2b0>
 8000ebc:	3802      	subs	r0, #2
 8000ebe:	4461      	add	r1, ip
 8000ec0:	1b49      	subs	r1, r1, r5
 8000ec2:	b292      	uxth	r2, r2
 8000ec4:	fbb1 f5f7 	udiv	r5, r1, r7
 8000ec8:	fb07 1115 	mls	r1, r7, r5, r1
 8000ecc:	ea42 4201 	orr.w	r2, r2, r1, lsl #16
 8000ed0:	fb05 f10e 	mul.w	r1, r5, lr
 8000ed4:	4291      	cmp	r1, r2
 8000ed6:	d908      	bls.n	8000eea <__udivmoddi4+0x282>
 8000ed8:	eb1c 0202 	adds.w	r2, ip, r2
 8000edc:	f105 38ff 	add.w	r8, r5, #4294967295
 8000ee0:	d216      	bcs.n	8000f10 <__udivmoddi4+0x2a8>
 8000ee2:	4291      	cmp	r1, r2
 8000ee4:	d914      	bls.n	8000f10 <__udivmoddi4+0x2a8>
 8000ee6:	3d02      	subs	r5, #2
 8000ee8:	4462      	add	r2, ip
 8000eea:	1a52      	subs	r2, r2, r1
 8000eec:	ea45 4100 	orr.w	r1, r5, r0, lsl #16
 8000ef0:	e738      	b.n	8000d64 <__udivmoddi4+0xfc>
 8000ef2:	4631      	mov	r1, r6
 8000ef4:	4630      	mov	r0, r6
 8000ef6:	e708      	b.n	8000d0a <__udivmoddi4+0xa2>
 8000ef8:	4639      	mov	r1, r7
 8000efa:	e6e6      	b.n	8000cca <__udivmoddi4+0x62>
 8000efc:	4610      	mov	r0, r2
 8000efe:	e6fb      	b.n	8000cf8 <__udivmoddi4+0x90>
 8000f00:	4548      	cmp	r0, r9
 8000f02:	d2a9      	bcs.n	8000e58 <__udivmoddi4+0x1f0>
 8000f04:	ebb9 0802 	subs.w	r8, r9, r2
 8000f08:	eb65 0e0c 	sbc.w	lr, r5, ip
 8000f0c:	3b01      	subs	r3, #1
 8000f0e:	e7a3      	b.n	8000e58 <__udivmoddi4+0x1f0>
 8000f10:	4645      	mov	r5, r8
 8000f12:	e7ea      	b.n	8000eea <__udivmoddi4+0x282>
 8000f14:	462b      	mov	r3, r5
 8000f16:	e794      	b.n	8000e42 <__udivmoddi4+0x1da>
 8000f18:	4640      	mov	r0, r8
 8000f1a:	e7d1      	b.n	8000ec0 <__udivmoddi4+0x258>
 8000f1c:	46d0      	mov	r8, sl
 8000f1e:	e77b      	b.n	8000e18 <__udivmoddi4+0x1b0>
 8000f20:	3d02      	subs	r5, #2
 8000f22:	4462      	add	r2, ip
 8000f24:	e732      	b.n	8000d8c <__udivmoddi4+0x124>
 8000f26:	4608      	mov	r0, r1
 8000f28:	e70a      	b.n	8000d40 <__udivmoddi4+0xd8>
 8000f2a:	4464      	add	r4, ip
 8000f2c:	3802      	subs	r0, #2
 8000f2e:	e742      	b.n	8000db6 <__udivmoddi4+0x14e>

08000f30 <__aeabi_idiv0>:
 8000f30:	4770      	bx	lr
 8000f32:	bf00      	nop

08000f34 <HAL_InitTick>:
  *       implementation  in user file.
  * @param TickPriority Tick interrupt priority.
  * @retval HAL status
  */
__weak HAL_StatusTypeDef HAL_InitTick(uint32_t TickPriority)
{
 8000f34:	b538      	push	{r3, r4, r5, lr}
  /* Configure the SysTick to have interrupt in 1ms time basis*/
  if (HAL_SYSTICK_Config(SystemCoreClock / (1000U / uwTickFreq)) > 0U)
 8000f36:	4b0e      	ldr	r3, [pc, #56]	; (8000f70 <HAL_InitTick+0x3c>)
 8000f38:	781a      	ldrb	r2, [r3, #0]
 8000f3a:	f44f 737a 	mov.w	r3, #1000	; 0x3e8
 8000f3e:	fbb3 f3f2 	udiv	r3, r3, r2
 8000f42:	4a0c      	ldr	r2, [pc, #48]	; (8000f74 <HAL_InitTick+0x40>)
{
 8000f44:	4605      	mov	r5, r0
  if (HAL_SYSTICK_Config(SystemCoreClock / (1000U / uwTickFreq)) > 0U)
 8000f46:	6810      	ldr	r0, [r2, #0]
 8000f48:	fbb0 f0f3 	udiv	r0, r0, r3
 8000f4c:	f000 fae0 	bl	8001510 <HAL_SYSTICK_Config>
 8000f50:	4604      	mov	r4, r0
 8000f52:	b958      	cbnz	r0, 8000f6c <HAL_InitTick+0x38>
  {
    return HAL_ERROR;
  }

  /* Configure the SysTick IRQ priority */
  if (TickPriority < (1UL << __NVIC_PRIO_BITS))
 8000f54:	2d0f      	cmp	r5, #15
 8000f56:	d809      	bhi.n	8000f6c <HAL_InitTick+0x38>
  {
    HAL_NVIC_SetPriority(SysTick_IRQn, TickPriority, 0U);
 8000f58:	4602      	mov	r2, r0
 8000f5a:	4629      	mov	r1, r5
 8000f5c:	f04f 30ff 	mov.w	r0, #4294967295
 8000f60:	f000 fa96 	bl	8001490 <HAL_NVIC_SetPriority>
    uwTickPrio = TickPriority;
 8000f64:	4b04      	ldr	r3, [pc, #16]	; (8000f78 <HAL_InitTick+0x44>)
 8000f66:	4620      	mov	r0, r4
 8000f68:	601d      	str	r5, [r3, #0]
    return HAL_ERROR;
  }

  /* Return function status */
  return HAL_OK;
}
 8000f6a:	bd38      	pop	{r3, r4, r5, pc}
    return HAL_ERROR;
 8000f6c:	2001      	movs	r0, #1
 8000f6e:	e7fc      	b.n	8000f6a <HAL_InitTick+0x36>
 8000f70:	20000000 	.word	0x20000000
 8000f74:	20000050 	.word	0x20000050
 8000f78:	20000004 	.word	0x20000004

08000f7c <HAL_Init>:
{
 8000f7c:	b508      	push	{r3, lr}
  __HAL_FLASH_INSTRUCTION_CACHE_ENABLE();
 8000f7e:	4b0b      	ldr	r3, [pc, #44]	; (8000fac <HAL_Init+0x30>)
 8000f80:	681a      	ldr	r2, [r3, #0]
 8000f82:	f442 7200 	orr.w	r2, r2, #512	; 0x200
 8000f86:	601a      	str	r2, [r3, #0]
  __HAL_FLASH_DATA_CACHE_ENABLE();
 8000f88:	681a      	ldr	r2, [r3, #0]
 8000f8a:	f442 6280 	orr.w	r2, r2, #1024	; 0x400
 8000f8e:	601a      	str	r2, [r3, #0]
  __HAL_FLASH_PREFETCH_BUFFER_ENABLE();
 8000f90:	681a      	ldr	r2, [r3, #0]
 8000f92:	f442 7280 	orr.w	r2, r2, #256	; 0x100
 8000f96:	601a      	str	r2, [r3, #0]
  HAL_NVIC_SetPriorityGrouping(NVIC_PRIORITYGROUP_4);
 8000f98:	2003      	movs	r0, #3
 8000f9a:	f000 fa67 	bl	800146c <HAL_NVIC_SetPriorityGrouping>
  HAL_InitTick(TICK_INT_PRIORITY);
 8000f9e:	2000      	movs	r0, #0
 8000fa0:	f7ff ffc8 	bl	8000f34 <HAL_InitTick>
  HAL_MspInit();
 8000fa4:	f002 fb84 	bl	80036b0 <HAL_MspInit>
}
 8000fa8:	2000      	movs	r0, #0
 8000faa:	bd08      	pop	{r3, pc}
 8000fac:	40023c00 	.word	0x40023c00

08000fb0 <HAL_IncTick>:
  *      implementations in user file.
  * @retval None
  */
__weak void HAL_IncTick(void)
{
  uwTick += uwTickFreq;
 8000fb0:	4a03      	ldr	r2, [pc, #12]	; (8000fc0 <HAL_IncTick+0x10>)
 8000fb2:	4b04      	ldr	r3, [pc, #16]	; (8000fc4 <HAL_IncTick+0x14>)
 8000fb4:	6811      	ldr	r1, [r2, #0]
 8000fb6:	781b      	ldrb	r3, [r3, #0]
 8000fb8:	440b      	add	r3, r1
 8000fba:	6013      	str	r3, [r2, #0]
}
 8000fbc:	4770      	bx	lr
 8000fbe:	bf00      	nop
 8000fc0:	200000dc 	.word	0x200000dc
 8000fc4:	20000000 	.word	0x20000000

08000fc8 <HAL_GetTick>:
  *       implementations in user file.
  * @retval tick value
  */
__weak uint32_t HAL_GetTick(void)
{
  return uwTick;
 8000fc8:	4b01      	ldr	r3, [pc, #4]	; (8000fd0 <HAL_GetTick+0x8>)
 8000fca:	6818      	ldr	r0, [r3, #0]
}
 8000fcc:	4770      	bx	lr
 8000fce:	bf00      	nop
 8000fd0:	200000dc 	.word	0x200000dc

08000fd4 <HAL_ADC_Init>:
  * @param  hadc pointer to a ADC_HandleTypeDef structure that contains
  *         the configuration information for the specified ADC.  
  * @retval HAL status
  */
HAL_StatusTypeDef HAL_ADC_Init(ADC_HandleTypeDef* hadc)
{
 8000fd4:	b538      	push	{r3, r4, r5, lr}
  HAL_StatusTypeDef tmp_hal_status = HAL_OK;
  
  /* Check ADC handle */
  if(hadc == NULL)
 8000fd6:	4604      	mov	r4, r0
 8000fd8:	2800      	cmp	r0, #0
 8000fda:	f000 809b 	beq.w	8001114 <HAL_ADC_Init+0x140>
  if(hadc->Init.ExternalTrigConv != ADC_SOFTWARE_START)
  {
    assert_param(IS_ADC_EXT_TRIG_EDGE(hadc->Init.ExternalTrigConvEdge));
  }
  
  if(hadc->State == HAL_ADC_STATE_RESET)
 8000fde:	6c05      	ldr	r5, [r0, #64]	; 0x40
 8000fe0:	b925      	cbnz	r5, 8000fec <HAL_ADC_Init+0x18>

    /* Init the low level hardware */
    hadc->MspInitCallback(hadc);
#else
    /* Init the low level hardware */
    HAL_ADC_MspInit(hadc);
 8000fe2:	f002 fb81 	bl	80036e8 <HAL_ADC_MspInit>
#endif /* USE_HAL_ADC_REGISTER_CALLBACKS */

    /* Initialize ADC error code */
    ADC_CLEAR_ERRORCODE(hadc);
 8000fe6:	6465      	str	r5, [r4, #68]	; 0x44
    
    /* Allocate lock resource and initialize it */
    hadc->Lock = HAL_UNLOCKED;
 8000fe8:	f884 503c 	strb.w	r5, [r4, #60]	; 0x3c
  }
  
  /* Configuration of ADC parameters if previous preliminary actions are      */ 
  /* correctly completed.                                                     */
  if (HAL_IS_BIT_CLR(hadc->State, HAL_ADC_STATE_ERROR_INTERNAL))
 8000fec:	6c23      	ldr	r3, [r4, #64]	; 0x40
 8000fee:	06db      	lsls	r3, r3, #27
 8000ff0:	f100 808e 	bmi.w	8001110 <HAL_ADC_Init+0x13c>
  {
    /* Set ADC state */
    ADC_STATE_CLR_SET(hadc->State,
 8000ff4:	6c23      	ldr	r3, [r4, #64]	; 0x40
 8000ff6:	f423 5388 	bic.w	r3, r3, #4352	; 0x1100
 8000ffa:	f023 0302 	bic.w	r3, r3, #2
 8000ffe:	f043 0302 	orr.w	r3, r3, #2
 8001002:	6423      	str	r3, [r4, #64]	; 0x40
  /* (Depending on STM32F4 product, there may be up to 3 ADCs and 1 common */
  /* control register)                                                    */
  tmpADC_Common = ADC_COMMON_REGISTER(hadc);
  
  /* Set the ADC clock prescaler */
  tmpADC_Common->CCR &= ~(ADC_CCR_ADCPRE);
 8001004:	4b44      	ldr	r3, [pc, #272]	; (8001118 <HAL_ADC_Init+0x144>)
 8001006:	685a      	ldr	r2, [r3, #4]
 8001008:	f422 3240 	bic.w	r2, r2, #196608	; 0x30000
 800100c:	605a      	str	r2, [r3, #4]
  tmpADC_Common->CCR |=  hadc->Init.ClockPrescaler;
 800100e:	685a      	ldr	r2, [r3, #4]
 8001010:	6861      	ldr	r1, [r4, #4]
 8001012:	430a      	orrs	r2, r1
 8001014:	605a      	str	r2, [r3, #4]
  
  /* Set ADC scan mode */
  hadc->Instance->CR1 &= ~(ADC_CR1_SCAN);
 8001016:	6823      	ldr	r3, [r4, #0]
  hadc->Instance->CR1 |=  ADC_CR1_SCANCONV(hadc->Init.ScanConvMode);
 8001018:	6921      	ldr	r1, [r4, #16]
  hadc->Instance->CR1 &= ~(ADC_CR1_SCAN);
 800101a:	685a      	ldr	r2, [r3, #4]
 800101c:	f422 7280 	bic.w	r2, r2, #256	; 0x100
 8001020:	605a      	str	r2, [r3, #4]
  hadc->Instance->CR1 |=  ADC_CR1_SCANCONV(hadc->Init.ScanConvMode);
 8001022:	685a      	ldr	r2, [r3, #4]
 8001024:	ea42 2201 	orr.w	r2, r2, r1, lsl #8
 8001028:	605a      	str	r2, [r3, #4]
  
  /* Set ADC resolution */
  hadc->Instance->CR1 &= ~(ADC_CR1_RES);
 800102a:	685a      	ldr	r2, [r3, #4]
  hadc->Instance->CR1 |=  hadc->Init.Resolution;
 800102c:	68a1      	ldr	r1, [r4, #8]
  hadc->Instance->CR1 &= ~(ADC_CR1_RES);
 800102e:	f022 7240 	bic.w	r2, r2, #50331648	; 0x3000000
 8001032:	605a      	str	r2, [r3, #4]
  hadc->Instance->CR1 |=  hadc->Init.Resolution;
 8001034:	685a      	ldr	r2, [r3, #4]
 8001036:	430a      	orrs	r2, r1
 8001038:	605a      	str	r2, [r3, #4]
  
  /* Set ADC data alignment */
  hadc->Instance->CR2 &= ~(ADC_CR2_ALIGN);
 800103a:	689a      	ldr	r2, [r3, #8]
  hadc->Instance->CR2 |= hadc->Init.DataAlign;
 800103c:	68e1      	ldr	r1, [r4, #12]
  hadc->Instance->CR2 &= ~(ADC_CR2_ALIGN);
 800103e:	f422 6200 	bic.w	r2, r2, #2048	; 0x800
 8001042:	609a      	str	r2, [r3, #8]
  hadc->Instance->CR2 |= hadc->Init.DataAlign;
 8001044:	689a      	ldr	r2, [r3, #8]
 8001046:	430a      	orrs	r2, r1
 8001048:	609a      	str	r2, [r3, #8]
  /* Enable external trigger if trigger selection is different of software  */
  /* start.                                                                 */
  /* Note: This configuration keeps the hardware feature of parameter       */
  /*       ExternalTrigConvEdge "trigger edge none" equivalent to           */
  /*       software start.                                                  */
  if(hadc->Init.ExternalTrigConv != ADC_SOFTWARE_START)
 800104a:	4934      	ldr	r1, [pc, #208]	; (800111c <HAL_ADC_Init+0x148>)
 800104c:	6aa2      	ldr	r2, [r4, #40]	; 0x28
 800104e:	428a      	cmp	r2, r1
 8001050:	d052      	beq.n	80010f8 <HAL_ADC_Init+0x124>
  {
    /* Select external trigger to start conversion */
    hadc->Instance->CR2 &= ~(ADC_CR2_EXTSEL);
 8001052:	6899      	ldr	r1, [r3, #8]
 8001054:	f021 6170 	bic.w	r1, r1, #251658240	; 0xf000000
 8001058:	6099      	str	r1, [r3, #8]
    hadc->Instance->CR2 |= hadc->Init.ExternalTrigConv;
 800105a:	6899      	ldr	r1, [r3, #8]
 800105c:	430a      	orrs	r2, r1
 800105e:	609a      	str	r2, [r3, #8]
    
    /* Select external trigger polarity */
    hadc->Instance->CR2 &= ~(ADC_CR2_EXTEN);
 8001060:	689a      	ldr	r2, [r3, #8]
    hadc->Instance->CR2 |= hadc->Init.ExternalTrigConvEdge;
 8001062:	6ae1      	ldr	r1, [r4, #44]	; 0x2c
    hadc->Instance->CR2 &= ~(ADC_CR2_EXTEN);
 8001064:	f022 5240 	bic.w	r2, r2, #805306368	; 0x30000000
 8001068:	609a      	str	r2, [r3, #8]
    hadc->Instance->CR2 |= hadc->Init.ExternalTrigConvEdge;
 800106a:	689a      	ldr	r2, [r3, #8]
 800106c:	430a      	orrs	r2, r1
  }
  else
  {
    /* Reset the external trigger */
    hadc->Instance->CR2 &= ~(ADC_CR2_EXTSEL);
    hadc->Instance->CR2 &= ~(ADC_CR2_EXTEN);
 800106e:	609a      	str	r2, [r3, #8]
  }
  
  /* Enable or disable ADC continuous conversion mode */
  hadc->Instance->CR2 &= ~(ADC_CR2_CONT);
 8001070:	689a      	ldr	r2, [r3, #8]
 8001072:	f022 0202 	bic.w	r2, r2, #2
 8001076:	609a      	str	r2, [r3, #8]
  hadc->Instance->CR2 |= ADC_CR2_CONTINUOUS((uint32_t)hadc->Init.ContinuousConvMode);
 8001078:	689a      	ldr	r2, [r3, #8]
 800107a:	7e21      	ldrb	r1, [r4, #24]
 800107c:	ea42 0241 	orr.w	r2, r2, r1, lsl #1
 8001080:	609a      	str	r2, [r3, #8]
  
  if(hadc->Init.DiscontinuousConvMode != DISABLE)
 8001082:	f894 2020 	ldrb.w	r2, [r4, #32]
 8001086:	2a00      	cmp	r2, #0
 8001088:	d03e      	beq.n	8001108 <HAL_ADC_Init+0x134>
  {
    assert_param(IS_ADC_REGULAR_DISC_NUMBER(hadc->Init.NbrOfDiscConversion));
  
    /* Enable the selected ADC regular discontinuous mode */
    hadc->Instance->CR1 |= (uint32_t)ADC_CR1_DISCEN;
 800108a:	685a      	ldr	r2, [r3, #4]
    
    /* Set the number of channels to be converted in discontinuous mode */
    hadc->Instance->CR1 &= ~(ADC_CR1_DISCNUM);
    hadc->Instance->CR1 |=  ADC_CR1_DISCONTINUOUS(hadc->Init.NbrOfDiscConversion);
 800108c:	6a61      	ldr	r1, [r4, #36]	; 0x24
    hadc->Instance->CR1 |= (uint32_t)ADC_CR1_DISCEN;
 800108e:	f442 6200 	orr.w	r2, r2, #2048	; 0x800
 8001092:	605a      	str	r2, [r3, #4]
    hadc->Instance->CR1 &= ~(ADC_CR1_DISCNUM);
 8001094:	685a      	ldr	r2, [r3, #4]
 8001096:	f422 4260 	bic.w	r2, r2, #57344	; 0xe000
 800109a:	605a      	str	r2, [r3, #4]
    hadc->Instance->CR1 |=  ADC_CR1_DISCONTINUOUS(hadc->Init.NbrOfDiscConversion);
 800109c:	685a      	ldr	r2, [r3, #4]
 800109e:	3901      	subs	r1, #1
 80010a0:	ea42 3241 	orr.w	r2, r2, r1, lsl #13
  }
  else
  {
    /* Disable the selected ADC regular discontinuous mode */
    hadc->Instance->CR1 &= ~(ADC_CR1_DISCEN);
 80010a4:	605a      	str	r2, [r3, #4]
  }
  
  /* Set ADC number of conversion */
  hadc->Instance->SQR1 &= ~(ADC_SQR1_L);
 80010a6:	6ada      	ldr	r2, [r3, #44]	; 0x2c
  hadc->Instance->SQR1 |=  ADC_SQR1(hadc->Init.NbrOfConversion);
 80010a8:	69e1      	ldr	r1, [r4, #28]
  hadc->Instance->SQR1 &= ~(ADC_SQR1_L);
 80010aa:	f422 0270 	bic.w	r2, r2, #15728640	; 0xf00000
 80010ae:	62da      	str	r2, [r3, #44]	; 0x2c
  hadc->Instance->SQR1 |=  ADC_SQR1(hadc->Init.NbrOfConversion);
 80010b0:	6ada      	ldr	r2, [r3, #44]	; 0x2c
 80010b2:	3901      	subs	r1, #1
 80010b4:	ea42 5201 	orr.w	r2, r2, r1, lsl #20
 80010b8:	62da      	str	r2, [r3, #44]	; 0x2c
  
  /* Enable or disable ADC DMA continuous request */
  hadc->Instance->CR2 &= ~(ADC_CR2_DDS);
 80010ba:	689a      	ldr	r2, [r3, #8]
 80010bc:	f422 7200 	bic.w	r2, r2, #512	; 0x200
 80010c0:	609a      	str	r2, [r3, #8]
  hadc->Instance->CR2 |= ADC_CR2_DMAContReq((uint32_t)hadc->Init.DMAContinuousRequests);
 80010c2:	689a      	ldr	r2, [r3, #8]
 80010c4:	f894 1030 	ldrb.w	r1, [r4, #48]	; 0x30
 80010c8:	ea42 2241 	orr.w	r2, r2, r1, lsl #9
 80010cc:	609a      	str	r2, [r3, #8]
  
  /* Enable or disable ADC end of conversion selection */
  hadc->Instance->CR2 &= ~(ADC_CR2_EOCS);
 80010ce:	689a      	ldr	r2, [r3, #8]
  hadc->Instance->CR2 |= ADC_CR2_EOCSelection(hadc->Init.EOCSelection);
 80010d0:	6961      	ldr	r1, [r4, #20]
  hadc->Instance->CR2 &= ~(ADC_CR2_EOCS);
 80010d2:	f422 6280 	bic.w	r2, r2, #1024	; 0x400
 80010d6:	609a      	str	r2, [r3, #8]
  hadc->Instance->CR2 |= ADC_CR2_EOCSelection(hadc->Init.EOCSelection);
 80010d8:	689a      	ldr	r2, [r3, #8]
    ADC_CLEAR_ERRORCODE(hadc);
 80010da:	2000      	movs	r0, #0
  hadc->Instance->CR2 |= ADC_CR2_EOCSelection(hadc->Init.EOCSelection);
 80010dc:	ea42 2281 	orr.w	r2, r2, r1, lsl #10
 80010e0:	609a      	str	r2, [r3, #8]
    ADC_CLEAR_ERRORCODE(hadc);
 80010e2:	6460      	str	r0, [r4, #68]	; 0x44
    ADC_STATE_CLR_SET(hadc->State,
 80010e4:	6c23      	ldr	r3, [r4, #64]	; 0x40
 80010e6:	f023 0303 	bic.w	r3, r3, #3
 80010ea:	f043 0301 	orr.w	r3, r3, #1
 80010ee:	6423      	str	r3, [r4, #64]	; 0x40
  __HAL_UNLOCK(hadc);
 80010f0:	2300      	movs	r3, #0
 80010f2:	f884 303c 	strb.w	r3, [r4, #60]	; 0x3c
}
 80010f6:	bd38      	pop	{r3, r4, r5, pc}
    hadc->Instance->CR2 &= ~(ADC_CR2_EXTSEL);
 80010f8:	689a      	ldr	r2, [r3, #8]
 80010fa:	f022 6270 	bic.w	r2, r2, #251658240	; 0xf000000
 80010fe:	609a      	str	r2, [r3, #8]
    hadc->Instance->CR2 &= ~(ADC_CR2_EXTEN);
 8001100:	689a      	ldr	r2, [r3, #8]
 8001102:	f022 5240 	bic.w	r2, r2, #805306368	; 0x30000000
 8001106:	e7b2      	b.n	800106e <HAL_ADC_Init+0x9a>
    hadc->Instance->CR1 &= ~(ADC_CR1_DISCEN);
 8001108:	685a      	ldr	r2, [r3, #4]
 800110a:	f422 6200 	bic.w	r2, r2, #2048	; 0x800
 800110e:	e7c9      	b.n	80010a4 <HAL_ADC_Init+0xd0>
    tmp_hal_status = HAL_ERROR;
 8001110:	2001      	movs	r0, #1
 8001112:	e7ed      	b.n	80010f0 <HAL_ADC_Init+0x11c>
    return HAL_ERROR;
 8001114:	2001      	movs	r0, #1
 8001116:	e7ee      	b.n	80010f6 <HAL_ADC_Init+0x122>
 8001118:	40012300 	.word	0x40012300
 800111c:	0f000001 	.word	0x0f000001

08001120 <HAL_ADC_Start_IT>:
{
 8001120:	b082      	sub	sp, #8
  __IO uint32_t counter = 0U;
 8001122:	2300      	movs	r3, #0
 8001124:	9301      	str	r3, [sp, #4]
  __HAL_LOCK(hadc);
 8001126:	f890 303c 	ldrb.w	r3, [r0, #60]	; 0x3c
 800112a:	2b01      	cmp	r3, #1
 800112c:	d066      	beq.n	80011fc <HAL_ADC_Start_IT+0xdc>
 800112e:	2301      	movs	r3, #1
 8001130:	f880 303c 	strb.w	r3, [r0, #60]	; 0x3c
  if((hadc->Instance->CR2 & ADC_CR2_ADON) != ADC_CR2_ADON)
 8001134:	6803      	ldr	r3, [r0, #0]
 8001136:	689a      	ldr	r2, [r3, #8]
 8001138:	07d2      	lsls	r2, r2, #31
 800113a:	d505      	bpl.n	8001148 <HAL_ADC_Start_IT+0x28>
  if(HAL_IS_BIT_SET(hadc->Instance->CR2, ADC_CR2_ADON))
 800113c:	689a      	ldr	r2, [r3, #8]
 800113e:	07d1      	lsls	r1, r2, #31
 8001140:	d414      	bmi.n	800116c <HAL_ADC_Start_IT+0x4c>
  return HAL_OK;
 8001142:	2000      	movs	r0, #0
}
 8001144:	b002      	add	sp, #8
 8001146:	4770      	bx	lr
    __HAL_ADC_ENABLE(hadc);
 8001148:	689a      	ldr	r2, [r3, #8]
    counter = (ADC_STAB_DELAY_US * (SystemCoreClock / 1000000U));
 800114a:	492d      	ldr	r1, [pc, #180]	; (8001200 <HAL_ADC_Start_IT+0xe0>)
    __HAL_ADC_ENABLE(hadc);
 800114c:	f042 0201 	orr.w	r2, r2, #1
 8001150:	609a      	str	r2, [r3, #8]
    counter = (ADC_STAB_DELAY_US * (SystemCoreClock / 1000000U));
 8001152:	4a2c      	ldr	r2, [pc, #176]	; (8001204 <HAL_ADC_Start_IT+0xe4>)
 8001154:	6812      	ldr	r2, [r2, #0]
 8001156:	fbb2 f2f1 	udiv	r2, r2, r1
 800115a:	eb02 0242 	add.w	r2, r2, r2, lsl #1
      counter--;
 800115e:	9201      	str	r2, [sp, #4]
    while(counter != 0U)
 8001160:	9a01      	ldr	r2, [sp, #4]
 8001162:	2a00      	cmp	r2, #0
 8001164:	d0ea      	beq.n	800113c <HAL_ADC_Start_IT+0x1c>
      counter--;
 8001166:	9a01      	ldr	r2, [sp, #4]
 8001168:	3a01      	subs	r2, #1
 800116a:	e7f8      	b.n	800115e <HAL_ADC_Start_IT+0x3e>
    ADC_STATE_CLR_SET(hadc->State,
 800116c:	6c02      	ldr	r2, [r0, #64]	; 0x40
 800116e:	f422 62e0 	bic.w	r2, r2, #1792	; 0x700
 8001172:	f022 0201 	bic.w	r2, r2, #1
 8001176:	f442 7280 	orr.w	r2, r2, #256	; 0x100
 800117a:	6402      	str	r2, [r0, #64]	; 0x40
    if (READ_BIT(hadc->Instance->CR1, ADC_CR1_JAUTO) != RESET)
 800117c:	685a      	ldr	r2, [r3, #4]
 800117e:	0552      	lsls	r2, r2, #21
      ADC_STATE_CLR_SET(hadc->State, HAL_ADC_STATE_INJ_EOC, HAL_ADC_STATE_INJ_BUSY);  
 8001180:	bf41      	itttt	mi
 8001182:	6c02      	ldrmi	r2, [r0, #64]	; 0x40
 8001184:	f422 5240 	bicmi.w	r2, r2, #12288	; 0x3000
 8001188:	f442 5280 	orrmi.w	r2, r2, #4096	; 0x1000
 800118c:	6402      	strmi	r2, [r0, #64]	; 0x40
    if (HAL_IS_BIT_SET(hadc->State, HAL_ADC_STATE_INJ_BUSY))
 800118e:	6c02      	ldr	r2, [r0, #64]	; 0x40
 8001190:	f412 5280 	ands.w	r2, r2, #4096	; 0x1000
      CLEAR_BIT(hadc->ErrorCode, (HAL_ADC_ERROR_OVR | HAL_ADC_ERROR_DMA));         
 8001194:	bf1c      	itt	ne
 8001196:	6c42      	ldrne	r2, [r0, #68]	; 0x44
 8001198:	f022 0206 	bicne.w	r2, r2, #6
      ADC_CLEAR_ERRORCODE(hadc);
 800119c:	6442      	str	r2, [r0, #68]	; 0x44
    __HAL_UNLOCK(hadc);
 800119e:	2200      	movs	r2, #0
 80011a0:	f880 203c 	strb.w	r2, [r0, #60]	; 0x3c
    __HAL_ADC_CLEAR_FLAG(hadc, ADC_FLAG_EOC | ADC_FLAG_OVR);
 80011a4:	f06f 0222 	mvn.w	r2, #34	; 0x22
 80011a8:	601a      	str	r2, [r3, #0]
    __HAL_ADC_ENABLE_IT(hadc, (ADC_IT_EOC | ADC_IT_OVR));
 80011aa:	685a      	ldr	r2, [r3, #4]
 80011ac:	f042 6280 	orr.w	r2, r2, #67108864	; 0x4000000
 80011b0:	f042 0220 	orr.w	r2, r2, #32
 80011b4:	605a      	str	r2, [r3, #4]
    if(HAL_IS_BIT_CLR(tmpADC_Common->CCR, ADC_CCR_MULTI))
 80011b6:	4a14      	ldr	r2, [pc, #80]	; (8001208 <HAL_ADC_Start_IT+0xe8>)
 80011b8:	6851      	ldr	r1, [r2, #4]
 80011ba:	f011 0f1f 	tst.w	r1, #31
 80011be:	4913      	ldr	r1, [pc, #76]	; (800120c <HAL_ADC_Start_IT+0xec>)
 80011c0:	d119      	bne.n	80011f6 <HAL_ADC_Start_IT+0xd6>
      if((hadc->Instance == ADC1) || ((hadc->Instance == ADC2) && ((ADC->CCR & ADC_CCR_MULTI_Msk) < ADC_CCR_MULTI_0)) \
 80011c2:	428b      	cmp	r3, r1
 80011c4:	d007      	beq.n	80011d6 <HAL_ADC_Start_IT+0xb6>
 80011c6:	f501 7180 	add.w	r1, r1, #256	; 0x100
 80011ca:	428b      	cmp	r3, r1
 80011cc:	d10c      	bne.n	80011e8 <HAL_ADC_Start_IT+0xc8>
 80011ce:	6852      	ldr	r2, [r2, #4]
 80011d0:	f012 0f1f 	tst.w	r2, #31
                                  || ((hadc->Instance == ADC3) && ((ADC->CCR & ADC_CCR_MULTI_Msk) < ADC_CCR_MULTI_4)))
 80011d4:	d1b5      	bne.n	8001142 <HAL_ADC_Start_IT+0x22>
      if((hadc->Instance == ADC1) && ((hadc->Instance->CR2 & ADC_CR2_EXTEN) == RESET))
 80011d6:	6898      	ldr	r0, [r3, #8]
 80011d8:	f010 5040 	ands.w	r0, r0, #805306368	; 0x30000000
 80011dc:	d1b1      	bne.n	8001142 <HAL_ADC_Start_IT+0x22>
          hadc->Instance->CR2 |= (uint32_t)ADC_CR2_SWSTART;
 80011de:	689a      	ldr	r2, [r3, #8]
 80011e0:	f042 4280 	orr.w	r2, r2, #1073741824	; 0x40000000
 80011e4:	609a      	str	r2, [r3, #8]
 80011e6:	e7ad      	b.n	8001144 <HAL_ADC_Start_IT+0x24>
                                  || ((hadc->Instance == ADC3) && ((ADC->CCR & ADC_CCR_MULTI_Msk) < ADC_CCR_MULTI_4)))
 80011e8:	4909      	ldr	r1, [pc, #36]	; (8001210 <HAL_ADC_Start_IT+0xf0>)
 80011ea:	428b      	cmp	r3, r1
 80011ec:	d1a9      	bne.n	8001142 <HAL_ADC_Start_IT+0x22>
 80011ee:	6852      	ldr	r2, [r2, #4]
 80011f0:	f012 0f10 	tst.w	r2, #16
 80011f4:	e7ee      	b.n	80011d4 <HAL_ADC_Start_IT+0xb4>
      if((hadc->Instance == ADC1) && ((hadc->Instance->CR2 & ADC_CR2_EXTEN) == RESET))
 80011f6:	428b      	cmp	r3, r1
 80011f8:	d1a3      	bne.n	8001142 <HAL_ADC_Start_IT+0x22>
 80011fa:	e7ec      	b.n	80011d6 <HAL_ADC_Start_IT+0xb6>
  __HAL_LOCK(hadc);
 80011fc:	2002      	movs	r0, #2
 80011fe:	e7a1      	b.n	8001144 <HAL_ADC_Start_IT+0x24>
 8001200:	000f4240 	.word	0x000f4240
 8001204:	20000050 	.word	0x20000050
 8001208:	40012300 	.word	0x40012300
 800120c:	40012000 	.word	0x40012000
 8001210:	40012200 	.word	0x40012200

08001214 <HAL_ADC_GetValue>:
  return hadc->Instance->DR;
 8001214:	6803      	ldr	r3, [r0, #0]
 8001216:	6cd8      	ldr	r0, [r3, #76]	; 0x4c
}
 8001218:	4770      	bx	lr

0800121a <HAL_ADC_LevelOutOfWindowCallback>:
 800121a:	4770      	bx	lr

0800121c <HAL_ADC_ErrorCallback>:
 800121c:	4770      	bx	lr

0800121e <HAL_ADC_IRQHandler>:
{
 800121e:	b538      	push	{r3, r4, r5, lr}
  tmp1 = __HAL_ADC_GET_FLAG(hadc, ADC_FLAG_EOC);
 8001220:	6803      	ldr	r3, [r0, #0]
 8001222:	6819      	ldr	r1, [r3, #0]
  tmp2 = __HAL_ADC_GET_IT_SOURCE(hadc, ADC_IT_EOC);
 8001224:	685a      	ldr	r2, [r3, #4]
  if(tmp1 && tmp2)
 8001226:	078d      	lsls	r5, r1, #30
{
 8001228:	4604      	mov	r4, r0
  if(tmp1 && tmp2)
 800122a:	d52b      	bpl.n	8001284 <HAL_ADC_IRQHandler+0x66>
 800122c:	0690      	lsls	r0, r2, #26
 800122e:	d529      	bpl.n	8001284 <HAL_ADC_IRQHandler+0x66>
    if (HAL_IS_BIT_CLR(hadc->State, HAL_ADC_STATE_ERROR_INTERNAL))
 8001230:	6c22      	ldr	r2, [r4, #64]	; 0x40
 8001232:	06d1      	lsls	r1, r2, #27
      SET_BIT(hadc->State, HAL_ADC_STATE_REG_EOC); 
 8001234:	bf5e      	ittt	pl
 8001236:	6c22      	ldrpl	r2, [r4, #64]	; 0x40
 8001238:	f442 7200 	orrpl.w	r2, r2, #512	; 0x200
 800123c:	6422      	strpl	r2, [r4, #64]	; 0x40
    if(ADC_IS_SOFTWARE_START_REGULAR(hadc)                   &&
 800123e:	689a      	ldr	r2, [r3, #8]
 8001240:	f012 5f40 	tst.w	r2, #805306368	; 0x30000000
 8001244:	d117      	bne.n	8001276 <HAL_ADC_IRQHandler+0x58>
 8001246:	7e22      	ldrb	r2, [r4, #24]
 8001248:	b9aa      	cbnz	r2, 8001276 <HAL_ADC_IRQHandler+0x58>
       (HAL_IS_BIT_CLR(hadc->Instance->SQR1, ADC_SQR1_L) || 
 800124a:	6ada      	ldr	r2, [r3, #44]	; 0x2c
       (hadc->Init.ContinuousConvMode == DISABLE)            &&
 800124c:	f412 0f70 	tst.w	r2, #15728640	; 0xf00000
 8001250:	d002      	beq.n	8001258 <HAL_ADC_IRQHandler+0x3a>
        HAL_IS_BIT_CLR(hadc->Instance->CR2, ADC_CR2_EOCS)  )   )
 8001252:	689a      	ldr	r2, [r3, #8]
       (HAL_IS_BIT_CLR(hadc->Instance->SQR1, ADC_SQR1_L) || 
 8001254:	0552      	lsls	r2, r2, #21
 8001256:	d40e      	bmi.n	8001276 <HAL_ADC_IRQHandler+0x58>
      __HAL_ADC_DISABLE_IT(hadc, ADC_IT_EOC);
 8001258:	685a      	ldr	r2, [r3, #4]
 800125a:	f022 0220 	bic.w	r2, r2, #32
 800125e:	605a      	str	r2, [r3, #4]
      CLEAR_BIT(hadc->State, HAL_ADC_STATE_REG_BUSY);
 8001260:	6c23      	ldr	r3, [r4, #64]	; 0x40
 8001262:	f423 7380 	bic.w	r3, r3, #256	; 0x100
 8001266:	6423      	str	r3, [r4, #64]	; 0x40
      if (HAL_IS_BIT_CLR(hadc->State, HAL_ADC_STATE_INJ_BUSY))
 8001268:	6c23      	ldr	r3, [r4, #64]	; 0x40
 800126a:	04db      	lsls	r3, r3, #19
        SET_BIT(hadc->State, HAL_ADC_STATE_READY);
 800126c:	bf5e      	ittt	pl
 800126e:	6c23      	ldrpl	r3, [r4, #64]	; 0x40
 8001270:	f043 0301 	orrpl.w	r3, r3, #1
 8001274:	6423      	strpl	r3, [r4, #64]	; 0x40
    HAL_ADC_ConvCpltCallback(hadc);
 8001276:	4620      	mov	r0, r4
 8001278:	f001 fea4 	bl	8002fc4 <HAL_ADC_ConvCpltCallback>
    __HAL_ADC_CLEAR_FLAG(hadc, ADC_FLAG_STRT | ADC_FLAG_EOC);
 800127c:	6823      	ldr	r3, [r4, #0]
 800127e:	f06f 0212 	mvn.w	r2, #18
 8001282:	601a      	str	r2, [r3, #0]
  tmp1 = __HAL_ADC_GET_FLAG(hadc, ADC_FLAG_JEOC);
 8001284:	6823      	ldr	r3, [r4, #0]
 8001286:	6819      	ldr	r1, [r3, #0]
  tmp2 = __HAL_ADC_GET_IT_SOURCE(hadc, ADC_IT_JEOC);                               
 8001288:	685a      	ldr	r2, [r3, #4]
  if(tmp1 && tmp2)
 800128a:	074d      	lsls	r5, r1, #29
 800128c:	d532      	bpl.n	80012f4 <HAL_ADC_IRQHandler+0xd6>
 800128e:	0610      	lsls	r0, r2, #24
 8001290:	d530      	bpl.n	80012f4 <HAL_ADC_IRQHandler+0xd6>
    if (HAL_IS_BIT_CLR(hadc->State, HAL_ADC_STATE_ERROR_INTERNAL))
 8001292:	6c22      	ldr	r2, [r4, #64]	; 0x40
 8001294:	06d1      	lsls	r1, r2, #27
      SET_BIT(hadc->State, HAL_ADC_STATE_INJ_EOC);
 8001296:	bf5e      	ittt	pl
 8001298:	6c22      	ldrpl	r2, [r4, #64]	; 0x40
 800129a:	f442 5200 	orrpl.w	r2, r2, #8192	; 0x2000
 800129e:	6422      	strpl	r2, [r4, #64]	; 0x40
    if(ADC_IS_SOFTWARE_START_INJECTED(hadc)                    &&
 80012a0:	689a      	ldr	r2, [r3, #8]
 80012a2:	f412 1f40 	tst.w	r2, #3145728	; 0x300000
 80012a6:	d11e      	bne.n	80012e6 <HAL_ADC_IRQHandler+0xc8>
       (HAL_IS_BIT_CLR(hadc->Instance->JSQR, ADC_JSQR_JL)  ||
 80012a8:	6b9a      	ldr	r2, [r3, #56]	; 0x38
    if(ADC_IS_SOFTWARE_START_INJECTED(hadc)                    &&
 80012aa:	f412 1f40 	tst.w	r2, #3145728	; 0x300000
 80012ae:	d002      	beq.n	80012b6 <HAL_ADC_IRQHandler+0x98>
        HAL_IS_BIT_CLR(hadc->Instance->CR2, ADC_CR2_EOCS)    ) &&
 80012b0:	689a      	ldr	r2, [r3, #8]
       (HAL_IS_BIT_CLR(hadc->Instance->JSQR, ADC_JSQR_JL)  ||
 80012b2:	0552      	lsls	r2, r2, #21
 80012b4:	d417      	bmi.n	80012e6 <HAL_ADC_IRQHandler+0xc8>
       (HAL_IS_BIT_CLR(hadc->Instance->CR1, ADC_CR1_JAUTO) &&
 80012b6:	685a      	ldr	r2, [r3, #4]
        HAL_IS_BIT_CLR(hadc->Instance->CR2, ADC_CR2_EOCS)    ) &&
 80012b8:	0555      	lsls	r5, r2, #21
 80012ba:	d414      	bmi.n	80012e6 <HAL_ADC_IRQHandler+0xc8>
        (ADC_IS_SOFTWARE_START_REGULAR(hadc)       &&
 80012bc:	689a      	ldr	r2, [r3, #8]
       (HAL_IS_BIT_CLR(hadc->Instance->CR1, ADC_CR1_JAUTO) &&
 80012be:	f012 5f40 	tst.w	r2, #805306368	; 0x30000000
 80012c2:	d110      	bne.n	80012e6 <HAL_ADC_IRQHandler+0xc8>
        (ADC_IS_SOFTWARE_START_REGULAR(hadc)       &&
 80012c4:	7e22      	ldrb	r2, [r4, #24]
 80012c6:	b972      	cbnz	r2, 80012e6 <HAL_ADC_IRQHandler+0xc8>
      __HAL_ADC_DISABLE_IT(hadc, ADC_IT_JEOC);
 80012c8:	685a      	ldr	r2, [r3, #4]
 80012ca:	f022 0280 	bic.w	r2, r2, #128	; 0x80
 80012ce:	605a      	str	r2, [r3, #4]
      CLEAR_BIT(hadc->State, HAL_ADC_STATE_INJ_BUSY);   
 80012d0:	6c23      	ldr	r3, [r4, #64]	; 0x40
 80012d2:	f423 5380 	bic.w	r3, r3, #4096	; 0x1000
 80012d6:	6423      	str	r3, [r4, #64]	; 0x40
      if (HAL_IS_BIT_CLR(hadc->State, HAL_ADC_STATE_REG_BUSY))
 80012d8:	6c23      	ldr	r3, [r4, #64]	; 0x40
 80012da:	05d8      	lsls	r0, r3, #23
        SET_BIT(hadc->State, HAL_ADC_STATE_READY);
 80012dc:	bf5e      	ittt	pl
 80012de:	6c23      	ldrpl	r3, [r4, #64]	; 0x40
 80012e0:	f043 0301 	orrpl.w	r3, r3, #1
 80012e4:	6423      	strpl	r3, [r4, #64]	; 0x40
      HAL_ADCEx_InjectedConvCpltCallback(hadc);
 80012e6:	4620      	mov	r0, r4
 80012e8:	f000 f8be 	bl	8001468 <HAL_ADCEx_InjectedConvCpltCallback>
    __HAL_ADC_CLEAR_FLAG(hadc, (ADC_FLAG_JSTRT | ADC_FLAG_JEOC));
 80012ec:	6823      	ldr	r3, [r4, #0]
 80012ee:	f06f 020c 	mvn.w	r2, #12
 80012f2:	601a      	str	r2, [r3, #0]
  tmp1 = __HAL_ADC_GET_FLAG(hadc, ADC_FLAG_AWD);
 80012f4:	6823      	ldr	r3, [r4, #0]
 80012f6:	6819      	ldr	r1, [r3, #0]
  tmp2 = __HAL_ADC_GET_IT_SOURCE(hadc, ADC_IT_AWD);                          
 80012f8:	685a      	ldr	r2, [r3, #4]
  if(tmp1 && tmp2)
 80012fa:	07c9      	lsls	r1, r1, #31
 80012fc:	d50f      	bpl.n	800131e <HAL_ADC_IRQHandler+0x100>
 80012fe:	0655      	lsls	r5, r2, #25
 8001300:	d50d      	bpl.n	800131e <HAL_ADC_IRQHandler+0x100>
    if(__HAL_ADC_GET_FLAG(hadc, ADC_FLAG_AWD))
 8001302:	681b      	ldr	r3, [r3, #0]
 8001304:	07d8      	lsls	r0, r3, #31
 8001306:	d50a      	bpl.n	800131e <HAL_ADC_IRQHandler+0x100>
      SET_BIT(hadc->State, HAL_ADC_STATE_AWD1);
 8001308:	6c23      	ldr	r3, [r4, #64]	; 0x40
 800130a:	f443 3380 	orr.w	r3, r3, #65536	; 0x10000
 800130e:	6423      	str	r3, [r4, #64]	; 0x40
      HAL_ADC_LevelOutOfWindowCallback(hadc);
 8001310:	4620      	mov	r0, r4
 8001312:	f7ff ff82 	bl	800121a <HAL_ADC_LevelOutOfWindowCallback>
      __HAL_ADC_CLEAR_FLAG(hadc, ADC_FLAG_AWD);
 8001316:	6823      	ldr	r3, [r4, #0]
 8001318:	f06f 0201 	mvn.w	r2, #1
 800131c:	601a      	str	r2, [r3, #0]
  tmp1 = __HAL_ADC_GET_FLAG(hadc, ADC_FLAG_OVR);
 800131e:	6823      	ldr	r3, [r4, #0]
 8001320:	6819      	ldr	r1, [r3, #0]
  tmp2 = __HAL_ADC_GET_IT_SOURCE(hadc, ADC_IT_OVR);
 8001322:	685a      	ldr	r2, [r3, #4]
  if(tmp1 && tmp2)
 8001324:	0689      	lsls	r1, r1, #26
 8001326:	d50d      	bpl.n	8001344 <HAL_ADC_IRQHandler+0x126>
 8001328:	0152      	lsls	r2, r2, #5
 800132a:	d50b      	bpl.n	8001344 <HAL_ADC_IRQHandler+0x126>
    SET_BIT(hadc->ErrorCode, HAL_ADC_ERROR_OVR);
 800132c:	6c62      	ldr	r2, [r4, #68]	; 0x44
    __HAL_ADC_CLEAR_FLAG(hadc, ADC_FLAG_OVR);
 800132e:	f06f 0520 	mvn.w	r5, #32
    SET_BIT(hadc->ErrorCode, HAL_ADC_ERROR_OVR);
 8001332:	f042 0202 	orr.w	r2, r2, #2
 8001336:	6462      	str	r2, [r4, #68]	; 0x44
      HAL_ADC_ErrorCallback(hadc);
 8001338:	4620      	mov	r0, r4
    __HAL_ADC_CLEAR_FLAG(hadc, ADC_FLAG_OVR);
 800133a:	601d      	str	r5, [r3, #0]
      HAL_ADC_ErrorCallback(hadc);
 800133c:	f7ff ff6e 	bl	800121c <HAL_ADC_ErrorCallback>
    __HAL_ADC_CLEAR_FLAG(hadc, ADC_FLAG_OVR);
 8001340:	6823      	ldr	r3, [r4, #0]
 8001342:	601d      	str	r5, [r3, #0]
}
 8001344:	bd38      	pop	{r3, r4, r5, pc}
	...

08001348 <HAL_ADC_ConfigChannel>:
{
 8001348:	b5f7      	push	{r0, r1, r2, r4, r5, r6, r7, lr}
  __IO uint32_t counter = 0U;
 800134a:	2300      	movs	r3, #0
 800134c:	9301      	str	r3, [sp, #4]
  __HAL_LOCK(hadc);
 800134e:	f890 303c 	ldrb.w	r3, [r0, #60]	; 0x3c
 8001352:	2b01      	cmp	r3, #1
 8001354:	d064      	beq.n	8001420 <HAL_ADC_ConfigChannel+0xd8>
 8001356:	2301      	movs	r3, #1
 8001358:	f880 303c 	strb.w	r3, [r0, #60]	; 0x3c
  if (sConfig->Channel > ADC_CHANNEL_9)
 800135c:	680d      	ldr	r5, [r1, #0]
    hadc->Instance->SMPR1 &= ~ADC_SMPR1(ADC_SMPR1_SMP10, sConfig->Channel);
 800135e:	6803      	ldr	r3, [r0, #0]
    hadc->Instance->SMPR1 |= ADC_SMPR1(sConfig->SamplingTime, sConfig->Channel);
 8001360:	688e      	ldr	r6, [r1, #8]
  if (sConfig->Channel > ADC_CHANNEL_9)
 8001362:	2d09      	cmp	r5, #9
 8001364:	b2ac      	uxth	r4, r5
 8001366:	d931      	bls.n	80013cc <HAL_ADC_ConfigChannel+0x84>
    hadc->Instance->SMPR1 &= ~ADC_SMPR1(ADC_SMPR1_SMP10, sConfig->Channel);
 8001368:	eb04 0244 	add.w	r2, r4, r4, lsl #1
 800136c:	68df      	ldr	r7, [r3, #12]
 800136e:	3a1e      	subs	r2, #30
 8001370:	f04f 0c07 	mov.w	ip, #7
 8001374:	fa0c fc02 	lsl.w	ip, ip, r2
 8001378:	ea27 070c 	bic.w	r7, r7, ip
 800137c:	60df      	str	r7, [r3, #12]
    hadc->Instance->SMPR1 |= ADC_SMPR1(sConfig->SamplingTime, sConfig->Channel);
 800137e:	68df      	ldr	r7, [r3, #12]
 8001380:	fa06 f202 	lsl.w	r2, r6, r2
 8001384:	433a      	orrs	r2, r7
 8001386:	60da      	str	r2, [r3, #12]
  if (sConfig->Rank < 7U)
 8001388:	6849      	ldr	r1, [r1, #4]
 800138a:	2906      	cmp	r1, #6
    hadc->Instance->SQR3 &= ~ADC_SQR3_RK(ADC_SQR3_SQ1, sConfig->Rank);
 800138c:	eb01 0281 	add.w	r2, r1, r1, lsl #2
  if (sConfig->Rank < 7U)
 8001390:	d82b      	bhi.n	80013ea <HAL_ADC_ConfigChannel+0xa2>
    hadc->Instance->SQR3 &= ~ADC_SQR3_RK(ADC_SQR3_SQ1, sConfig->Rank);
 8001392:	6b59      	ldr	r1, [r3, #52]	; 0x34
 8001394:	3a05      	subs	r2, #5
 8001396:	261f      	movs	r6, #31
 8001398:	4096      	lsls	r6, r2
 800139a:	ea21 0106 	bic.w	r1, r1, r6
 800139e:	6359      	str	r1, [r3, #52]	; 0x34
    hadc->Instance->SQR3 |= ADC_SQR3_RK(sConfig->Channel, sConfig->Rank);
 80013a0:	6b59      	ldr	r1, [r3, #52]	; 0x34
 80013a2:	fa04 f202 	lsl.w	r2, r4, r2
 80013a6:	430a      	orrs	r2, r1
 80013a8:	635a      	str	r2, [r3, #52]	; 0x34
  if ((hadc->Instance == ADC1) && (sConfig->Channel == ADC_CHANNEL_VBAT))
 80013aa:	4a2b      	ldr	r2, [pc, #172]	; (8001458 <HAL_ADC_ConfigChannel+0x110>)
 80013ac:	4293      	cmp	r3, r2
 80013ae:	d107      	bne.n	80013c0 <HAL_ADC_ConfigChannel+0x78>
 80013b0:	2d12      	cmp	r5, #18
 80013b2:	d137      	bne.n	8001424 <HAL_ADC_ConfigChannel+0xdc>
    tmpADC_Common->CCR |= ADC_CCR_VBATE;
 80013b4:	f8d2 3304 	ldr.w	r3, [r2, #772]	; 0x304
 80013b8:	f443 0380 	orr.w	r3, r3, #4194304	; 0x400000
 80013bc:	f8c2 3304 	str.w	r3, [r2, #772]	; 0x304
  __HAL_UNLOCK(hadc);
 80013c0:	2300      	movs	r3, #0
 80013c2:	f880 303c 	strb.w	r3, [r0, #60]	; 0x3c
  return HAL_OK;
 80013c6:	4618      	mov	r0, r3
}
 80013c8:	b003      	add	sp, #12
 80013ca:	bdf0      	pop	{r4, r5, r6, r7, pc}
    hadc->Instance->SMPR2 &= ~ADC_SMPR2(ADC_SMPR2_SMP0, sConfig->Channel);
 80013cc:	691a      	ldr	r2, [r3, #16]
 80013ce:	eb05 0c45 	add.w	ip, r5, r5, lsl #1
 80013d2:	2707      	movs	r7, #7
 80013d4:	fa07 f70c 	lsl.w	r7, r7, ip
 80013d8:	ea22 0207 	bic.w	r2, r2, r7
 80013dc:	611a      	str	r2, [r3, #16]
    hadc->Instance->SMPR2 |= ADC_SMPR2(sConfig->SamplingTime, sConfig->Channel);
 80013de:	691a      	ldr	r2, [r3, #16]
 80013e0:	fa06 f60c 	lsl.w	r6, r6, ip
 80013e4:	4316      	orrs	r6, r2
 80013e6:	611e      	str	r6, [r3, #16]
 80013e8:	e7ce      	b.n	8001388 <HAL_ADC_ConfigChannel+0x40>
  else if (sConfig->Rank < 13U)
 80013ea:	290c      	cmp	r1, #12
 80013ec:	f04f 011f 	mov.w	r1, #31
 80013f0:	d80b      	bhi.n	800140a <HAL_ADC_ConfigChannel+0xc2>
    hadc->Instance->SQR2 &= ~ADC_SQR2_RK(ADC_SQR2_SQ7, sConfig->Rank);
 80013f2:	6b1e      	ldr	r6, [r3, #48]	; 0x30
 80013f4:	3a23      	subs	r2, #35	; 0x23
 80013f6:	4091      	lsls	r1, r2
 80013f8:	ea26 0101 	bic.w	r1, r6, r1
 80013fc:	6319      	str	r1, [r3, #48]	; 0x30
    hadc->Instance->SQR2 |= ADC_SQR2_RK(sConfig->Channel, sConfig->Rank);
 80013fe:	6b19      	ldr	r1, [r3, #48]	; 0x30
 8001400:	fa04 f202 	lsl.w	r2, r4, r2
 8001404:	430a      	orrs	r2, r1
 8001406:	631a      	str	r2, [r3, #48]	; 0x30
 8001408:	e7cf      	b.n	80013aa <HAL_ADC_ConfigChannel+0x62>
    hadc->Instance->SQR1 &= ~ADC_SQR1_RK(ADC_SQR1_SQ13, sConfig->Rank);
 800140a:	6ade      	ldr	r6, [r3, #44]	; 0x2c
 800140c:	3a41      	subs	r2, #65	; 0x41
 800140e:	4091      	lsls	r1, r2
 8001410:	ea26 0101 	bic.w	r1, r6, r1
 8001414:	62d9      	str	r1, [r3, #44]	; 0x2c
    hadc->Instance->SQR1 |= ADC_SQR1_RK(sConfig->Channel, sConfig->Rank);
 8001416:	6ad9      	ldr	r1, [r3, #44]	; 0x2c
 8001418:	4094      	lsls	r4, r2
 800141a:	430c      	orrs	r4, r1
 800141c:	62dc      	str	r4, [r3, #44]	; 0x2c
 800141e:	e7c4      	b.n	80013aa <HAL_ADC_ConfigChannel+0x62>
  __HAL_LOCK(hadc);
 8001420:	2002      	movs	r0, #2
 8001422:	e7d1      	b.n	80013c8 <HAL_ADC_ConfigChannel+0x80>
  if ((hadc->Instance == ADC1) && ((sConfig->Channel == ADC_CHANNEL_TEMPSENSOR) || (sConfig->Channel == ADC_CHANNEL_VREFINT)))
 8001424:	f1a5 0310 	sub.w	r3, r5, #16
 8001428:	2b01      	cmp	r3, #1
 800142a:	d8c9      	bhi.n	80013c0 <HAL_ADC_ConfigChannel+0x78>
    tmpADC_Common->CCR |= ADC_CCR_TSVREFE;
 800142c:	4a0b      	ldr	r2, [pc, #44]	; (800145c <HAL_ADC_ConfigChannel+0x114>)
 800142e:	6853      	ldr	r3, [r2, #4]
    if((sConfig->Channel == ADC_CHANNEL_TEMPSENSOR))
 8001430:	2d10      	cmp	r5, #16
    tmpADC_Common->CCR |= ADC_CCR_TSVREFE;
 8001432:	f443 0300 	orr.w	r3, r3, #8388608	; 0x800000
 8001436:	6053      	str	r3, [r2, #4]
    if((sConfig->Channel == ADC_CHANNEL_TEMPSENSOR))
 8001438:	d1c2      	bne.n	80013c0 <HAL_ADC_ConfigChannel+0x78>
      counter = (ADC_TEMPSENSOR_DELAY_US * (SystemCoreClock / 1000000U));
 800143a:	4b09      	ldr	r3, [pc, #36]	; (8001460 <HAL_ADC_ConfigChannel+0x118>)
 800143c:	4a09      	ldr	r2, [pc, #36]	; (8001464 <HAL_ADC_ConfigChannel+0x11c>)
 800143e:	681b      	ldr	r3, [r3, #0]
 8001440:	fbb3 f3f2 	udiv	r3, r3, r2
 8001444:	220a      	movs	r2, #10
 8001446:	4353      	muls	r3, r2
        counter--;
 8001448:	9301      	str	r3, [sp, #4]
      while(counter != 0U)
 800144a:	9b01      	ldr	r3, [sp, #4]
 800144c:	2b00      	cmp	r3, #0
 800144e:	d0b7      	beq.n	80013c0 <HAL_ADC_ConfigChannel+0x78>
        counter--;
 8001450:	9b01      	ldr	r3, [sp, #4]
 8001452:	3b01      	subs	r3, #1
 8001454:	e7f8      	b.n	8001448 <HAL_ADC_ConfigChannel+0x100>
 8001456:	bf00      	nop
 8001458:	40012000 	.word	0x40012000
 800145c:	40012300 	.word	0x40012300
 8001460:	20000050 	.word	0x20000050
 8001464:	000f4240 	.word	0x000f4240

08001468 <HAL_ADCEx_InjectedConvCpltCallback>:
  /* Prevent unused argument(s) compilation warning */
  UNUSED(hadc);
  /* NOTE : This function Should not be modified, when the callback is needed,
            the HAL_ADC_InjectedConvCpltCallback could be implemented in the user file
   */
}
 8001468:	4770      	bx	lr
	...

0800146c <HAL_NVIC_SetPriorityGrouping>:
__STATIC_INLINE void __NVIC_SetPriorityGrouping(uint32_t PriorityGroup)
{
  uint32_t reg_value;
  uint32_t PriorityGroupTmp = (PriorityGroup & (uint32_t)0x07UL);             /* only values 0..7 are used          */

  reg_value  =  SCB->AIRCR;                                                   /* read old register configuration    */
 800146c:	4907      	ldr	r1, [pc, #28]	; (800148c <HAL_NVIC_SetPriorityGrouping+0x20>)
 800146e:	68ca      	ldr	r2, [r1, #12]
  reg_value &= ~((uint32_t)(SCB_AIRCR_VECTKEY_Msk | SCB_AIRCR_PRIGROUP_Msk)); /* clear bits to change               */
 8001470:	f422 62e0 	bic.w	r2, r2, #1792	; 0x700
  reg_value  =  (reg_value                                   |
                ((uint32_t)0x5FAUL << SCB_AIRCR_VECTKEY_Pos) |
                (PriorityGroupTmp << SCB_AIRCR_PRIGROUP_Pos)  );              /* Insert write key and priority group */
 8001474:	0203      	lsls	r3, r0, #8
  reg_value &= ~((uint32_t)(SCB_AIRCR_VECTKEY_Msk | SCB_AIRCR_PRIGROUP_Msk)); /* clear bits to change               */
 8001476:	0412      	lsls	r2, r2, #16
                (PriorityGroupTmp << SCB_AIRCR_PRIGROUP_Pos)  );              /* Insert write key and priority group */
 8001478:	f403 63e0 	and.w	r3, r3, #1792	; 0x700
  reg_value &= ~((uint32_t)(SCB_AIRCR_VECTKEY_Msk | SCB_AIRCR_PRIGROUP_Msk)); /* clear bits to change               */
 800147c:	0c12      	lsrs	r2, r2, #16
                ((uint32_t)0x5FAUL << SCB_AIRCR_VECTKEY_Pos) |
 800147e:	4313      	orrs	r3, r2
  reg_value  =  (reg_value                                   |
 8001480:	f043 63bf 	orr.w	r3, r3, #100139008	; 0x5f80000
 8001484:	f443 3300 	orr.w	r3, r3, #131072	; 0x20000
  SCB->AIRCR =  reg_value;
 8001488:	60cb      	str	r3, [r1, #12]
  /* Check the parameters */
  assert_param(IS_NVIC_PRIORITY_GROUP(PriorityGroup));
  
  /* Set the PRIGROUP[10:8] bits according to the PriorityGroup parameter value */
  NVIC_SetPriorityGrouping(PriorityGroup);
}
 800148a:	4770      	bx	lr
 800148c:	e000ed00 	.word	0xe000ed00

08001490 <HAL_NVIC_SetPriority>:
  \details Reads the priority grouping field from the NVIC Interrupt Controller.
  \return                Priority grouping field (SCB->AIRCR [10:8] PRIGROUP field).
 */
__STATIC_INLINE uint32_t __NVIC_GetPriorityGrouping(void)
{
  return ((uint32_t)((SCB->AIRCR & SCB_AIRCR_PRIGROUP_Msk) >> SCB_AIRCR_PRIGROUP_Pos));
 8001490:	4b16      	ldr	r3, [pc, #88]	; (80014ec <HAL_NVIC_SetPriority+0x5c>)
  *         This parameter can be a value between 0 and 15
  *         A lower priority value indicates a higher priority.          
  * @retval None
  */
void HAL_NVIC_SetPriority(IRQn_Type IRQn, uint32_t PreemptPriority, uint32_t SubPriority)
{ 
 8001492:	b530      	push	{r4, r5, lr}
 8001494:	68dc      	ldr	r4, [r3, #12]
 8001496:	f3c4 2402 	ubfx	r4, r4, #8, #3
{
  uint32_t PriorityGroupTmp = (PriorityGroup & (uint32_t)0x07UL);   /* only values 0..7 are used          */
  uint32_t PreemptPriorityBits;
  uint32_t SubPriorityBits;

  PreemptPriorityBits = ((7UL - PriorityGroupTmp) > (uint32_t)(__NVIC_PRIO_BITS)) ? (uint32_t)(__NVIC_PRIO_BITS) : (uint32_t)(7UL - PriorityGroupTmp);
 800149a:	f1c4 0307 	rsb	r3, r4, #7
  SubPriorityBits     = ((PriorityGroupTmp + (uint32_t)(__NVIC_PRIO_BITS)) < (uint32_t)7UL) ? (uint32_t)0UL : (uint32_t)((PriorityGroupTmp - 7UL) + (uint32_t)(__NVIC_PRIO_BITS));
 800149e:	1d25      	adds	r5, r4, #4
  PreemptPriorityBits = ((7UL - PriorityGroupTmp) > (uint32_t)(__NVIC_PRIO_BITS)) ? (uint32_t)(__NVIC_PRIO_BITS) : (uint32_t)(7UL - PriorityGroupTmp);
 80014a0:	2b04      	cmp	r3, #4
 80014a2:	bf28      	it	cs
 80014a4:	2304      	movcs	r3, #4
  SubPriorityBits     = ((PriorityGroupTmp + (uint32_t)(__NVIC_PRIO_BITS)) < (uint32_t)7UL) ? (uint32_t)0UL : (uint32_t)((PriorityGroupTmp - 7UL) + (uint32_t)(__NVIC_PRIO_BITS));
 80014a6:	2d06      	cmp	r5, #6

  return (
           ((PreemptPriority & (uint32_t)((1UL << (PreemptPriorityBits)) - 1UL)) << SubPriorityBits) |
 80014a8:	f04f 35ff 	mov.w	r5, #4294967295
  SubPriorityBits     = ((PriorityGroupTmp + (uint32_t)(__NVIC_PRIO_BITS)) < (uint32_t)7UL) ? (uint32_t)0UL : (uint32_t)((PriorityGroupTmp - 7UL) + (uint32_t)(__NVIC_PRIO_BITS));
 80014ac:	bf8c      	ite	hi
 80014ae:	3c03      	subhi	r4, #3
 80014b0:	2400      	movls	r4, #0
           ((PreemptPriority & (uint32_t)((1UL << (PreemptPriorityBits)) - 1UL)) << SubPriorityBits) |
 80014b2:	fa05 f303 	lsl.w	r3, r5, r3
 80014b6:	ea21 0303 	bic.w	r3, r1, r3
           ((SubPriority     & (uint32_t)((1UL << (SubPriorityBits    )) - 1UL)))
 80014ba:	40a5      	lsls	r5, r4
 80014bc:	ea22 0205 	bic.w	r2, r2, r5
           ((PreemptPriority & (uint32_t)((1UL << (PreemptPriorityBits)) - 1UL)) << SubPriorityBits) |
 80014c0:	40a3      	lsls	r3, r4
  if ((int32_t)(IRQn) >= 0)
 80014c2:	2800      	cmp	r0, #0
           ((PreemptPriority & (uint32_t)((1UL << (PreemptPriorityBits)) - 1UL)) << SubPriorityBits) |
 80014c4:	ea43 0302 	orr.w	r3, r3, r2
    NVIC->IP[((uint32_t)IRQn)]               = (uint8_t)((priority << (8U - __NVIC_PRIO_BITS)) & (uint32_t)0xFFUL);
 80014c8:	bfac      	ite	ge
 80014ca:	f100 4060 	addge.w	r0, r0, #3758096384	; 0xe0000000
    SCB->SHP[(((uint32_t)IRQn) & 0xFUL)-4UL] = (uint8_t)((priority << (8U - __NVIC_PRIO_BITS)) & (uint32_t)0xFFUL);
 80014ce:	4a08      	ldrlt	r2, [pc, #32]	; (80014f0 <HAL_NVIC_SetPriority+0x60>)
    NVIC->IP[((uint32_t)IRQn)]               = (uint8_t)((priority << (8U - __NVIC_PRIO_BITS)) & (uint32_t)0xFFUL);
 80014d0:	ea4f 1303 	mov.w	r3, r3, lsl #4
    SCB->SHP[(((uint32_t)IRQn) & 0xFUL)-4UL] = (uint8_t)((priority << (8U - __NVIC_PRIO_BITS)) & (uint32_t)0xFFUL);
 80014d4:	bfb8      	it	lt
 80014d6:	f000 000f 	andlt.w	r0, r0, #15
    NVIC->IP[((uint32_t)IRQn)]               = (uint8_t)((priority << (8U - __NVIC_PRIO_BITS)) & (uint32_t)0xFFUL);
 80014da:	b2db      	uxtb	r3, r3
 80014dc:	bfaa      	itet	ge
 80014de:	f500 4061 	addge.w	r0, r0, #57600	; 0xe100
    SCB->SHP[(((uint32_t)IRQn) & 0xFUL)-4UL] = (uint8_t)((priority << (8U - __NVIC_PRIO_BITS)) & (uint32_t)0xFFUL);
 80014e2:	5413      	strblt	r3, [r2, r0]
    NVIC->IP[((uint32_t)IRQn)]               = (uint8_t)((priority << (8U - __NVIC_PRIO_BITS)) & (uint32_t)0xFFUL);
 80014e4:	f880 3300 	strbge.w	r3, [r0, #768]	; 0x300
  assert_param(IS_NVIC_PREEMPTION_PRIORITY(PreemptPriority));
  
  prioritygroup = NVIC_GetPriorityGrouping();
  
  NVIC_SetPriority(IRQn, NVIC_EncodePriority(prioritygroup, PreemptPriority, SubPriority));
}
 80014e8:	bd30      	pop	{r4, r5, pc}
 80014ea:	bf00      	nop
 80014ec:	e000ed00 	.word	0xe000ed00
 80014f0:	e000ed14 	.word	0xe000ed14

080014f4 <HAL_NVIC_EnableIRQ>:
  if ((int32_t)(IRQn) >= 0)
 80014f4:	2800      	cmp	r0, #0
 80014f6:	db07      	blt.n	8001508 <HAL_NVIC_EnableIRQ+0x14>
    NVIC->ISER[(((uint32_t)IRQn) >> 5UL)] = (uint32_t)(1UL << (((uint32_t)IRQn) & 0x1FUL));
 80014f8:	0941      	lsrs	r1, r0, #5
 80014fa:	4a04      	ldr	r2, [pc, #16]	; (800150c <HAL_NVIC_EnableIRQ+0x18>)
 80014fc:	f000 001f 	and.w	r0, r0, #31
 8001500:	2301      	movs	r3, #1
 8001502:	4083      	lsls	r3, r0
 8001504:	f842 3021 	str.w	r3, [r2, r1, lsl #2]
  /* Check the parameters */
  assert_param(IS_NVIC_DEVICE_IRQ(IRQn));
  
  /* Enable interrupt */
  NVIC_EnableIRQ(IRQn);
}
 8001508:	4770      	bx	lr
 800150a:	bf00      	nop
 800150c:	e000e100 	.word	0xe000e100

08001510 <HAL_SYSTICK_Config>:
           function <b>SysTick_Config</b> is not included. In this case, the file <b><i>device</i>.h</b>
           must contain a vendor-specific implementation of this function.
 */
__STATIC_INLINE uint32_t SysTick_Config(uint32_t ticks)
{
  if ((ticks - 1UL) > SysTick_LOAD_RELOAD_Msk)
 8001510:	3801      	subs	r0, #1
 8001512:	f1b0 7f80 	cmp.w	r0, #16777216	; 0x1000000
 8001516:	d20b      	bcs.n	8001530 <HAL_SYSTICK_Config+0x20>
  {
    return (1UL);                                                   /* Reload value impossible */
  }

  SysTick->LOAD  = (uint32_t)(ticks - 1UL);                         /* set reload register */
 8001518:	f04f 23e0 	mov.w	r3, #3758153728	; 0xe000e000
    SCB->SHP[(((uint32_t)IRQn) & 0xFUL)-4UL] = (uint8_t)((priority << (8U - __NVIC_PRIO_BITS)) & (uint32_t)0xFFUL);
 800151c:	4a05      	ldr	r2, [pc, #20]	; (8001534 <HAL_SYSTICK_Config+0x24>)
  SysTick->LOAD  = (uint32_t)(ticks - 1UL);                         /* set reload register */
 800151e:	6158      	str	r0, [r3, #20]
    SCB->SHP[(((uint32_t)IRQn) & 0xFUL)-4UL] = (uint8_t)((priority << (8U - __NVIC_PRIO_BITS)) & (uint32_t)0xFFUL);
 8001520:	21f0      	movs	r1, #240	; 0xf0
 8001522:	f882 1023 	strb.w	r1, [r2, #35]	; 0x23
  NVIC_SetPriority (SysTick_IRQn, (1UL << __NVIC_PRIO_BITS) - 1UL); /* set Priority for Systick Interrupt */
  SysTick->VAL   = 0UL;                                             /* Load the SysTick Counter Value */
 8001526:	2000      	movs	r0, #0
  SysTick->CTRL  = SysTick_CTRL_CLKSOURCE_Msk |
 8001528:	2207      	movs	r2, #7
  SysTick->VAL   = 0UL;                                             /* Load the SysTick Counter Value */
 800152a:	6198      	str	r0, [r3, #24]
  SysTick->CTRL  = SysTick_CTRL_CLKSOURCE_Msk |
 800152c:	611a      	str	r2, [r3, #16]
                   SysTick_CTRL_TICKINT_Msk   |
                   SysTick_CTRL_ENABLE_Msk;                         /* Enable SysTick IRQ and SysTick Timer */
  return (0UL);                                                     /* Function successful */
 800152e:	4770      	bx	lr
    return (1UL);                                                   /* Reload value impossible */
 8001530:	2001      	movs	r0, #1
  *                  - 1  Function failed.
  */
uint32_t HAL_SYSTICK_Config(uint32_t TicksNumb)
{
   return SysTick_Config(TicksNumb);
}
 8001532:	4770      	bx	lr
 8001534:	e000ed00 	.word	0xe000ed00

08001538 <HAL_GPIO_Init>:
  * @param  GPIO_Init pointer to a GPIO_InitTypeDef structure that contains
  *         the configuration information for the specified GPIO peripheral.
  * @retval None
  */
void HAL_GPIO_Init(GPIO_TypeDef  *GPIOx, GPIO_InitTypeDef *GPIO_Init)
{
 8001538:	e92d 4ff0 	stmdb	sp!, {r4, r5, r6, r7, r8, r9, sl, fp, lr}
        temp &= ~(0x0FU << (4U * (position & 0x03U)));
        temp |= ((uint32_t)(GPIO_GET_INDEX(GPIOx)) << (4U * (position & 0x03U)));
        SYSCFG->EXTICR[position >> 2U] = temp;

        /* Clear EXTI line configuration */
        temp = EXTI->IMR;
 800153c:	4a6d      	ldr	r2, [pc, #436]	; (80016f4 <HAL_GPIO_Init+0x1bc>)
        __HAL_RCC_SYSCFG_CLK_ENABLE();
 800153e:	f8df 81bc 	ldr.w	r8, [pc, #444]	; 80016fc <HAL_GPIO_Init+0x1c4>
        temp |= ((uint32_t)(GPIO_GET_INDEX(GPIOx)) << (4U * (position & 0x03U)));
 8001542:	f8df 91bc 	ldr.w	r9, [pc, #444]	; 8001700 <HAL_GPIO_Init+0x1c8>
{
 8001546:	b085      	sub	sp, #20
  for(position = 0U; position < GPIO_NUMBER; position++)
 8001548:	2300      	movs	r3, #0
    iocurrent = (uint32_t)(GPIO_Init->Pin) & ioposition;
 800154a:	680c      	ldr	r4, [r1, #0]
    ioposition = 0x01U << position;
 800154c:	2701      	movs	r7, #1
 800154e:	409f      	lsls	r7, r3
    iocurrent = (uint32_t)(GPIO_Init->Pin) & ioposition;
 8001550:	ea07 0504 	and.w	r5, r7, r4
    if(iocurrent == ioposition)
 8001554:	ea37 0404 	bics.w	r4, r7, r4
 8001558:	f040 80b7 	bne.w	80016ca <HAL_GPIO_Init+0x192>
      if((GPIO_Init->Mode == GPIO_MODE_AF_PP) || (GPIO_Init->Mode == GPIO_MODE_AF_OD))
 800155c:	684c      	ldr	r4, [r1, #4]
 800155e:	f024 0a10 	bic.w	sl, r4, #16
 8001562:	f1ba 0f02 	cmp.w	sl, #2
 8001566:	d116      	bne.n	8001596 <HAL_GPIO_Init+0x5e>
        temp = GPIOx->AFR[position >> 3U];
 8001568:	ea4f 0ed3 	mov.w	lr, r3, lsr #3
 800156c:	eb00 0e8e 	add.w	lr, r0, lr, lsl #2
        temp &= ~(0xFU << ((uint32_t)(position & 0x07U) * 4U)) ;
 8001570:	f003 0b07 	and.w	fp, r3, #7
        temp = GPIOx->AFR[position >> 3U];
 8001574:	f8de 6020 	ldr.w	r6, [lr, #32]
        temp &= ~(0xFU << ((uint32_t)(position & 0x07U) * 4U)) ;
 8001578:	ea4f 0b8b 	mov.w	fp, fp, lsl #2
 800157c:	f04f 0c0f 	mov.w	ip, #15
 8001580:	fa0c fc0b 	lsl.w	ip, ip, fp
 8001584:	ea26 0c0c 	bic.w	ip, r6, ip
        temp |= ((uint32_t)(GPIO_Init->Alternate) << (((uint32_t)position & 0x07U) * 4U));
 8001588:	690e      	ldr	r6, [r1, #16]
 800158a:	fa06 f60b 	lsl.w	r6, r6, fp
 800158e:	ea46 060c 	orr.w	r6, r6, ip
        GPIOx->AFR[position >> 3U] = temp;
 8001592:	f8ce 6020 	str.w	r6, [lr, #32]
      temp = GPIOx->MODER;
 8001596:	f8d0 b000 	ldr.w	fp, [r0]
      temp &= ~(GPIO_MODER_MODER0 << (position * 2U));
 800159a:	ea4f 0e43 	mov.w	lr, r3, lsl #1
 800159e:	f04f 0c03 	mov.w	ip, #3
 80015a2:	fa0c fc0e 	lsl.w	ip, ip, lr
 80015a6:	ea6f 060c 	mvn.w	r6, ip
 80015aa:	ea2b 0b0c 	bic.w	fp, fp, ip
      temp |= ((GPIO_Init->Mode & GPIO_MODE) << (position * 2U));
 80015ae:	f004 0c03 	and.w	ip, r4, #3
 80015b2:	fa0c fc0e 	lsl.w	ip, ip, lr
      if((GPIO_Init->Mode == GPIO_MODE_OUTPUT_PP) || (GPIO_Init->Mode == GPIO_MODE_AF_PP) ||
 80015b6:	f10a 3aff 	add.w	sl, sl, #4294967295
      temp |= ((GPIO_Init->Mode & GPIO_MODE) << (position * 2U));
 80015ba:	ea4c 0c0b 	orr.w	ip, ip, fp
      if((GPIO_Init->Mode == GPIO_MODE_OUTPUT_PP) || (GPIO_Init->Mode == GPIO_MODE_AF_PP) ||
 80015be:	f1ba 0f01 	cmp.w	sl, #1
      temp &= ~(GPIO_MODER_MODER0 << (position * 2U));
 80015c2:	9601      	str	r6, [sp, #4]
      GPIOx->MODER = temp;
 80015c4:	f8c0 c000 	str.w	ip, [r0]
      if((GPIO_Init->Mode == GPIO_MODE_OUTPUT_PP) || (GPIO_Init->Mode == GPIO_MODE_AF_PP) ||
 80015c8:	d813      	bhi.n	80015f2 <HAL_GPIO_Init+0xba>
        temp = GPIOx->OSPEEDR; 
 80015ca:	f8d0 c008 	ldr.w	ip, [r0, #8]
        temp &= ~(GPIO_OSPEEDER_OSPEEDR0 << (position * 2U));
 80015ce:	ea06 0c0c 	and.w	ip, r6, ip
        temp |= (GPIO_Init->Speed << (position * 2U));
 80015d2:	68ce      	ldr	r6, [r1, #12]
 80015d4:	fa06 fa0e 	lsl.w	sl, r6, lr
 80015d8:	ea4a 0a0c 	orr.w	sl, sl, ip
        GPIOx->OSPEEDR = temp;
 80015dc:	f8c0 a008 	str.w	sl, [r0, #8]
        temp = GPIOx->OTYPER;
 80015e0:	f8d0 c004 	ldr.w	ip, [r0, #4]
        temp &= ~(GPIO_OTYPER_OT_0 << position) ;
 80015e4:	ea2c 0c07 	bic.w	ip, ip, r7
        temp |= (((GPIO_Init->Mode & GPIO_OUTPUT_TYPE) >> 4U) << position);
 80015e8:	0927      	lsrs	r7, r4, #4
 80015ea:	409f      	lsls	r7, r3
 80015ec:	ea47 070c 	orr.w	r7, r7, ip
        GPIOx->OTYPER = temp;
 80015f0:	6047      	str	r7, [r0, #4]
      temp = GPIOx->PUPDR;
 80015f2:	68c7      	ldr	r7, [r0, #12]
      temp &= ~(GPIO_PUPDR_PUPDR0 << (position * 2U));
 80015f4:	9e01      	ldr	r6, [sp, #4]
 80015f6:	4037      	ands	r7, r6
      temp |= ((GPIO_Init->Pull) << (position * 2U));
 80015f8:	688e      	ldr	r6, [r1, #8]
 80015fa:	fa06 f60e 	lsl.w	r6, r6, lr
 80015fe:	433e      	orrs	r6, r7
      GPIOx->PUPDR = temp;
 8001600:	60c6      	str	r6, [r0, #12]
      if((GPIO_Init->Mode & EXTI_MODE) == EXTI_MODE)
 8001602:	00e6      	lsls	r6, r4, #3
 8001604:	d561      	bpl.n	80016ca <HAL_GPIO_Init+0x192>
        __HAL_RCC_SYSCFG_CLK_ENABLE();
 8001606:	f04f 0b00 	mov.w	fp, #0
 800160a:	f8cd b00c 	str.w	fp, [sp, #12]
 800160e:	f8d8 7044 	ldr.w	r7, [r8, #68]	; 0x44
        temp |= ((uint32_t)(GPIO_GET_INDEX(GPIOx)) << (4U * (position & 0x03U)));
 8001612:	4e39      	ldr	r6, [pc, #228]	; (80016f8 <HAL_GPIO_Init+0x1c0>)
        __HAL_RCC_SYSCFG_CLK_ENABLE();
 8001614:	f447 4780 	orr.w	r7, r7, #16384	; 0x4000
 8001618:	f8c8 7044 	str.w	r7, [r8, #68]	; 0x44
 800161c:	f8d8 7044 	ldr.w	r7, [r8, #68]	; 0x44
 8001620:	f407 4780 	and.w	r7, r7, #16384	; 0x4000
 8001624:	9703      	str	r7, [sp, #12]
 8001626:	9f03      	ldr	r7, [sp, #12]
        temp = SYSCFG->EXTICR[position >> 2U];
 8001628:	f023 0703 	bic.w	r7, r3, #3
 800162c:	f107 4780 	add.w	r7, r7, #1073741824	; 0x40000000
 8001630:	f507 379c 	add.w	r7, r7, #79872	; 0x13800
        temp &= ~(0x0FU << (4U * (position & 0x03U)));
 8001634:	f003 0e03 	and.w	lr, r3, #3
        temp = SYSCFG->EXTICR[position >> 2U];
 8001638:	f8d7 a008 	ldr.w	sl, [r7, #8]
        temp &= ~(0x0FU << (4U * (position & 0x03U)));
 800163c:	ea4f 0e8e 	mov.w	lr, lr, lsl #2
 8001640:	f04f 0c0f 	mov.w	ip, #15
 8001644:	fa0c fc0e 	lsl.w	ip, ip, lr
        temp |= ((uint32_t)(GPIO_GET_INDEX(GPIOx)) << (4U * (position & 0x03U)));
 8001648:	42b0      	cmp	r0, r6
        temp &= ~(0x0FU << (4U * (position & 0x03U)));
 800164a:	ea2a 0c0c 	bic.w	ip, sl, ip
        temp |= ((uint32_t)(GPIO_GET_INDEX(GPIOx)) << (4U * (position & 0x03U)));
 800164e:	d043      	beq.n	80016d8 <HAL_GPIO_Init+0x1a0>
 8001650:	f506 6680 	add.w	r6, r6, #1024	; 0x400
 8001654:	42b0      	cmp	r0, r6
 8001656:	d041      	beq.n	80016dc <HAL_GPIO_Init+0x1a4>
 8001658:	f506 6680 	add.w	r6, r6, #1024	; 0x400
 800165c:	42b0      	cmp	r0, r6
 800165e:	d03f      	beq.n	80016e0 <HAL_GPIO_Init+0x1a8>
 8001660:	f506 6680 	add.w	r6, r6, #1024	; 0x400
 8001664:	42b0      	cmp	r0, r6
 8001666:	d03d      	beq.n	80016e4 <HAL_GPIO_Init+0x1ac>
 8001668:	f506 6680 	add.w	r6, r6, #1024	; 0x400
 800166c:	42b0      	cmp	r0, r6
 800166e:	d03b      	beq.n	80016e8 <HAL_GPIO_Init+0x1b0>
 8001670:	4548      	cmp	r0, r9
 8001672:	d03b      	beq.n	80016ec <HAL_GPIO_Init+0x1b4>
 8001674:	f506 6600 	add.w	r6, r6, #2048	; 0x800
 8001678:	42b0      	cmp	r0, r6
 800167a:	d039      	beq.n	80016f0 <HAL_GPIO_Init+0x1b8>
 800167c:	f506 6680 	add.w	r6, r6, #1024	; 0x400
 8001680:	42b0      	cmp	r0, r6
 8001682:	bf0c      	ite	eq
 8001684:	2607      	moveq	r6, #7
 8001686:	2608      	movne	r6, #8
 8001688:	fa06 f60e 	lsl.w	r6, r6, lr
 800168c:	ea46 060c 	orr.w	r6, r6, ip
        SYSCFG->EXTICR[position >> 2U] = temp;
 8001690:	60be      	str	r6, [r7, #8]
        temp = EXTI->IMR;
 8001692:	6816      	ldr	r6, [r2, #0]
        temp &= ~((uint32_t)iocurrent);
 8001694:	43ef      	mvns	r7, r5
        if((GPIO_Init->Mode & GPIO_MODE_IT) == GPIO_MODE_IT)
 8001696:	f414 3f80 	tst.w	r4, #65536	; 0x10000
        temp &= ~((uint32_t)iocurrent);
 800169a:	bf0c      	ite	eq
 800169c:	403e      	andeq	r6, r7
        {
          temp |= iocurrent;
 800169e:	432e      	orrne	r6, r5
        }
        EXTI->IMR = temp;
 80016a0:	6016      	str	r6, [r2, #0]

        temp = EXTI->EMR;
 80016a2:	6856      	ldr	r6, [r2, #4]
        temp &= ~((uint32_t)iocurrent);
        if((GPIO_Init->Mode & GPIO_MODE_EVT) == GPIO_MODE_EVT)
 80016a4:	f414 3f00 	tst.w	r4, #131072	; 0x20000
        temp &= ~((uint32_t)iocurrent);
 80016a8:	bf0c      	ite	eq
 80016aa:	403e      	andeq	r6, r7
        {
          temp |= iocurrent;
 80016ac:	432e      	orrne	r6, r5
        }
        EXTI->EMR = temp;
 80016ae:	6056      	str	r6, [r2, #4]

        /* Clear Rising Falling edge configuration */
        temp = EXTI->RTSR;
 80016b0:	6896      	ldr	r6, [r2, #8]
        temp &= ~((uint32_t)iocurrent);
        if((GPIO_Init->Mode & RISING_EDGE) == RISING_EDGE)
 80016b2:	f414 1f80 	tst.w	r4, #1048576	; 0x100000
        temp &= ~((uint32_t)iocurrent);
 80016b6:	bf0c      	ite	eq
 80016b8:	403e      	andeq	r6, r7
        {
          temp |= iocurrent;
 80016ba:	432e      	orrne	r6, r5
        }
        EXTI->RTSR = temp;
 80016bc:	6096      	str	r6, [r2, #8]

        temp = EXTI->FTSR;
 80016be:	68d6      	ldr	r6, [r2, #12]
        temp &= ~((uint32_t)iocurrent);
        if((GPIO_Init->Mode & FALLING_EDGE) == FALLING_EDGE)
 80016c0:	02a4      	lsls	r4, r4, #10
        temp &= ~((uint32_t)iocurrent);
 80016c2:	bf54      	ite	pl
 80016c4:	403e      	andpl	r6, r7
        {
          temp |= iocurrent;
 80016c6:	432e      	orrmi	r6, r5
        }
        EXTI->FTSR = temp;
 80016c8:	60d6      	str	r6, [r2, #12]
  for(position = 0U; position < GPIO_NUMBER; position++)
 80016ca:	3301      	adds	r3, #1
 80016cc:	2b10      	cmp	r3, #16
 80016ce:	f47f af3c 	bne.w	800154a <HAL_GPIO_Init+0x12>
      }
    }
  }
}
 80016d2:	b005      	add	sp, #20
 80016d4:	e8bd 8ff0 	ldmia.w	sp!, {r4, r5, r6, r7, r8, r9, sl, fp, pc}
        temp |= ((uint32_t)(GPIO_GET_INDEX(GPIOx)) << (4U * (position & 0x03U)));
 80016d8:	465e      	mov	r6, fp
 80016da:	e7d5      	b.n	8001688 <HAL_GPIO_Init+0x150>
 80016dc:	2601      	movs	r6, #1
 80016de:	e7d3      	b.n	8001688 <HAL_GPIO_Init+0x150>
 80016e0:	2602      	movs	r6, #2
 80016e2:	e7d1      	b.n	8001688 <HAL_GPIO_Init+0x150>
 80016e4:	2603      	movs	r6, #3
 80016e6:	e7cf      	b.n	8001688 <HAL_GPIO_Init+0x150>
 80016e8:	2604      	movs	r6, #4
 80016ea:	e7cd      	b.n	8001688 <HAL_GPIO_Init+0x150>
 80016ec:	2605      	movs	r6, #5
 80016ee:	e7cb      	b.n	8001688 <HAL_GPIO_Init+0x150>
 80016f0:	2606      	movs	r6, #6
 80016f2:	e7c9      	b.n	8001688 <HAL_GPIO_Init+0x150>
 80016f4:	40013c00 	.word	0x40013c00
 80016f8:	40020000 	.word	0x40020000
 80016fc:	40023800 	.word	0x40023800
 8001700:	40021400 	.word	0x40021400

08001704 <HAL_GPIO_WritePin>:
{
  /* Check the parameters */
  assert_param(IS_GPIO_PIN(GPIO_Pin));
  assert_param(IS_GPIO_PIN_ACTION(PinState));

  if(PinState != GPIO_PIN_RESET)
 8001704:	b10a      	cbz	r2, 800170a <HAL_GPIO_WritePin+0x6>
  {
    GPIOx->BSRR = GPIO_Pin;
  }
  else
  {
    GPIOx->BSRR = (uint32_t)GPIO_Pin << 16U;
 8001706:	6181      	str	r1, [r0, #24]
  }
}
 8001708:	4770      	bx	lr
    GPIOx->BSRR = (uint32_t)GPIO_Pin << 16U;
 800170a:	0409      	lsls	r1, r1, #16
 800170c:	e7fb      	b.n	8001706 <HAL_GPIO_WritePin+0x2>

0800170e <I2C_IsAcknowledgeFailed>:
  *                the configuration information for the specified I2C.
  * @retval HAL status
  */
static HAL_StatusTypeDef I2C_IsAcknowledgeFailed(I2C_HandleTypeDef *hi2c)
{
  if (__HAL_I2C_GET_FLAG(hi2c, I2C_FLAG_AF) == SET)
 800170e:	6801      	ldr	r1, [r0, #0]
 8001710:	694b      	ldr	r3, [r1, #20]
 8001712:	f413 6380 	ands.w	r3, r3, #1024	; 0x400
 8001716:	f04f 0200 	mov.w	r2, #0
 800171a:	d010      	beq.n	800173e <I2C_IsAcknowledgeFailed+0x30>
  {
    /* Clear NACKF Flag */
    __HAL_I2C_CLEAR_FLAG(hi2c, I2C_FLAG_AF);
 800171c:	f46f 6380 	mvn.w	r3, #1024	; 0x400
 8001720:	614b      	str	r3, [r1, #20]

    hi2c->PreviousState       = I2C_STATE_NONE;
    hi2c->State               = HAL_I2C_STATE_READY;
 8001722:	2320      	movs	r3, #32
    hi2c->PreviousState       = I2C_STATE_NONE;
 8001724:	6302      	str	r2, [r0, #48]	; 0x30
    hi2c->State               = HAL_I2C_STATE_READY;
 8001726:	f880 303d 	strb.w	r3, [r0, #61]	; 0x3d
    hi2c->Mode                = HAL_I2C_MODE_NONE;
 800172a:	f880 203e 	strb.w	r2, [r0, #62]	; 0x3e
    hi2c->ErrorCode           |= HAL_I2C_ERROR_AF;
 800172e:	6c03      	ldr	r3, [r0, #64]	; 0x40

    /* Process Unlocked */
    __HAL_UNLOCK(hi2c);
 8001730:	f880 203c 	strb.w	r2, [r0, #60]	; 0x3c
    hi2c->ErrorCode           |= HAL_I2C_ERROR_AF;
 8001734:	f043 0304 	orr.w	r3, r3, #4
 8001738:	6403      	str	r3, [r0, #64]	; 0x40

    return HAL_ERROR;
 800173a:	2001      	movs	r0, #1
 800173c:	4770      	bx	lr
  }
  return HAL_OK;
 800173e:	4618      	mov	r0, r3
}
 8001740:	4770      	bx	lr

08001742 <I2C_WaitOnFlagUntilTimeout>:
{
 8001742:	e92d 46f8 	stmdb	sp!, {r3, r4, r5, r6, r7, r9, sl, lr}
 8001746:	4606      	mov	r6, r0
 8001748:	460f      	mov	r7, r1
 800174a:	4691      	mov	r9, r2
 800174c:	461d      	mov	r5, r3
  while (__HAL_I2C_GET_FLAG(hi2c, Flag) == Status)
 800174e:	ea4f 4a11 	mov.w	sl, r1, lsr #16
 8001752:	6833      	ldr	r3, [r6, #0]
 8001754:	f1ba 0f01 	cmp.w	sl, #1
 8001758:	bf0c      	ite	eq
 800175a:	695c      	ldreq	r4, [r3, #20]
 800175c:	699c      	ldrne	r4, [r3, #24]
 800175e:	ea27 0404 	bic.w	r4, r7, r4
 8001762:	b2a4      	uxth	r4, r4
 8001764:	fab4 f484 	clz	r4, r4
 8001768:	0964      	lsrs	r4, r4, #5
 800176a:	45a1      	cmp	r9, r4
 800176c:	d001      	beq.n	8001772 <I2C_WaitOnFlagUntilTimeout+0x30>
  return HAL_OK;
 800176e:	2000      	movs	r0, #0
 8001770:	e017      	b.n	80017a2 <I2C_WaitOnFlagUntilTimeout+0x60>
    if (Timeout != HAL_MAX_DELAY)
 8001772:	1c6a      	adds	r2, r5, #1
 8001774:	d0ee      	beq.n	8001754 <I2C_WaitOnFlagUntilTimeout+0x12>
      if (((HAL_GetTick() - Tickstart) > Timeout) || (Timeout == 0U))
 8001776:	f7ff fc27 	bl	8000fc8 <HAL_GetTick>
 800177a:	9b08      	ldr	r3, [sp, #32]
 800177c:	1ac0      	subs	r0, r0, r3
 800177e:	42a8      	cmp	r0, r5
 8001780:	d801      	bhi.n	8001786 <I2C_WaitOnFlagUntilTimeout+0x44>
 8001782:	2d00      	cmp	r5, #0
 8001784:	d1e5      	bne.n	8001752 <I2C_WaitOnFlagUntilTimeout+0x10>
        hi2c->PreviousState     = I2C_STATE_NONE;
 8001786:	2300      	movs	r3, #0
        hi2c->State             = HAL_I2C_STATE_READY;
 8001788:	2220      	movs	r2, #32
        hi2c->PreviousState     = I2C_STATE_NONE;
 800178a:	6333      	str	r3, [r6, #48]	; 0x30
        hi2c->State             = HAL_I2C_STATE_READY;
 800178c:	f886 203d 	strb.w	r2, [r6, #61]	; 0x3d
        hi2c->Mode              = HAL_I2C_MODE_NONE;
 8001790:	f886 303e 	strb.w	r3, [r6, #62]	; 0x3e
        hi2c->ErrorCode         |= HAL_I2C_ERROR_TIMEOUT;
 8001794:	6c32      	ldr	r2, [r6, #64]	; 0x40
        __HAL_UNLOCK(hi2c);
 8001796:	f886 303c 	strb.w	r3, [r6, #60]	; 0x3c
        hi2c->ErrorCode         |= HAL_I2C_ERROR_TIMEOUT;
 800179a:	f042 0220 	orr.w	r2, r2, #32
 800179e:	6432      	str	r2, [r6, #64]	; 0x40
        return HAL_ERROR;
 80017a0:	2001      	movs	r0, #1
}
 80017a2:	e8bd 86f8 	ldmia.w	sp!, {r3, r4, r5, r6, r7, r9, sl, pc}

080017a6 <I2C_WaitOnMasterAddressFlagUntilTimeout>:
{
 80017a6:	e92d 41f0 	stmdb	sp!, {r4, r5, r6, r7, r8, lr}
 80017aa:	4604      	mov	r4, r0
 80017ac:	460f      	mov	r7, r1
 80017ae:	4616      	mov	r6, r2
 80017b0:	4698      	mov	r8, r3
  while (__HAL_I2C_GET_FLAG(hi2c, Flag) == RESET)
 80017b2:	6825      	ldr	r5, [r4, #0]
 80017b4:	6968      	ldr	r0, [r5, #20]
 80017b6:	ea27 0000 	bic.w	r0, r7, r0
 80017ba:	b280      	uxth	r0, r0
 80017bc:	b1b8      	cbz	r0, 80017ee <I2C_WaitOnMasterAddressFlagUntilTimeout+0x48>
    if (__HAL_I2C_GET_FLAG(hi2c, I2C_FLAG_AF) == SET)
 80017be:	696b      	ldr	r3, [r5, #20]
 80017c0:	055a      	lsls	r2, r3, #21
 80017c2:	d516      	bpl.n	80017f2 <I2C_WaitOnMasterAddressFlagUntilTimeout+0x4c>
      SET_BIT(hi2c->Instance->CR1, I2C_CR1_STOP);
 80017c4:	682b      	ldr	r3, [r5, #0]
 80017c6:	f443 7300 	orr.w	r3, r3, #512	; 0x200
 80017ca:	602b      	str	r3, [r5, #0]
      __HAL_I2C_CLEAR_FLAG(hi2c, I2C_FLAG_AF);
 80017cc:	f46f 6380 	mvn.w	r3, #1024	; 0x400
 80017d0:	616b      	str	r3, [r5, #20]
      hi2c->State               = HAL_I2C_STATE_READY;
 80017d2:	2220      	movs	r2, #32
      hi2c->PreviousState       = I2C_STATE_NONE;
 80017d4:	2300      	movs	r3, #0
 80017d6:	6323      	str	r3, [r4, #48]	; 0x30
      hi2c->State               = HAL_I2C_STATE_READY;
 80017d8:	f884 203d 	strb.w	r2, [r4, #61]	; 0x3d
      hi2c->Mode                = HAL_I2C_MODE_NONE;
 80017dc:	f884 303e 	strb.w	r3, [r4, #62]	; 0x3e
      hi2c->ErrorCode           |= HAL_I2C_ERROR_AF;
 80017e0:	6c22      	ldr	r2, [r4, #64]	; 0x40
 80017e2:	f042 0204 	orr.w	r2, r2, #4
        hi2c->ErrorCode           |= HAL_I2C_ERROR_TIMEOUT;
 80017e6:	6422      	str	r2, [r4, #64]	; 0x40
        __HAL_UNLOCK(hi2c);
 80017e8:	f884 303c 	strb.w	r3, [r4, #60]	; 0x3c
        return HAL_ERROR;
 80017ec:	2001      	movs	r0, #1
}
 80017ee:	e8bd 81f0 	ldmia.w	sp!, {r4, r5, r6, r7, r8, pc}
    if (Timeout != HAL_MAX_DELAY)
 80017f2:	1c73      	adds	r3, r6, #1
 80017f4:	d0de      	beq.n	80017b4 <I2C_WaitOnMasterAddressFlagUntilTimeout+0xe>
      if (((HAL_GetTick() - Tickstart) > Timeout) || (Timeout == 0U))
 80017f6:	f7ff fbe7 	bl	8000fc8 <HAL_GetTick>
 80017fa:	eba0 0008 	sub.w	r0, r0, r8
 80017fe:	42b0      	cmp	r0, r6
 8001800:	d801      	bhi.n	8001806 <I2C_WaitOnMasterAddressFlagUntilTimeout+0x60>
 8001802:	2e00      	cmp	r6, #0
 8001804:	d1d5      	bne.n	80017b2 <I2C_WaitOnMasterAddressFlagUntilTimeout+0xc>
        hi2c->PreviousState       = I2C_STATE_NONE;
 8001806:	2300      	movs	r3, #0
        hi2c->State               = HAL_I2C_STATE_READY;
 8001808:	2220      	movs	r2, #32
        hi2c->PreviousState       = I2C_STATE_NONE;
 800180a:	6323      	str	r3, [r4, #48]	; 0x30
        hi2c->State               = HAL_I2C_STATE_READY;
 800180c:	f884 203d 	strb.w	r2, [r4, #61]	; 0x3d
        hi2c->Mode                = HAL_I2C_MODE_NONE;
 8001810:	f884 303e 	strb.w	r3, [r4, #62]	; 0x3e
        hi2c->ErrorCode           |= HAL_I2C_ERROR_TIMEOUT;
 8001814:	6c22      	ldr	r2, [r4, #64]	; 0x40
 8001816:	f042 0220 	orr.w	r2, r2, #32
 800181a:	e7e4      	b.n	80017e6 <I2C_WaitOnMasterAddressFlagUntilTimeout+0x40>

0800181c <I2C_WaitOnRXNEFlagUntilTimeout>:
{
 800181c:	b570      	push	{r4, r5, r6, lr}
 800181e:	4604      	mov	r4, r0
 8001820:	460d      	mov	r5, r1
 8001822:	4616      	mov	r6, r2
  while (__HAL_I2C_GET_FLAG(hi2c, I2C_FLAG_RXNE) == RESET)
 8001824:	6821      	ldr	r1, [r4, #0]
 8001826:	694b      	ldr	r3, [r1, #20]
 8001828:	f013 0340 	ands.w	r3, r3, #64	; 0x40
 800182c:	d001      	beq.n	8001832 <I2C_WaitOnRXNEFlagUntilTimeout+0x16>
  return HAL_OK;
 800182e:	2000      	movs	r0, #0
 8001830:	e010      	b.n	8001854 <I2C_WaitOnRXNEFlagUntilTimeout+0x38>
    if (__HAL_I2C_GET_FLAG(hi2c, I2C_FLAG_STOPF) == SET)
 8001832:	694a      	ldr	r2, [r1, #20]
 8001834:	06d2      	lsls	r2, r2, #27
 8001836:	d50e      	bpl.n	8001856 <I2C_WaitOnRXNEFlagUntilTimeout+0x3a>
      __HAL_I2C_CLEAR_FLAG(hi2c, I2C_FLAG_STOPF);
 8001838:	f06f 0210 	mvn.w	r2, #16
 800183c:	614a      	str	r2, [r1, #20]
      hi2c->State               = HAL_I2C_STATE_READY;
 800183e:	2220      	movs	r2, #32
      hi2c->PreviousState       = I2C_STATE_NONE;
 8001840:	6323      	str	r3, [r4, #48]	; 0x30
      hi2c->State               = HAL_I2C_STATE_READY;
 8001842:	f884 203d 	strb.w	r2, [r4, #61]	; 0x3d
      hi2c->Mode                = HAL_I2C_MODE_NONE;
 8001846:	f884 303e 	strb.w	r3, [r4, #62]	; 0x3e
      hi2c->ErrorCode           |= HAL_I2C_ERROR_NONE;
 800184a:	6c22      	ldr	r2, [r4, #64]	; 0x40
      hi2c->ErrorCode           |= HAL_I2C_ERROR_TIMEOUT;
 800184c:	6422      	str	r2, [r4, #64]	; 0x40
      __HAL_UNLOCK(hi2c);
 800184e:	f884 303c 	strb.w	r3, [r4, #60]	; 0x3c
      return HAL_ERROR;
 8001852:	2001      	movs	r0, #1
}
 8001854:	bd70      	pop	{r4, r5, r6, pc}
    if (((HAL_GetTick() - Tickstart) > Timeout) || (Timeout == 0U))
 8001856:	f7ff fbb7 	bl	8000fc8 <HAL_GetTick>
 800185a:	1b80      	subs	r0, r0, r6
 800185c:	42a8      	cmp	r0, r5
 800185e:	d801      	bhi.n	8001864 <I2C_WaitOnRXNEFlagUntilTimeout+0x48>
 8001860:	2d00      	cmp	r5, #0
 8001862:	d1df      	bne.n	8001824 <I2C_WaitOnRXNEFlagUntilTimeout+0x8>
      hi2c->PreviousState       = I2C_STATE_NONE;
 8001864:	2300      	movs	r3, #0
      hi2c->State               = HAL_I2C_STATE_READY;
 8001866:	2220      	movs	r2, #32
      hi2c->PreviousState       = I2C_STATE_NONE;
 8001868:	6323      	str	r3, [r4, #48]	; 0x30
      hi2c->State               = HAL_I2C_STATE_READY;
 800186a:	f884 203d 	strb.w	r2, [r4, #61]	; 0x3d
      hi2c->Mode                = HAL_I2C_MODE_NONE;
 800186e:	f884 303e 	strb.w	r3, [r4, #62]	; 0x3e
      hi2c->ErrorCode           |= HAL_I2C_ERROR_TIMEOUT;
 8001872:	6c22      	ldr	r2, [r4, #64]	; 0x40
 8001874:	f042 0220 	orr.w	r2, r2, #32
 8001878:	e7e8      	b.n	800184c <I2C_WaitOnRXNEFlagUntilTimeout+0x30>

0800187a <I2C_WaitOnBTFFlagUntilTimeout>:
{
 800187a:	b570      	push	{r4, r5, r6, lr}
 800187c:	4604      	mov	r4, r0
 800187e:	460d      	mov	r5, r1
 8001880:	4616      	mov	r6, r2
  while (__HAL_I2C_GET_FLAG(hi2c, I2C_FLAG_BTF) == RESET)
 8001882:	6823      	ldr	r3, [r4, #0]
 8001884:	695b      	ldr	r3, [r3, #20]
 8001886:	075b      	lsls	r3, r3, #29
 8001888:	d501      	bpl.n	800188e <I2C_WaitOnBTFFlagUntilTimeout+0x14>
  return HAL_OK;
 800188a:	2000      	movs	r0, #0
}
 800188c:	bd70      	pop	{r4, r5, r6, pc}
    if (I2C_IsAcknowledgeFailed(hi2c) != HAL_OK)
 800188e:	4620      	mov	r0, r4
 8001890:	f7ff ff3d 	bl	800170e <I2C_IsAcknowledgeFailed>
 8001894:	b9a8      	cbnz	r0, 80018c2 <I2C_WaitOnBTFFlagUntilTimeout+0x48>
    if (Timeout != HAL_MAX_DELAY)
 8001896:	1c6a      	adds	r2, r5, #1
 8001898:	d0f3      	beq.n	8001882 <I2C_WaitOnBTFFlagUntilTimeout+0x8>
      if (((HAL_GetTick() - Tickstart) > Timeout) || (Timeout == 0U))
 800189a:	f7ff fb95 	bl	8000fc8 <HAL_GetTick>
 800189e:	1b80      	subs	r0, r0, r6
 80018a0:	42a8      	cmp	r0, r5
 80018a2:	d801      	bhi.n	80018a8 <I2C_WaitOnBTFFlagUntilTimeout+0x2e>
 80018a4:	2d00      	cmp	r5, #0
 80018a6:	d1ec      	bne.n	8001882 <I2C_WaitOnBTFFlagUntilTimeout+0x8>
        hi2c->PreviousState       = I2C_STATE_NONE;
 80018a8:	2300      	movs	r3, #0
        hi2c->State               = HAL_I2C_STATE_READY;
 80018aa:	2220      	movs	r2, #32
        hi2c->PreviousState       = I2C_STATE_NONE;
 80018ac:	6323      	str	r3, [r4, #48]	; 0x30
        hi2c->State               = HAL_I2C_STATE_READY;
 80018ae:	f884 203d 	strb.w	r2, [r4, #61]	; 0x3d
        hi2c->Mode                = HAL_I2C_MODE_NONE;
 80018b2:	f884 303e 	strb.w	r3, [r4, #62]	; 0x3e
        hi2c->ErrorCode           |= HAL_I2C_ERROR_TIMEOUT;
 80018b6:	6c22      	ldr	r2, [r4, #64]	; 0x40
        __HAL_UNLOCK(hi2c);
 80018b8:	f884 303c 	strb.w	r3, [r4, #60]	; 0x3c
        hi2c->ErrorCode           |= HAL_I2C_ERROR_TIMEOUT;
 80018bc:	f042 0220 	orr.w	r2, r2, #32
 80018c0:	6422      	str	r2, [r4, #64]	; 0x40
      return HAL_ERROR;
 80018c2:	2001      	movs	r0, #1
 80018c4:	e7e2      	b.n	800188c <I2C_WaitOnBTFFlagUntilTimeout+0x12>

080018c6 <I2C_WaitOnTXEFlagUntilTimeout>:
{
 80018c6:	b570      	push	{r4, r5, r6, lr}
 80018c8:	4604      	mov	r4, r0
 80018ca:	460d      	mov	r5, r1
 80018cc:	4616      	mov	r6, r2
  while (__HAL_I2C_GET_FLAG(hi2c, I2C_FLAG_TXE) == RESET)
 80018ce:	6823      	ldr	r3, [r4, #0]
 80018d0:	695b      	ldr	r3, [r3, #20]
 80018d2:	061b      	lsls	r3, r3, #24
 80018d4:	d501      	bpl.n	80018da <I2C_WaitOnTXEFlagUntilTimeout+0x14>
  return HAL_OK;
 80018d6:	2000      	movs	r0, #0
}
 80018d8:	bd70      	pop	{r4, r5, r6, pc}
    if (I2C_IsAcknowledgeFailed(hi2c) != HAL_OK)
 80018da:	4620      	mov	r0, r4
 80018dc:	f7ff ff17 	bl	800170e <I2C_IsAcknowledgeFailed>
 80018e0:	b9a8      	cbnz	r0, 800190e <I2C_WaitOnTXEFlagUntilTimeout+0x48>
    if (Timeout != HAL_MAX_DELAY)
 80018e2:	1c6a      	adds	r2, r5, #1
 80018e4:	d0f3      	beq.n	80018ce <I2C_WaitOnTXEFlagUntilTimeout+0x8>
      if (((HAL_GetTick() - Tickstart) > Timeout) || (Timeout == 0U))
 80018e6:	f7ff fb6f 	bl	8000fc8 <HAL_GetTick>
 80018ea:	1b80      	subs	r0, r0, r6
 80018ec:	42a8      	cmp	r0, r5
 80018ee:	d801      	bhi.n	80018f4 <I2C_WaitOnTXEFlagUntilTimeout+0x2e>
 80018f0:	2d00      	cmp	r5, #0
 80018f2:	d1ec      	bne.n	80018ce <I2C_WaitOnTXEFlagUntilTimeout+0x8>
        hi2c->PreviousState       = I2C_STATE_NONE;
 80018f4:	2300      	movs	r3, #0
        hi2c->State               = HAL_I2C_STATE_READY;
 80018f6:	2220      	movs	r2, #32
        hi2c->PreviousState       = I2C_STATE_NONE;
 80018f8:	6323      	str	r3, [r4, #48]	; 0x30
        hi2c->State               = HAL_I2C_STATE_READY;
 80018fa:	f884 203d 	strb.w	r2, [r4, #61]	; 0x3d
        hi2c->Mode                = HAL_I2C_MODE_NONE;
 80018fe:	f884 303e 	strb.w	r3, [r4, #62]	; 0x3e
        hi2c->ErrorCode           |= HAL_I2C_ERROR_TIMEOUT;
 8001902:	6c22      	ldr	r2, [r4, #64]	; 0x40
        __HAL_UNLOCK(hi2c);
 8001904:	f884 303c 	strb.w	r3, [r4, #60]	; 0x3c
        hi2c->ErrorCode           |= HAL_I2C_ERROR_TIMEOUT;
 8001908:	f042 0220 	orr.w	r2, r2, #32
 800190c:	6422      	str	r2, [r4, #64]	; 0x40
      return HAL_ERROR;
 800190e:	2001      	movs	r0, #1
 8001910:	e7e2      	b.n	80018d8 <I2C_WaitOnTXEFlagUntilTimeout+0x12>
	...

08001914 <HAL_I2C_Init>:
{
 8001914:	b570      	push	{r4, r5, r6, lr}
  if (hi2c == NULL)
 8001916:	4604      	mov	r4, r0
 8001918:	b908      	cbnz	r0, 800191e <HAL_I2C_Init+0xa>
    return HAL_ERROR;
 800191a:	2001      	movs	r0, #1
}
 800191c:	bd70      	pop	{r4, r5, r6, pc}
  if (hi2c->State == HAL_I2C_STATE_RESET)
 800191e:	f890 303d 	ldrb.w	r3, [r0, #61]	; 0x3d
 8001922:	f003 02ff 	and.w	r2, r3, #255	; 0xff
 8001926:	b91b      	cbnz	r3, 8001930 <HAL_I2C_Init+0x1c>
    hi2c->Lock = HAL_UNLOCKED;
 8001928:	f880 203c 	strb.w	r2, [r0, #60]	; 0x3c
    HAL_I2C_MspInit(hi2c);
 800192c:	f001 ff16 	bl	800375c <HAL_I2C_MspInit>
  __HAL_I2C_DISABLE(hi2c);
 8001930:	6822      	ldr	r2, [r4, #0]
  hi2c->State = HAL_I2C_STATE_BUSY;
 8001932:	2324      	movs	r3, #36	; 0x24
 8001934:	f884 303d 	strb.w	r3, [r4, #61]	; 0x3d
  __HAL_I2C_DISABLE(hi2c);
 8001938:	6813      	ldr	r3, [r2, #0]
 800193a:	f023 0301 	bic.w	r3, r3, #1
 800193e:	6013      	str	r3, [r2, #0]
  pclk1 = HAL_RCC_GetPCLK1Freq();
 8001940:	f000 ff90 	bl	8002864 <HAL_RCC_GetPCLK1Freq>
  if (I2C_MIN_PCLK_FREQ(pclk1, hi2c->Init.ClockSpeed) == 1U)
 8001944:	4b3f      	ldr	r3, [pc, #252]	; (8001a44 <HAL_I2C_Init+0x130>)
 8001946:	6865      	ldr	r5, [r4, #4]
 8001948:	429d      	cmp	r5, r3
 800194a:	bf94      	ite	ls
 800194c:	4b3e      	ldrls	r3, [pc, #248]	; (8001a48 <HAL_I2C_Init+0x134>)
 800194e:	4b3f      	ldrhi	r3, [pc, #252]	; (8001a4c <HAL_I2C_Init+0x138>)
 8001950:	4298      	cmp	r0, r3
 8001952:	bf8c      	ite	hi
 8001954:	2300      	movhi	r3, #0
 8001956:	2301      	movls	r3, #1
 8001958:	2b00      	cmp	r3, #0
 800195a:	d1de      	bne.n	800191a <HAL_I2C_Init+0x6>
  MODIFY_REG(hi2c->Instance->CR2, I2C_CR2_FREQ, freqrange);
 800195c:	6822      	ldr	r2, [r4, #0]
  MODIFY_REG(hi2c->Instance->TRISE, I2C_TRISE_TRISE, I2C_RISE_TIME(freqrange, hi2c->Init.ClockSpeed));
 800195e:	4e39      	ldr	r6, [pc, #228]	; (8001a44 <HAL_I2C_Init+0x130>)
  MODIFY_REG(hi2c->Instance->CR2, I2C_CR2_FREQ, freqrange);
 8001960:	6851      	ldr	r1, [r2, #4]
  freqrange = I2C_FREQRANGE(pclk1);
 8001962:	4b3b      	ldr	r3, [pc, #236]	; (8001a50 <HAL_I2C_Init+0x13c>)
 8001964:	fbb0 f3f3 	udiv	r3, r0, r3
  MODIFY_REG(hi2c->Instance->CR2, I2C_CR2_FREQ, freqrange);
 8001968:	f021 013f 	bic.w	r1, r1, #63	; 0x3f
 800196c:	4319      	orrs	r1, r3
  MODIFY_REG(hi2c->Instance->TRISE, I2C_TRISE_TRISE, I2C_RISE_TIME(freqrange, hi2c->Init.ClockSpeed));
 800196e:	42b5      	cmp	r5, r6
  MODIFY_REG(hi2c->Instance->CR2, I2C_CR2_FREQ, freqrange);
 8001970:	6051      	str	r1, [r2, #4]
  MODIFY_REG(hi2c->Instance->TRISE, I2C_TRISE_TRISE, I2C_RISE_TIME(freqrange, hi2c->Init.ClockSpeed));
 8001972:	bf88      	it	hi
 8001974:	f44f 7696 	movhi.w	r6, #300	; 0x12c
 8001978:	6a11      	ldr	r1, [r2, #32]
 800197a:	bf88      	it	hi
 800197c:	4373      	mulhi	r3, r6
 800197e:	f021 013f 	bic.w	r1, r1, #63	; 0x3f
 8001982:	bf84      	itt	hi
 8001984:	f44f 767a 	movhi.w	r6, #1000	; 0x3e8
 8001988:	fbb3 f3f6 	udivhi	r3, r3, r6
 800198c:	3301      	adds	r3, #1
 800198e:	430b      	orrs	r3, r1
 8001990:	6213      	str	r3, [r2, #32]
  MODIFY_REG(hi2c->Instance->CCR, (I2C_CCR_FS | I2C_CCR_DUTY | I2C_CCR_CCR), I2C_SPEED(pclk1, hi2c->Init.ClockSpeed, hi2c->Init.DutyCycle));
 8001992:	69d1      	ldr	r1, [r2, #28]
 8001994:	1e43      	subs	r3, r0, #1
 8001996:	482b      	ldr	r0, [pc, #172]	; (8001a44 <HAL_I2C_Init+0x130>)
 8001998:	f421 414f 	bic.w	r1, r1, #52992	; 0xcf00
 800199c:	4285      	cmp	r5, r0
 800199e:	f021 01ff 	bic.w	r1, r1, #255	; 0xff
 80019a2:	d832      	bhi.n	8001a0a <HAL_I2C_Init+0xf6>
 80019a4:	006d      	lsls	r5, r5, #1
 80019a6:	f640 70fc 	movw	r0, #4092	; 0xffc
 80019aa:	fbb3 f3f5 	udiv	r3, r3, r5
 80019ae:	3301      	adds	r3, #1
 80019b0:	4203      	tst	r3, r0
 80019b2:	d042      	beq.n	8001a3a <HAL_I2C_Init+0x126>
 80019b4:	f3c3 030b 	ubfx	r3, r3, #0, #12
 80019b8:	4319      	orrs	r1, r3
 80019ba:	61d1      	str	r1, [r2, #28]
  MODIFY_REG(hi2c->Instance->CR1, (I2C_CR1_ENGC | I2C_CR1_NOSTRETCH), (hi2c->Init.GeneralCallMode | hi2c->Init.NoStretchMode));
 80019bc:	e9d4 3007 	ldrd	r3, r0, [r4, #28]
 80019c0:	6811      	ldr	r1, [r2, #0]
 80019c2:	4303      	orrs	r3, r0
 80019c4:	f021 01c0 	bic.w	r1, r1, #192	; 0xc0
 80019c8:	430b      	orrs	r3, r1
 80019ca:	6013      	str	r3, [r2, #0]
  MODIFY_REG(hi2c->Instance->OAR1, (I2C_OAR1_ADDMODE | I2C_OAR1_ADD8_9 | I2C_OAR1_ADD1_7 | I2C_OAR1_ADD0), (hi2c->Init.AddressingMode | hi2c->Init.OwnAddress1));
 80019cc:	6891      	ldr	r1, [r2, #8]
 80019ce:	e9d4 0303 	ldrd	r0, r3, [r4, #12]
 80019d2:	f421 4103 	bic.w	r1, r1, #33536	; 0x8300
 80019d6:	4303      	orrs	r3, r0
 80019d8:	f021 01ff 	bic.w	r1, r1, #255	; 0xff
 80019dc:	430b      	orrs	r3, r1
 80019de:	6093      	str	r3, [r2, #8]
  MODIFY_REG(hi2c->Instance->OAR2, (I2C_OAR2_ENDUAL | I2C_OAR2_ADD2), (hi2c->Init.DualAddressMode | hi2c->Init.OwnAddress2));
 80019e0:	e9d4 3005 	ldrd	r3, r0, [r4, #20]
 80019e4:	68d1      	ldr	r1, [r2, #12]
 80019e6:	4303      	orrs	r3, r0
 80019e8:	f021 01ff 	bic.w	r1, r1, #255	; 0xff
 80019ec:	430b      	orrs	r3, r1
 80019ee:	60d3      	str	r3, [r2, #12]
  __HAL_I2C_ENABLE(hi2c);
 80019f0:	6813      	ldr	r3, [r2, #0]
 80019f2:	f043 0301 	orr.w	r3, r3, #1
 80019f6:	6013      	str	r3, [r2, #0]
  hi2c->ErrorCode = HAL_I2C_ERROR_NONE;
 80019f8:	2000      	movs	r0, #0
  hi2c->State = HAL_I2C_STATE_READY;
 80019fa:	2320      	movs	r3, #32
  hi2c->ErrorCode = HAL_I2C_ERROR_NONE;
 80019fc:	6420      	str	r0, [r4, #64]	; 0x40
  hi2c->State = HAL_I2C_STATE_READY;
 80019fe:	f884 303d 	strb.w	r3, [r4, #61]	; 0x3d
  hi2c->PreviousState = I2C_STATE_NONE;
 8001a02:	6320      	str	r0, [r4, #48]	; 0x30
  hi2c->Mode = HAL_I2C_MODE_NONE;
 8001a04:	f884 003e 	strb.w	r0, [r4, #62]	; 0x3e
  return HAL_OK;
 8001a08:	e788      	b.n	800191c <HAL_I2C_Init+0x8>
  MODIFY_REG(hi2c->Instance->CCR, (I2C_CCR_FS | I2C_CCR_DUTY | I2C_CCR_CCR), I2C_SPEED(pclk1, hi2c->Init.ClockSpeed, hi2c->Init.DutyCycle));
 8001a0a:	68a0      	ldr	r0, [r4, #8]
 8001a0c:	b950      	cbnz	r0, 8001a24 <HAL_I2C_Init+0x110>
 8001a0e:	eb05 0545 	add.w	r5, r5, r5, lsl #1
 8001a12:	fbb3 f3f5 	udiv	r3, r3, r5
 8001a16:	3301      	adds	r3, #1
 8001a18:	f3c3 030b 	ubfx	r3, r3, #0, #12
 8001a1c:	b17b      	cbz	r3, 8001a3e <HAL_I2C_Init+0x12a>
 8001a1e:	f443 4300 	orr.w	r3, r3, #32768	; 0x8000
 8001a22:	e7c9      	b.n	80019b8 <HAL_I2C_Init+0xa4>
 8001a24:	2019      	movs	r0, #25
 8001a26:	4368      	muls	r0, r5
 8001a28:	fbb3 f3f0 	udiv	r3, r3, r0
 8001a2c:	3301      	adds	r3, #1
 8001a2e:	f3c3 030b 	ubfx	r3, r3, #0, #12
 8001a32:	b123      	cbz	r3, 8001a3e <HAL_I2C_Init+0x12a>
 8001a34:	f443 4340 	orr.w	r3, r3, #49152	; 0xc000
 8001a38:	e7be      	b.n	80019b8 <HAL_I2C_Init+0xa4>
 8001a3a:	2304      	movs	r3, #4
 8001a3c:	e7bc      	b.n	80019b8 <HAL_I2C_Init+0xa4>
 8001a3e:	2301      	movs	r3, #1
 8001a40:	e7ba      	b.n	80019b8 <HAL_I2C_Init+0xa4>
 8001a42:	bf00      	nop
 8001a44:	000186a0 	.word	0x000186a0
 8001a48:	001e847f 	.word	0x001e847f
 8001a4c:	003d08ff 	.word	0x003d08ff
 8001a50:	000f4240 	.word	0x000f4240

08001a54 <HAL_I2C_Master_Transmit>:
{
 8001a54:	e92d 43f0 	stmdb	sp!, {r4, r5, r6, r7, r8, r9, lr}
 8001a58:	4604      	mov	r4, r0
 8001a5a:	b085      	sub	sp, #20
 8001a5c:	4698      	mov	r8, r3
 8001a5e:	9f0c      	ldr	r7, [sp, #48]	; 0x30
 8001a60:	460d      	mov	r5, r1
 8001a62:	4691      	mov	r9, r2
  uint32_t tickstart = HAL_GetTick();
 8001a64:	f7ff fab0 	bl	8000fc8 <HAL_GetTick>
  if (hi2c->State == HAL_I2C_STATE_READY)
 8001a68:	f894 303d 	ldrb.w	r3, [r4, #61]	; 0x3d
 8001a6c:	2b20      	cmp	r3, #32
  uint32_t tickstart = HAL_GetTick();
 8001a6e:	4606      	mov	r6, r0
  if (hi2c->State == HAL_I2C_STATE_READY)
 8001a70:	d004      	beq.n	8001a7c <HAL_I2C_Master_Transmit+0x28>
    return HAL_BUSY;
 8001a72:	2502      	movs	r5, #2
}
 8001a74:	4628      	mov	r0, r5
 8001a76:	b005      	add	sp, #20
 8001a78:	e8bd 83f0 	ldmia.w	sp!, {r4, r5, r6, r7, r8, r9, pc}
    if (I2C_WaitOnFlagUntilTimeout(hi2c, I2C_FLAG_BUSY, SET, I2C_TIMEOUT_BUSY_FLAG, tickstart) != HAL_OK)
 8001a7c:	9000      	str	r0, [sp, #0]
 8001a7e:	495a      	ldr	r1, [pc, #360]	; (8001be8 <HAL_I2C_Master_Transmit+0x194>)
 8001a80:	2319      	movs	r3, #25
 8001a82:	2201      	movs	r2, #1
 8001a84:	4620      	mov	r0, r4
 8001a86:	f7ff fe5c 	bl	8001742 <I2C_WaitOnFlagUntilTimeout>
 8001a8a:	2800      	cmp	r0, #0
 8001a8c:	d1f1      	bne.n	8001a72 <HAL_I2C_Master_Transmit+0x1e>
    __HAL_LOCK(hi2c);
 8001a8e:	f894 303c 	ldrb.w	r3, [r4, #60]	; 0x3c
 8001a92:	2b01      	cmp	r3, #1
 8001a94:	d0ed      	beq.n	8001a72 <HAL_I2C_Master_Transmit+0x1e>
    if ((hi2c->Instance->CR1 & I2C_CR1_PE) != I2C_CR1_PE)
 8001a96:	6821      	ldr	r1, [r4, #0]
    __HAL_LOCK(hi2c);
 8001a98:	2301      	movs	r3, #1
 8001a9a:	f884 303c 	strb.w	r3, [r4, #60]	; 0x3c
    if ((hi2c->Instance->CR1 & I2C_CR1_PE) != I2C_CR1_PE)
 8001a9e:	680b      	ldr	r3, [r1, #0]
 8001aa0:	07db      	lsls	r3, r3, #31
      __HAL_I2C_ENABLE(hi2c);
 8001aa2:	bf5e      	ittt	pl
 8001aa4:	680b      	ldrpl	r3, [r1, #0]
 8001aa6:	f043 0301 	orrpl.w	r3, r3, #1
 8001aaa:	600b      	strpl	r3, [r1, #0]
    CLEAR_BIT(hi2c->Instance->CR1, I2C_CR1_POS);
 8001aac:	680b      	ldr	r3, [r1, #0]
 8001aae:	f423 6300 	bic.w	r3, r3, #2048	; 0x800
 8001ab2:	600b      	str	r3, [r1, #0]
    hi2c->State       = HAL_I2C_STATE_BUSY_TX;
 8001ab4:	2321      	movs	r3, #33	; 0x21
 8001ab6:	f884 303d 	strb.w	r3, [r4, #61]	; 0x3d
    hi2c->Mode        = HAL_I2C_MODE_MASTER;
 8001aba:	2310      	movs	r3, #16
 8001abc:	f884 303e 	strb.w	r3, [r4, #62]	; 0x3e
    hi2c->ErrorCode   = HAL_I2C_ERROR_NONE;
 8001ac0:	2300      	movs	r3, #0
 8001ac2:	6423      	str	r3, [r4, #64]	; 0x40
    hi2c->XferCount   = Size;
 8001ac4:	f8a4 802a 	strh.w	r8, [r4, #42]	; 0x2a
    hi2c->XferSize    = hi2c->XferCount;
 8001ac8:	8d63      	ldrh	r3, [r4, #42]	; 0x2a
 8001aca:	8523      	strh	r3, [r4, #40]	; 0x28
    hi2c->XferOptions = I2C_NO_OPTION_FRAME;
 8001acc:	4b47      	ldr	r3, [pc, #284]	; (8001bec <HAL_I2C_Master_Transmit+0x198>)
 8001ace:	62e3      	str	r3, [r4, #44]	; 0x2c
  uint32_t CurrentXferOptions = hi2c->XferOptions;
 8001ad0:	6ae3      	ldr	r3, [r4, #44]	; 0x2c
    hi2c->pBuffPtr    = pData;
 8001ad2:	f8c4 9024 	str.w	r9, [r4, #36]	; 0x24
  if ((CurrentXferOptions == I2C_FIRST_AND_LAST_FRAME) || (CurrentXferOptions == I2C_FIRST_FRAME) || (CurrentXferOptions == I2C_NO_OPTION_FRAME))
 8001ad6:	2b08      	cmp	r3, #8
 8001ad8:	d004      	beq.n	8001ae4 <HAL_I2C_Master_Transmit+0x90>
 8001ada:	2b01      	cmp	r3, #1
 8001adc:	d002      	beq.n	8001ae4 <HAL_I2C_Master_Transmit+0x90>
 8001ade:	f513 3f80 	cmn.w	r3, #65536	; 0x10000
 8001ae2:	d104      	bne.n	8001aee <HAL_I2C_Master_Transmit+0x9a>
    SET_BIT(hi2c->Instance->CR1, I2C_CR1_START);
 8001ae4:	680b      	ldr	r3, [r1, #0]
 8001ae6:	f443 7380 	orr.w	r3, r3, #256	; 0x100
 8001aea:	600b      	str	r3, [r1, #0]
 8001aec:	e002      	b.n	8001af4 <HAL_I2C_Master_Transmit+0xa0>
  else if (hi2c->PreviousState == I2C_STATE_MASTER_BUSY_RX)
 8001aee:	6b23      	ldr	r3, [r4, #48]	; 0x30
 8001af0:	2b12      	cmp	r3, #18
 8001af2:	d0f7      	beq.n	8001ae4 <HAL_I2C_Master_Transmit+0x90>
  if (I2C_WaitOnFlagUntilTimeout(hi2c, I2C_FLAG_SB, RESET, Timeout, Tickstart) != HAL_OK)
 8001af4:	9600      	str	r6, [sp, #0]
 8001af6:	463b      	mov	r3, r7
 8001af8:	2200      	movs	r2, #0
 8001afa:	f04f 1101 	mov.w	r1, #65537	; 0x10001
 8001afe:	4620      	mov	r0, r4
 8001b00:	f7ff fe1f 	bl	8001742 <I2C_WaitOnFlagUntilTimeout>
 8001b04:	b108      	cbz	r0, 8001b0a <HAL_I2C_Master_Transmit+0xb6>
        return HAL_ERROR;
 8001b06:	2501      	movs	r5, #1
 8001b08:	e7b4      	b.n	8001a74 <HAL_I2C_Master_Transmit+0x20>
  if (hi2c->Init.AddressingMode == I2C_ADDRESSINGMODE_7BIT)
 8001b0a:	6923      	ldr	r3, [r4, #16]
    hi2c->Instance->DR = I2C_7BIT_ADD_WRITE(DevAddress);
 8001b0c:	6822      	ldr	r2, [r4, #0]
  if (hi2c->Init.AddressingMode == I2C_ADDRESSINGMODE_7BIT)
 8001b0e:	f5b3 4f80 	cmp.w	r3, #16384	; 0x4000
 8001b12:	d121      	bne.n	8001b58 <HAL_I2C_Master_Transmit+0x104>
    hi2c->Instance->DR = I2C_7BIT_ADD_WRITE(DevAddress);
 8001b14:	f005 05fe 	and.w	r5, r5, #254	; 0xfe
 8001b18:	6115      	str	r5, [r2, #16]
  if (I2C_WaitOnMasterAddressFlagUntilTimeout(hi2c, I2C_FLAG_ADDR, Timeout, Tickstart) != HAL_OK)
 8001b1a:	4935      	ldr	r1, [pc, #212]	; (8001bf0 <HAL_I2C_Master_Transmit+0x19c>)
 8001b1c:	4633      	mov	r3, r6
 8001b1e:	463a      	mov	r2, r7
 8001b20:	4620      	mov	r0, r4
 8001b22:	f7ff fe40 	bl	80017a6 <I2C_WaitOnMasterAddressFlagUntilTimeout>
 8001b26:	4605      	mov	r5, r0
 8001b28:	2800      	cmp	r0, #0
 8001b2a:	d1ec      	bne.n	8001b06 <HAL_I2C_Master_Transmit+0xb2>
    __HAL_I2C_CLEAR_ADDRFLAG(hi2c);
 8001b2c:	6823      	ldr	r3, [r4, #0]
 8001b2e:	9003      	str	r0, [sp, #12]
 8001b30:	695a      	ldr	r2, [r3, #20]
 8001b32:	9203      	str	r2, [sp, #12]
 8001b34:	699b      	ldr	r3, [r3, #24]
 8001b36:	9303      	str	r3, [sp, #12]
 8001b38:	9b03      	ldr	r3, [sp, #12]
    while (hi2c->XferSize > 0U)
 8001b3a:	8d23      	ldrh	r3, [r4, #40]	; 0x28
 8001b3c:	b9f3      	cbnz	r3, 8001b7c <HAL_I2C_Master_Transmit+0x128>
    SET_BIT(hi2c->Instance->CR1, I2C_CR1_STOP);
 8001b3e:	6821      	ldr	r1, [r4, #0]
 8001b40:	680a      	ldr	r2, [r1, #0]
 8001b42:	f442 7200 	orr.w	r2, r2, #512	; 0x200
 8001b46:	600a      	str	r2, [r1, #0]
    hi2c->State = HAL_I2C_STATE_READY;
 8001b48:	2220      	movs	r2, #32
 8001b4a:	f884 203d 	strb.w	r2, [r4, #61]	; 0x3d
    __HAL_UNLOCK(hi2c);
 8001b4e:	f884 303c 	strb.w	r3, [r4, #60]	; 0x3c
    hi2c->Mode = HAL_I2C_MODE_NONE;
 8001b52:	f884 303e 	strb.w	r3, [r4, #62]	; 0x3e
    return HAL_OK;
 8001b56:	e78d      	b.n	8001a74 <HAL_I2C_Master_Transmit+0x20>
    hi2c->Instance->DR = I2C_10BIT_HEADER_WRITE(DevAddress);
 8001b58:	11eb      	asrs	r3, r5, #7
 8001b5a:	f003 0306 	and.w	r3, r3, #6
 8001b5e:	f043 03f0 	orr.w	r3, r3, #240	; 0xf0
 8001b62:	6113      	str	r3, [r2, #16]
    if (I2C_WaitOnMasterAddressFlagUntilTimeout(hi2c, I2C_FLAG_ADD10, Timeout, Tickstart) != HAL_OK)
 8001b64:	4923      	ldr	r1, [pc, #140]	; (8001bf4 <HAL_I2C_Master_Transmit+0x1a0>)
 8001b66:	4633      	mov	r3, r6
 8001b68:	463a      	mov	r2, r7
 8001b6a:	4620      	mov	r0, r4
 8001b6c:	f7ff fe1b 	bl	80017a6 <I2C_WaitOnMasterAddressFlagUntilTimeout>
 8001b70:	2800      	cmp	r0, #0
 8001b72:	d1c8      	bne.n	8001b06 <HAL_I2C_Master_Transmit+0xb2>
    hi2c->Instance->DR = I2C_10BIT_ADDRESS(DevAddress);
 8001b74:	6823      	ldr	r3, [r4, #0]
 8001b76:	b2ed      	uxtb	r5, r5
 8001b78:	611d      	str	r5, [r3, #16]
 8001b7a:	e7ce      	b.n	8001b1a <HAL_I2C_Master_Transmit+0xc6>
      if (I2C_WaitOnTXEFlagUntilTimeout(hi2c, Timeout, tickstart) != HAL_OK)
 8001b7c:	4632      	mov	r2, r6
 8001b7e:	4639      	mov	r1, r7
 8001b80:	4620      	mov	r0, r4
 8001b82:	f7ff fea0 	bl	80018c6 <I2C_WaitOnTXEFlagUntilTimeout>
 8001b86:	b140      	cbz	r0, 8001b9a <HAL_I2C_Master_Transmit+0x146>
        if (hi2c->ErrorCode == HAL_I2C_ERROR_AF)
 8001b88:	6c23      	ldr	r3, [r4, #64]	; 0x40
 8001b8a:	2b04      	cmp	r3, #4
          SET_BIT(hi2c->Instance->CR1, I2C_CR1_STOP);
 8001b8c:	bf01      	itttt	eq
 8001b8e:	6822      	ldreq	r2, [r4, #0]
 8001b90:	6813      	ldreq	r3, [r2, #0]
 8001b92:	f443 7300 	orreq.w	r3, r3, #512	; 0x200
 8001b96:	6013      	streq	r3, [r2, #0]
 8001b98:	e7b5      	b.n	8001b06 <HAL_I2C_Master_Transmit+0xb2>
      hi2c->Instance->DR = *hi2c->pBuffPtr;
 8001b9a:	6a63      	ldr	r3, [r4, #36]	; 0x24
 8001b9c:	6820      	ldr	r0, [r4, #0]
 8001b9e:	461a      	mov	r2, r3
 8001ba0:	f812 1b01 	ldrb.w	r1, [r2], #1
 8001ba4:	6101      	str	r1, [r0, #16]
      hi2c->pBuffPtr++;
 8001ba6:	6262      	str	r2, [r4, #36]	; 0x24
      hi2c->XferCount--;
 8001ba8:	8d62      	ldrh	r2, [r4, #42]	; 0x2a
 8001baa:	3a01      	subs	r2, #1
 8001bac:	b292      	uxth	r2, r2
 8001bae:	8562      	strh	r2, [r4, #42]	; 0x2a
      hi2c->XferSize--;
 8001bb0:	8d22      	ldrh	r2, [r4, #40]	; 0x28
      if ((__HAL_I2C_GET_FLAG(hi2c, I2C_FLAG_BTF) == SET) && (hi2c->XferSize != 0U))
 8001bb2:	f8d0 c014 	ldr.w	ip, [r0, #20]
      hi2c->XferSize--;
 8001bb6:	1e51      	subs	r1, r2, #1
 8001bb8:	b289      	uxth	r1, r1
      if ((__HAL_I2C_GET_FLAG(hi2c, I2C_FLAG_BTF) == SET) && (hi2c->XferSize != 0U))
 8001bba:	f01c 0f04 	tst.w	ip, #4
      hi2c->XferSize--;
 8001bbe:	8521      	strh	r1, [r4, #40]	; 0x28
      if ((__HAL_I2C_GET_FLAG(hi2c, I2C_FLAG_BTF) == SET) && (hi2c->XferSize != 0U))
 8001bc0:	d00a      	beq.n	8001bd8 <HAL_I2C_Master_Transmit+0x184>
 8001bc2:	b149      	cbz	r1, 8001bd8 <HAL_I2C_Master_Transmit+0x184>
        hi2c->Instance->DR = *hi2c->pBuffPtr;
 8001bc4:	7859      	ldrb	r1, [r3, #1]
 8001bc6:	6101      	str	r1, [r0, #16]
        hi2c->pBuffPtr++;
 8001bc8:	3302      	adds	r3, #2
 8001bca:	6263      	str	r3, [r4, #36]	; 0x24
        hi2c->XferCount--;
 8001bcc:	8d63      	ldrh	r3, [r4, #42]	; 0x2a
 8001bce:	3b01      	subs	r3, #1
 8001bd0:	b29b      	uxth	r3, r3
        hi2c->XferSize--;
 8001bd2:	3a02      	subs	r2, #2
        hi2c->XferCount--;
 8001bd4:	8563      	strh	r3, [r4, #42]	; 0x2a
        hi2c->XferSize--;
 8001bd6:	8522      	strh	r2, [r4, #40]	; 0x28
      if (I2C_WaitOnBTFFlagUntilTimeout(hi2c, Timeout, tickstart) != HAL_OK)
 8001bd8:	4632      	mov	r2, r6
 8001bda:	4639      	mov	r1, r7
 8001bdc:	4620      	mov	r0, r4
 8001bde:	f7ff fe4c 	bl	800187a <I2C_WaitOnBTFFlagUntilTimeout>
 8001be2:	2800      	cmp	r0, #0
 8001be4:	d0a9      	beq.n	8001b3a <HAL_I2C_Master_Transmit+0xe6>
 8001be6:	e7cf      	b.n	8001b88 <HAL_I2C_Master_Transmit+0x134>
 8001be8:	00100002 	.word	0x00100002
 8001bec:	ffff0000 	.word	0xffff0000
 8001bf0:	00010002 	.word	0x00010002
 8001bf4:	00010008 	.word	0x00010008

08001bf8 <HAL_I2C_Master_Receive>:
{
 8001bf8:	e92d 43f0 	stmdb	sp!, {r4, r5, r6, r7, r8, r9, lr}
 8001bfc:	4604      	mov	r4, r0
 8001bfe:	b089      	sub	sp, #36	; 0x24
 8001c00:	4698      	mov	r8, r3
 8001c02:	9f10      	ldr	r7, [sp, #64]	; 0x40
 8001c04:	460e      	mov	r6, r1
 8001c06:	4691      	mov	r9, r2
  uint32_t tickstart = HAL_GetTick();
 8001c08:	f7ff f9de 	bl	8000fc8 <HAL_GetTick>
  if (hi2c->State == HAL_I2C_STATE_READY)
 8001c0c:	f894 303d 	ldrb.w	r3, [r4, #61]	; 0x3d
 8001c10:	2b20      	cmp	r3, #32
  uint32_t tickstart = HAL_GetTick();
 8001c12:	4605      	mov	r5, r0
  if (hi2c->State == HAL_I2C_STATE_READY)
 8001c14:	d004      	beq.n	8001c20 <HAL_I2C_Master_Receive+0x28>
    return HAL_BUSY;
 8001c16:	2602      	movs	r6, #2
}
 8001c18:	4630      	mov	r0, r6
 8001c1a:	b009      	add	sp, #36	; 0x24
 8001c1c:	e8bd 83f0 	ldmia.w	sp!, {r4, r5, r6, r7, r8, r9, pc}
    if (I2C_WaitOnFlagUntilTimeout(hi2c, I2C_FLAG_BUSY, SET, I2C_TIMEOUT_BUSY_FLAG, tickstart) != HAL_OK)
 8001c20:	9000      	str	r0, [sp, #0]
 8001c22:	4997      	ldr	r1, [pc, #604]	; (8001e80 <HAL_I2C_Master_Receive+0x288>)
 8001c24:	2319      	movs	r3, #25
 8001c26:	2201      	movs	r2, #1
 8001c28:	4620      	mov	r0, r4
 8001c2a:	f7ff fd8a 	bl	8001742 <I2C_WaitOnFlagUntilTimeout>
 8001c2e:	2800      	cmp	r0, #0
 8001c30:	d1f1      	bne.n	8001c16 <HAL_I2C_Master_Receive+0x1e>
    __HAL_LOCK(hi2c);
 8001c32:	f894 303c 	ldrb.w	r3, [r4, #60]	; 0x3c
 8001c36:	2b01      	cmp	r3, #1
 8001c38:	d0ed      	beq.n	8001c16 <HAL_I2C_Master_Receive+0x1e>
    if ((hi2c->Instance->CR1 & I2C_CR1_PE) != I2C_CR1_PE)
 8001c3a:	6821      	ldr	r1, [r4, #0]
    __HAL_LOCK(hi2c);
 8001c3c:	2301      	movs	r3, #1
 8001c3e:	f884 303c 	strb.w	r3, [r4, #60]	; 0x3c
    if ((hi2c->Instance->CR1 & I2C_CR1_PE) != I2C_CR1_PE)
 8001c42:	680b      	ldr	r3, [r1, #0]
 8001c44:	07d8      	lsls	r0, r3, #31
      __HAL_I2C_ENABLE(hi2c);
 8001c46:	bf5e      	ittt	pl
 8001c48:	680b      	ldrpl	r3, [r1, #0]
 8001c4a:	f043 0301 	orrpl.w	r3, r3, #1
 8001c4e:	600b      	strpl	r3, [r1, #0]
    CLEAR_BIT(hi2c->Instance->CR1, I2C_CR1_POS);
 8001c50:	680b      	ldr	r3, [r1, #0]
 8001c52:	f423 6300 	bic.w	r3, r3, #2048	; 0x800
 8001c56:	600b      	str	r3, [r1, #0]
    hi2c->State       = HAL_I2C_STATE_BUSY_RX;
 8001c58:	2322      	movs	r3, #34	; 0x22
 8001c5a:	f884 303d 	strb.w	r3, [r4, #61]	; 0x3d
    hi2c->Mode        = HAL_I2C_MODE_MASTER;
 8001c5e:	2310      	movs	r3, #16
 8001c60:	f884 303e 	strb.w	r3, [r4, #62]	; 0x3e
    hi2c->ErrorCode   = HAL_I2C_ERROR_NONE;
 8001c64:	2300      	movs	r3, #0
 8001c66:	6423      	str	r3, [r4, #64]	; 0x40
    hi2c->XferCount   = Size;
 8001c68:	f8a4 802a 	strh.w	r8, [r4, #42]	; 0x2a
    hi2c->XferSize    = hi2c->XferCount;
 8001c6c:	8d63      	ldrh	r3, [r4, #42]	; 0x2a
 8001c6e:	8523      	strh	r3, [r4, #40]	; 0x28
    hi2c->XferOptions = I2C_NO_OPTION_FRAME;
 8001c70:	4b84      	ldr	r3, [pc, #528]	; (8001e84 <HAL_I2C_Master_Receive+0x28c>)
 8001c72:	62e3      	str	r3, [r4, #44]	; 0x2c
  uint32_t CurrentXferOptions = hi2c->XferOptions;
 8001c74:	6ae3      	ldr	r3, [r4, #44]	; 0x2c
  SET_BIT(hi2c->Instance->CR1, I2C_CR1_ACK);
 8001c76:	680a      	ldr	r2, [r1, #0]
    hi2c->pBuffPtr    = pData;
 8001c78:	f8c4 9024 	str.w	r9, [r4, #36]	; 0x24
  SET_BIT(hi2c->Instance->CR1, I2C_CR1_ACK);
 8001c7c:	f442 6280 	orr.w	r2, r2, #1024	; 0x400
  if ((CurrentXferOptions == I2C_FIRST_AND_LAST_FRAME) || (CurrentXferOptions == I2C_FIRST_FRAME)  || (CurrentXferOptions == I2C_NO_OPTION_FRAME))
 8001c80:	2b08      	cmp	r3, #8
  SET_BIT(hi2c->Instance->CR1, I2C_CR1_ACK);
 8001c82:	600a      	str	r2, [r1, #0]
  if ((CurrentXferOptions == I2C_FIRST_AND_LAST_FRAME) || (CurrentXferOptions == I2C_FIRST_FRAME)  || (CurrentXferOptions == I2C_NO_OPTION_FRAME))
 8001c84:	d004      	beq.n	8001c90 <HAL_I2C_Master_Receive+0x98>
 8001c86:	2b01      	cmp	r3, #1
 8001c88:	d002      	beq.n	8001c90 <HAL_I2C_Master_Receive+0x98>
 8001c8a:	f513 3f80 	cmn.w	r3, #65536	; 0x10000
 8001c8e:	d104      	bne.n	8001c9a <HAL_I2C_Master_Receive+0xa2>
    SET_BIT(hi2c->Instance->CR1, I2C_CR1_START);
 8001c90:	680b      	ldr	r3, [r1, #0]
 8001c92:	f443 7380 	orr.w	r3, r3, #256	; 0x100
 8001c96:	600b      	str	r3, [r1, #0]
 8001c98:	e002      	b.n	8001ca0 <HAL_I2C_Master_Receive+0xa8>
  else if (hi2c->PreviousState == I2C_STATE_MASTER_BUSY_TX)
 8001c9a:	6b23      	ldr	r3, [r4, #48]	; 0x30
 8001c9c:	2b11      	cmp	r3, #17
 8001c9e:	d0f7      	beq.n	8001c90 <HAL_I2C_Master_Receive+0x98>
  if (I2C_WaitOnFlagUntilTimeout(hi2c, I2C_FLAG_SB, RESET, Timeout, Tickstart) != HAL_OK)
 8001ca0:	9500      	str	r5, [sp, #0]
 8001ca2:	463b      	mov	r3, r7
 8001ca4:	2200      	movs	r2, #0
 8001ca6:	f04f 1101 	mov.w	r1, #65537	; 0x10001
 8001caa:	4620      	mov	r0, r4
 8001cac:	f7ff fd49 	bl	8001742 <I2C_WaitOnFlagUntilTimeout>
 8001cb0:	b108      	cbz	r0, 8001cb6 <HAL_I2C_Master_Receive+0xbe>
      return HAL_ERROR;
 8001cb2:	2601      	movs	r6, #1
 8001cb4:	e7b0      	b.n	8001c18 <HAL_I2C_Master_Receive+0x20>
  if (hi2c->Init.AddressingMode == I2C_ADDRESSINGMODE_7BIT)
 8001cb6:	6922      	ldr	r2, [r4, #16]
    hi2c->Instance->DR = I2C_7BIT_ADD_READ(DevAddress);
 8001cb8:	6823      	ldr	r3, [r4, #0]
  if (hi2c->Init.AddressingMode == I2C_ADDRESSINGMODE_7BIT)
 8001cba:	f5b2 4f80 	cmp.w	r2, #16384	; 0x4000
 8001cbe:	d127      	bne.n	8001d10 <HAL_I2C_Master_Receive+0x118>
    hi2c->Instance->DR = I2C_7BIT_ADD_READ(DevAddress);
 8001cc0:	f046 0601 	orr.w	r6, r6, #1
 8001cc4:	b2f6      	uxtb	r6, r6
 8001cc6:	611e      	str	r6, [r3, #16]
  if (I2C_WaitOnMasterAddressFlagUntilTimeout(hi2c, I2C_FLAG_ADDR, Timeout, Tickstart) != HAL_OK)
 8001cc8:	496f      	ldr	r1, [pc, #444]	; (8001e88 <HAL_I2C_Master_Receive+0x290>)
 8001cca:	462b      	mov	r3, r5
 8001ccc:	463a      	mov	r2, r7
 8001cce:	4620      	mov	r0, r4
 8001cd0:	f7ff fd69 	bl	80017a6 <I2C_WaitOnMasterAddressFlagUntilTimeout>
 8001cd4:	4606      	mov	r6, r0
 8001cd6:	2800      	cmp	r0, #0
 8001cd8:	d1eb      	bne.n	8001cb2 <HAL_I2C_Master_Receive+0xba>
    if (hi2c->XferSize == 0U)
 8001cda:	8d23      	ldrh	r3, [r4, #40]	; 0x28
      __HAL_I2C_CLEAR_ADDRFLAG(hi2c);
 8001cdc:	6821      	ldr	r1, [r4, #0]
    if (hi2c->XferSize == 0U)
 8001cde:	2b00      	cmp	r3, #0
 8001ce0:	d14a      	bne.n	8001d78 <HAL_I2C_Master_Receive+0x180>
      __HAL_I2C_CLEAR_ADDRFLAG(hi2c);
 8001ce2:	9003      	str	r0, [sp, #12]
 8001ce4:	694b      	ldr	r3, [r1, #20]
 8001ce6:	9303      	str	r3, [sp, #12]
 8001ce8:	698b      	ldr	r3, [r1, #24]
 8001cea:	9303      	str	r3, [sp, #12]
 8001cec:	9b03      	ldr	r3, [sp, #12]
      SET_BIT(hi2c->Instance->CR1, I2C_CR1_STOP);
 8001cee:	680b      	ldr	r3, [r1, #0]
 8001cf0:	f443 7300 	orr.w	r3, r3, #512	; 0x200
 8001cf4:	600b      	str	r3, [r1, #0]
          if (I2C_WaitOnFlagUntilTimeout(hi2c, I2C_FLAG_BTF, RESET, Timeout, tickstart) != HAL_OK)
 8001cf6:	f8df 8198 	ldr.w	r8, [pc, #408]	; 8001e90 <HAL_I2C_Master_Receive+0x298>
    while (hi2c->XferSize > 0U)
 8001cfa:	8d23      	ldrh	r3, [r4, #40]	; 0x28
 8001cfc:	2b00      	cmp	r3, #0
 8001cfe:	d163      	bne.n	8001dc8 <HAL_I2C_Master_Receive+0x1d0>
    hi2c->State = HAL_I2C_STATE_READY;
 8001d00:	2220      	movs	r2, #32
 8001d02:	f884 203d 	strb.w	r2, [r4, #61]	; 0x3d
    __HAL_UNLOCK(hi2c);
 8001d06:	f884 303c 	strb.w	r3, [r4, #60]	; 0x3c
    hi2c->Mode = HAL_I2C_MODE_NONE;
 8001d0a:	f884 303e 	strb.w	r3, [r4, #62]	; 0x3e
    return HAL_OK;
 8001d0e:	e783      	b.n	8001c18 <HAL_I2C_Master_Receive+0x20>
    hi2c->Instance->DR = I2C_10BIT_HEADER_WRITE(DevAddress);
 8001d10:	ea4f 18e6 	mov.w	r8, r6, asr #7
 8001d14:	f008 0806 	and.w	r8, r8, #6
 8001d18:	f048 02f0 	orr.w	r2, r8, #240	; 0xf0
 8001d1c:	611a      	str	r2, [r3, #16]
    if (I2C_WaitOnMasterAddressFlagUntilTimeout(hi2c, I2C_FLAG_ADD10, Timeout, Tickstart) != HAL_OK)
 8001d1e:	495b      	ldr	r1, [pc, #364]	; (8001e8c <HAL_I2C_Master_Receive+0x294>)
 8001d20:	462b      	mov	r3, r5
 8001d22:	463a      	mov	r2, r7
 8001d24:	4620      	mov	r0, r4
 8001d26:	f7ff fd3e 	bl	80017a6 <I2C_WaitOnMasterAddressFlagUntilTimeout>
 8001d2a:	2800      	cmp	r0, #0
 8001d2c:	d1c1      	bne.n	8001cb2 <HAL_I2C_Master_Receive+0xba>
    hi2c->Instance->DR = I2C_10BIT_ADDRESS(DevAddress);
 8001d2e:	6823      	ldr	r3, [r4, #0]
    if (I2C_WaitOnMasterAddressFlagUntilTimeout(hi2c, I2C_FLAG_ADDR, Timeout, Tickstart) != HAL_OK)
 8001d30:	4955      	ldr	r1, [pc, #340]	; (8001e88 <HAL_I2C_Master_Receive+0x290>)
    hi2c->Instance->DR = I2C_10BIT_ADDRESS(DevAddress);
 8001d32:	b2f6      	uxtb	r6, r6
 8001d34:	611e      	str	r6, [r3, #16]
    if (I2C_WaitOnMasterAddressFlagUntilTimeout(hi2c, I2C_FLAG_ADDR, Timeout, Tickstart) != HAL_OK)
 8001d36:	463a      	mov	r2, r7
 8001d38:	462b      	mov	r3, r5
 8001d3a:	4620      	mov	r0, r4
 8001d3c:	f7ff fd33 	bl	80017a6 <I2C_WaitOnMasterAddressFlagUntilTimeout>
 8001d40:	4602      	mov	r2, r0
 8001d42:	2800      	cmp	r0, #0
 8001d44:	d1b5      	bne.n	8001cb2 <HAL_I2C_Master_Receive+0xba>
    __HAL_I2C_CLEAR_ADDRFLAG(hi2c);
 8001d46:	6823      	ldr	r3, [r4, #0]
 8001d48:	9007      	str	r0, [sp, #28]
 8001d4a:	6959      	ldr	r1, [r3, #20]
 8001d4c:	9107      	str	r1, [sp, #28]
 8001d4e:	6999      	ldr	r1, [r3, #24]
 8001d50:	9107      	str	r1, [sp, #28]
 8001d52:	9907      	ldr	r1, [sp, #28]
    SET_BIT(hi2c->Instance->CR1, I2C_CR1_START);
 8001d54:	6819      	ldr	r1, [r3, #0]
 8001d56:	f441 7180 	orr.w	r1, r1, #256	; 0x100
 8001d5a:	6019      	str	r1, [r3, #0]
    if (I2C_WaitOnFlagUntilTimeout(hi2c, I2C_FLAG_SB, RESET, Timeout, Tickstart) != HAL_OK)
 8001d5c:	4620      	mov	r0, r4
 8001d5e:	9500      	str	r5, [sp, #0]
 8001d60:	463b      	mov	r3, r7
 8001d62:	f04f 1101 	mov.w	r1, #65537	; 0x10001
 8001d66:	f7ff fcec 	bl	8001742 <I2C_WaitOnFlagUntilTimeout>
 8001d6a:	2800      	cmp	r0, #0
 8001d6c:	d1a1      	bne.n	8001cb2 <HAL_I2C_Master_Receive+0xba>
    hi2c->Instance->DR = I2C_10BIT_HEADER_READ(DevAddress);
 8001d6e:	6822      	ldr	r2, [r4, #0]
 8001d70:	f048 03f1 	orr.w	r3, r8, #241	; 0xf1
 8001d74:	6113      	str	r3, [r2, #16]
 8001d76:	e7a7      	b.n	8001cc8 <HAL_I2C_Master_Receive+0xd0>
    else if (hi2c->XferSize == 1U)
 8001d78:	2b01      	cmp	r3, #1
 8001d7a:	d10a      	bne.n	8001d92 <HAL_I2C_Master_Receive+0x19a>
      CLEAR_BIT(hi2c->Instance->CR1, I2C_CR1_ACK);
 8001d7c:	680b      	ldr	r3, [r1, #0]
 8001d7e:	f423 6380 	bic.w	r3, r3, #1024	; 0x400
 8001d82:	600b      	str	r3, [r1, #0]
      __HAL_I2C_CLEAR_ADDRFLAG(hi2c);
 8001d84:	9004      	str	r0, [sp, #16]
 8001d86:	694b      	ldr	r3, [r1, #20]
 8001d88:	9304      	str	r3, [sp, #16]
 8001d8a:	698b      	ldr	r3, [r1, #24]
 8001d8c:	9304      	str	r3, [sp, #16]
 8001d8e:	9b04      	ldr	r3, [sp, #16]
 8001d90:	e7ad      	b.n	8001cee <HAL_I2C_Master_Receive+0xf6>
    else if (hi2c->XferSize == 2U)
 8001d92:	2b02      	cmp	r3, #2
      CLEAR_BIT(hi2c->Instance->CR1, I2C_CR1_ACK);
 8001d94:	680b      	ldr	r3, [r1, #0]
    else if (hi2c->XferSize == 2U)
 8001d96:	d10d      	bne.n	8001db4 <HAL_I2C_Master_Receive+0x1bc>
      CLEAR_BIT(hi2c->Instance->CR1, I2C_CR1_ACK);
 8001d98:	f423 6380 	bic.w	r3, r3, #1024	; 0x400
 8001d9c:	600b      	str	r3, [r1, #0]
      SET_BIT(hi2c->Instance->CR1, I2C_CR1_POS);
 8001d9e:	680b      	ldr	r3, [r1, #0]
 8001da0:	f443 6300 	orr.w	r3, r3, #2048	; 0x800
 8001da4:	600b      	str	r3, [r1, #0]
      __HAL_I2C_CLEAR_ADDRFLAG(hi2c);
 8001da6:	9005      	str	r0, [sp, #20]
 8001da8:	694b      	ldr	r3, [r1, #20]
 8001daa:	9305      	str	r3, [sp, #20]
 8001dac:	698b      	ldr	r3, [r1, #24]
 8001dae:	9305      	str	r3, [sp, #20]
 8001db0:	9b05      	ldr	r3, [sp, #20]
 8001db2:	e7a0      	b.n	8001cf6 <HAL_I2C_Master_Receive+0xfe>
      SET_BIT(hi2c->Instance->CR1, I2C_CR1_ACK);
 8001db4:	f443 6380 	orr.w	r3, r3, #1024	; 0x400
 8001db8:	600b      	str	r3, [r1, #0]
      __HAL_I2C_CLEAR_ADDRFLAG(hi2c);
 8001dba:	9006      	str	r0, [sp, #24]
 8001dbc:	694b      	ldr	r3, [r1, #20]
 8001dbe:	9306      	str	r3, [sp, #24]
 8001dc0:	698b      	ldr	r3, [r1, #24]
 8001dc2:	9306      	str	r3, [sp, #24]
 8001dc4:	9b06      	ldr	r3, [sp, #24]
 8001dc6:	e796      	b.n	8001cf6 <HAL_I2C_Master_Receive+0xfe>
      if (hi2c->XferSize <= 3U)
 8001dc8:	2b03      	cmp	r3, #3
 8001dca:	d863      	bhi.n	8001e94 <HAL_I2C_Master_Receive+0x29c>
        if (hi2c->XferSize == 1U)
 8001dcc:	2b01      	cmp	r3, #1
 8001dce:	d116      	bne.n	8001dfe <HAL_I2C_Master_Receive+0x206>
          if (I2C_WaitOnRXNEFlagUntilTimeout(hi2c, Timeout, tickstart) != HAL_OK)
 8001dd0:	462a      	mov	r2, r5
 8001dd2:	4639      	mov	r1, r7
 8001dd4:	4620      	mov	r0, r4
 8001dd6:	f7ff fd21 	bl	800181c <I2C_WaitOnRXNEFlagUntilTimeout>
 8001dda:	2800      	cmp	r0, #0
 8001ddc:	f47f af69 	bne.w	8001cb2 <HAL_I2C_Master_Receive+0xba>
          *hi2c->pBuffPtr = (uint8_t)hi2c->Instance->DR;
 8001de0:	6823      	ldr	r3, [r4, #0]
 8001de2:	691a      	ldr	r2, [r3, #16]
 8001de4:	6a63      	ldr	r3, [r4, #36]	; 0x24
 8001de6:	701a      	strb	r2, [r3, #0]
          hi2c->pBuffPtr++;
 8001de8:	6a63      	ldr	r3, [r4, #36]	; 0x24
 8001dea:	3301      	adds	r3, #1
 8001dec:	6263      	str	r3, [r4, #36]	; 0x24
          hi2c->XferSize--;
 8001dee:	8d23      	ldrh	r3, [r4, #40]	; 0x28
 8001df0:	3b01      	subs	r3, #1
 8001df2:	8523      	strh	r3, [r4, #40]	; 0x28
          hi2c->XferCount--;
 8001df4:	8d63      	ldrh	r3, [r4, #42]	; 0x2a
 8001df6:	3b01      	subs	r3, #1
 8001df8:	b29b      	uxth	r3, r3
 8001dfa:	8563      	strh	r3, [r4, #42]	; 0x2a
 8001dfc:	e77d      	b.n	8001cfa <HAL_I2C_Master_Receive+0x102>
        else if (hi2c->XferSize == 2U)
 8001dfe:	2b02      	cmp	r3, #2
          if (I2C_WaitOnFlagUntilTimeout(hi2c, I2C_FLAG_BTF, RESET, Timeout, tickstart) != HAL_OK)
 8001e00:	9500      	str	r5, [sp, #0]
 8001e02:	463b      	mov	r3, r7
 8001e04:	f04f 0200 	mov.w	r2, #0
 8001e08:	4641      	mov	r1, r8
 8001e0a:	4620      	mov	r0, r4
        else if (hi2c->XferSize == 2U)
 8001e0c:	d11a      	bne.n	8001e44 <HAL_I2C_Master_Receive+0x24c>
          if (I2C_WaitOnFlagUntilTimeout(hi2c, I2C_FLAG_BTF, RESET, Timeout, tickstart) != HAL_OK)
 8001e0e:	f7ff fc98 	bl	8001742 <I2C_WaitOnFlagUntilTimeout>
 8001e12:	2800      	cmp	r0, #0
 8001e14:	f47f af4d 	bne.w	8001cb2 <HAL_I2C_Master_Receive+0xba>
          SET_BIT(hi2c->Instance->CR1, I2C_CR1_STOP);
 8001e18:	6823      	ldr	r3, [r4, #0]
 8001e1a:	681a      	ldr	r2, [r3, #0]
 8001e1c:	f442 7200 	orr.w	r2, r2, #512	; 0x200
 8001e20:	601a      	str	r2, [r3, #0]
          *hi2c->pBuffPtr = (uint8_t)hi2c->Instance->DR;
 8001e22:	691a      	ldr	r2, [r3, #16]
 8001e24:	6a63      	ldr	r3, [r4, #36]	; 0x24
 8001e26:	701a      	strb	r2, [r3, #0]
          hi2c->pBuffPtr++;
 8001e28:	6a62      	ldr	r2, [r4, #36]	; 0x24
 8001e2a:	1c53      	adds	r3, r2, #1
 8001e2c:	6263      	str	r3, [r4, #36]	; 0x24
          hi2c->XferSize--;
 8001e2e:	8d23      	ldrh	r3, [r4, #40]	; 0x28
 8001e30:	3b01      	subs	r3, #1
 8001e32:	8523      	strh	r3, [r4, #40]	; 0x28
          hi2c->XferCount--;
 8001e34:	8d63      	ldrh	r3, [r4, #42]	; 0x2a
 8001e36:	3b01      	subs	r3, #1
 8001e38:	b29b      	uxth	r3, r3
 8001e3a:	8563      	strh	r3, [r4, #42]	; 0x2a
          *hi2c->pBuffPtr = (uint8_t)hi2c->Instance->DR;
 8001e3c:	6823      	ldr	r3, [r4, #0]
          *hi2c->pBuffPtr = (uint8_t)hi2c->Instance->DR;
 8001e3e:	691b      	ldr	r3, [r3, #16]
 8001e40:	7053      	strb	r3, [r2, #1]
 8001e42:	e7d1      	b.n	8001de8 <HAL_I2C_Master_Receive+0x1f0>
          if (I2C_WaitOnFlagUntilTimeout(hi2c, I2C_FLAG_BTF, RESET, Timeout, tickstart) != HAL_OK)
 8001e44:	f7ff fc7d 	bl	8001742 <I2C_WaitOnFlagUntilTimeout>
 8001e48:	4602      	mov	r2, r0
 8001e4a:	2800      	cmp	r0, #0
 8001e4c:	f47f af31 	bne.w	8001cb2 <HAL_I2C_Master_Receive+0xba>
          CLEAR_BIT(hi2c->Instance->CR1, I2C_CR1_ACK);
 8001e50:	6823      	ldr	r3, [r4, #0]
 8001e52:	6819      	ldr	r1, [r3, #0]
 8001e54:	f421 6180 	bic.w	r1, r1, #1024	; 0x400
 8001e58:	6019      	str	r1, [r3, #0]
          *hi2c->pBuffPtr = (uint8_t)hi2c->Instance->DR;
 8001e5a:	6919      	ldr	r1, [r3, #16]
 8001e5c:	6a63      	ldr	r3, [r4, #36]	; 0x24
 8001e5e:	7019      	strb	r1, [r3, #0]
          hi2c->pBuffPtr++;
 8001e60:	6a63      	ldr	r3, [r4, #36]	; 0x24
          if (I2C_WaitOnFlagUntilTimeout(hi2c, I2C_FLAG_BTF, RESET, Timeout, tickstart) != HAL_OK)
 8001e62:	9500      	str	r5, [sp, #0]
          hi2c->pBuffPtr++;
 8001e64:	3301      	adds	r3, #1
 8001e66:	6263      	str	r3, [r4, #36]	; 0x24
          hi2c->XferSize--;
 8001e68:	8d23      	ldrh	r3, [r4, #40]	; 0x28
 8001e6a:	3b01      	subs	r3, #1
 8001e6c:	8523      	strh	r3, [r4, #40]	; 0x28
          hi2c->XferCount--;
 8001e6e:	8d63      	ldrh	r3, [r4, #42]	; 0x2a
 8001e70:	3b01      	subs	r3, #1
 8001e72:	b29b      	uxth	r3, r3
 8001e74:	8563      	strh	r3, [r4, #42]	; 0x2a
          if (I2C_WaitOnFlagUntilTimeout(hi2c, I2C_FLAG_BTF, RESET, Timeout, tickstart) != HAL_OK)
 8001e76:	4641      	mov	r1, r8
 8001e78:	463b      	mov	r3, r7
 8001e7a:	4620      	mov	r0, r4
 8001e7c:	e7c7      	b.n	8001e0e <HAL_I2C_Master_Receive+0x216>
 8001e7e:	bf00      	nop
 8001e80:	00100002 	.word	0x00100002
 8001e84:	ffff0000 	.word	0xffff0000
 8001e88:	00010002 	.word	0x00010002
 8001e8c:	00010008 	.word	0x00010008
 8001e90:	00010004 	.word	0x00010004
        if (I2C_WaitOnRXNEFlagUntilTimeout(hi2c, Timeout, tickstart) != HAL_OK)
 8001e94:	462a      	mov	r2, r5
 8001e96:	4639      	mov	r1, r7
 8001e98:	4620      	mov	r0, r4
 8001e9a:	f7ff fcbf 	bl	800181c <I2C_WaitOnRXNEFlagUntilTimeout>
 8001e9e:	2800      	cmp	r0, #0
 8001ea0:	f47f af07 	bne.w	8001cb2 <HAL_I2C_Master_Receive+0xba>
        *hi2c->pBuffPtr = (uint8_t)hi2c->Instance->DR;
 8001ea4:	6823      	ldr	r3, [r4, #0]
 8001ea6:	691a      	ldr	r2, [r3, #16]
 8001ea8:	6a63      	ldr	r3, [r4, #36]	; 0x24
 8001eaa:	701a      	strb	r2, [r3, #0]
        hi2c->pBuffPtr++;
 8001eac:	6a62      	ldr	r2, [r4, #36]	; 0x24
 8001eae:	1c53      	adds	r3, r2, #1
 8001eb0:	6263      	str	r3, [r4, #36]	; 0x24
        hi2c->XferSize--;
 8001eb2:	8d23      	ldrh	r3, [r4, #40]	; 0x28
 8001eb4:	3b01      	subs	r3, #1
 8001eb6:	8523      	strh	r3, [r4, #40]	; 0x28
        hi2c->XferCount--;
 8001eb8:	8d63      	ldrh	r3, [r4, #42]	; 0x2a
 8001eba:	3b01      	subs	r3, #1
 8001ebc:	b29b      	uxth	r3, r3
 8001ebe:	8563      	strh	r3, [r4, #42]	; 0x2a
        if (__HAL_I2C_GET_FLAG(hi2c, I2C_FLAG_BTF) == SET)
 8001ec0:	6823      	ldr	r3, [r4, #0]
 8001ec2:	6959      	ldr	r1, [r3, #20]
 8001ec4:	0749      	lsls	r1, r1, #29
 8001ec6:	f57f af18 	bpl.w	8001cfa <HAL_I2C_Master_Receive+0x102>
 8001eca:	e7b8      	b.n	8001e3e <HAL_I2C_Master_Receive+0x246>

08001ecc <HAL_I2S_Init>:
  * @param  hi2s pointer to a I2S_HandleTypeDef structure that contains
  *         the configuration information for I2S module
  * @retval HAL status
  */
HAL_StatusTypeDef HAL_I2S_Init(I2S_HandleTypeDef *hi2s)
{
 8001ecc:	b5f8      	push	{r3, r4, r5, r6, r7, lr}
#if defined (SPI_I2S_FULLDUPLEX_SUPPORT)
  uint16_t tmpreg;
#endif

  /* Check the I2S handle allocation */
  if (hi2s == NULL)
 8001ece:	4604      	mov	r4, r0
 8001ed0:	2800      	cmp	r0, #0
 8001ed2:	f000 808c 	beq.w	8001fee <HAL_I2S_Init+0x122>
  assert_param(IS_I2S_MCLK_OUTPUT(hi2s->Init.MCLKOutput));
  assert_param(IS_I2S_AUDIO_FREQ(hi2s->Init.AudioFreq));
  assert_param(IS_I2S_CPOL(hi2s->Init.CPOL));
  assert_param(IS_I2S_CLOCKSOURCE(hi2s->Init.ClockSource));

  if (hi2s->State == HAL_I2S_STATE_RESET)
 8001ed6:	f890 3041 	ldrb.w	r3, [r0, #65]	; 0x41
 8001eda:	f003 02ff 	and.w	r2, r3, #255	; 0xff
 8001ede:	b92b      	cbnz	r3, 8001eec <HAL_I2S_Init+0x20>
  {
    /* Allocate lock resource and initialize it */
    hi2s->Lock = HAL_UNLOCKED;

    /* Initialize Default I2S IrqHandler ISR */
    hi2s->IrqHandlerISR = I2S_IRQHandler;
 8001ee0:	4b45      	ldr	r3, [pc, #276]	; (8001ff8 <HAL_I2S_Init+0x12c>)
    hi2s->Lock = HAL_UNLOCKED;
 8001ee2:	f880 2040 	strb.w	r2, [r0, #64]	; 0x40
    hi2s->IrqHandlerISR = I2S_IRQHandler;
 8001ee6:	6343      	str	r3, [r0, #52]	; 0x34

    /* Init the low level hardware : GPIO, CLOCK, NVIC... */
    hi2s->MspInitCallback(hi2s);
#else
    /* Init the low level hardware : GPIO, CLOCK, CORTEX...etc */
    HAL_I2S_MspInit(hi2s);
 8001ee8:	f001 fc70 	bl	80037cc <HAL_I2S_MspInit>

  hi2s->State = HAL_I2S_STATE_BUSY;

  /*----------------------- SPIx I2SCFGR & I2SPR Configuration ----------------*/
  /* Clear I2SMOD, I2SE, I2SCFG, PCMSYNC, I2SSTD, CKPOL, DATLEN and CHLEN bits */
  CLEAR_BIT(hi2s->Instance->I2SCFGR, (SPI_I2SCFGR_CHLEN | SPI_I2SCFGR_DATLEN | SPI_I2SCFGR_CKPOL | \
 8001eec:	6822      	ldr	r2, [r4, #0]
  hi2s->State = HAL_I2S_STATE_BUSY;
 8001eee:	2102      	movs	r1, #2
 8001ef0:	f884 1041 	strb.w	r1, [r4, #65]	; 0x41
  CLEAR_BIT(hi2s->Instance->I2SCFGR, (SPI_I2SCFGR_CHLEN | SPI_I2SCFGR_DATLEN | SPI_I2SCFGR_CKPOL | \
 8001ef4:	69d3      	ldr	r3, [r2, #28]
 8001ef6:	f423 637b 	bic.w	r3, r3, #4016	; 0xfb0
 8001efa:	f023 030f 	bic.w	r3, r3, #15
 8001efe:	61d3      	str	r3, [r2, #28]
                                      SPI_I2SCFGR_I2SE | SPI_I2SCFGR_I2SMOD));
  hi2s->Instance->I2SPR = 0x0002U;

  /*----------------------- I2SPR: I2SDIV and ODD Calculation -----------------*/
  /* If the requested audio frequency is not the default, compute the prescaler */
  if (hi2s->Init.AudioFreq != I2S_AUDIOFREQ_DEFAULT)
 8001f00:	6963      	ldr	r3, [r4, #20]
  hi2s->Instance->I2SPR = 0x0002U;
 8001f02:	6211      	str	r1, [r2, #32]
  if (hi2s->Init.AudioFreq != I2S_AUDIOFREQ_DEFAULT)
 8001f04:	428b      	cmp	r3, r1
  {
    /* Check the frame length (For the Prescaler computing) ********************/
    if (hi2s->Init.DataFormat == I2S_DATAFORMAT_16B)
 8001f06:	68e2      	ldr	r2, [r4, #12]
  if (hi2s->Init.AudioFreq != I2S_AUDIOFREQ_DEFAULT)
 8001f08:	d073      	beq.n	8001ff2 <HAL_I2S_Init+0x126>
      /* Packet length is 32 bits */
      packetlength = 32U;
    }

    /* I2S standard */
    if (hi2s->Init.Standard <= I2S_STANDARD_LSB)
 8001f0a:	68a3      	ldr	r3, [r4, #8]
      packetlength = 32U;
 8001f0c:	2a00      	cmp	r2, #0
 8001f0e:	bf0c      	ite	eq
 8001f10:	2510      	moveq	r5, #16
 8001f12:	2520      	movne	r5, #32
    else
    {
      i2sclk = HAL_RCCEx_GetPeriphCLKFreq(RCC_PERIPHCLK_I2S_APB2);
    }
#else
    i2sclk = HAL_RCCEx_GetPeriphCLKFreq(RCC_PERIPHCLK_I2S);
 8001f14:	2001      	movs	r0, #1
    if (hi2s->Init.Standard <= I2S_STANDARD_LSB)
 8001f16:	2b20      	cmp	r3, #32
      packetlength = packetlength * 2U;
 8001f18:	bf98      	it	ls
 8001f1a:	006d      	lslls	r5, r5, #1
    i2sclk = HAL_RCCEx_GetPeriphCLKFreq(RCC_PERIPHCLK_I2S);
 8001f1c:	f000 fd4a 	bl	80029b4 <HAL_RCCEx_GetPeriphCLKFreq>
#endif

    /* Compute the Real divider depending on the MCLK output state, with a floating point */
    if (hi2s->Init.MCLKOutput == I2S_MCLKOUTPUT_ENABLE)
 8001f20:	6923      	ldr	r3, [r4, #16]
 8001f22:	6962      	ldr	r2, [r4, #20]
 8001f24:	f5b3 7f00 	cmp.w	r3, #512	; 0x200
 8001f28:	d159      	bne.n	8001fde <HAL_I2S_Init+0x112>
    {
      /* MCLK output is enabled */
      if (hi2s->Init.DataFormat != I2S_DATAFORMAT_16B)
 8001f2a:	68e3      	ldr	r3, [r4, #12]
 8001f2c:	210a      	movs	r1, #10
 8001f2e:	2b00      	cmp	r3, #0
 8001f30:	d053      	beq.n	8001fda <HAL_I2S_Init+0x10e>
      {
        tmp = (uint32_t)(((((i2sclk / (packetlength * 4U)) * 10U) / hi2s->Init.AudioFreq)) + 5U);
 8001f32:	00ad      	lsls	r5, r5, #2
      }
      else
      {
        tmp = (uint32_t)(((((i2sclk / (packetlength * 8U)) * 10U) / hi2s->Init.AudioFreq)) + 5U);
 8001f34:	fbb0 f3f5 	udiv	r3, r0, r5
      }
    }
    else
    {
      /* MCLK output is disabled */
      tmp = (uint32_t)(((((i2sclk / packetlength) * 10U) / hi2s->Init.AudioFreq)) + 5U);
 8001f38:	434b      	muls	r3, r1
 8001f3a:	fbb3 f3f2 	udiv	r3, r3, r2
    }

    /* Remove the flatting point */
    tmp = tmp / 10U;
 8001f3e:	220a      	movs	r2, #10
      tmp = (uint32_t)(((((i2sclk / packetlength) * 10U) / hi2s->Init.AudioFreq)) + 5U);
 8001f40:	3305      	adds	r3, #5
    tmp = tmp / 10U;
 8001f42:	fbb3 f3f2 	udiv	r3, r3, r2

    /* Check the parity of the divider */
    i2sodd = (uint32_t)(tmp & (uint32_t)1U);
 8001f46:	f003 0201 	and.w	r2, r3, #1

    /* Compute the i2sdiv prescaler */
    i2sdiv = (uint32_t)((tmp - i2sodd) / 2U);
 8001f4a:	085b      	lsrs	r3, r3, #1
    i2sdiv = 2U;
    i2sodd = 0U;
  }

  /* Test if the divider is 1 or 0 or greater than 0xFF */
  if ((i2sdiv < 2U) || (i2sdiv > 0xFFU))
 8001f4c:	1e99      	subs	r1, r3, #2
 8001f4e:	29fd      	cmp	r1, #253	; 0xfd
 8001f50:	d849      	bhi.n	8001fe6 <HAL_I2S_Init+0x11a>
    i2sodd = (uint32_t)(i2sodd << 8U);
 8001f52:	0212      	lsls	r2, r2, #8
  }

  /*----------------------- SPIx I2SCFGR & I2SPR Configuration ----------------*/

  /* Write to SPIx I2SPR register the computed value */
  hi2s->Instance->I2SPR = (uint32_t)((uint32_t)i2sdiv | (uint32_t)(i2sodd | (uint32_t)hi2s->Init.MCLKOutput));
 8001f54:	4313      	orrs	r3, r2
 8001f56:	6922      	ldr	r2, [r4, #16]
 8001f58:	6820      	ldr	r0, [r4, #0]

  /* Clear I2SMOD, I2SE, I2SCFG, PCMSYNC, I2SSTD, CKPOL, DATLEN and CHLEN bits */
  /* And configure the I2S with the I2S_InitStruct values                      */
  MODIFY_REG(hi2s->Instance->I2SCFGR, (SPI_I2SCFGR_CHLEN | SPI_I2SCFGR_DATLEN | \
 8001f5a:	f8df c0ac 	ldr.w	ip, [pc, #172]	; 8002008 <HAL_I2S_Init+0x13c>
 8001f5e:	68e6      	ldr	r6, [r4, #12]
 8001f60:	69a5      	ldr	r5, [r4, #24]
  hi2s->Instance->I2SPR = (uint32_t)((uint32_t)i2sdiv | (uint32_t)(i2sodd | (uint32_t)hi2s->Init.MCLKOutput));
 8001f62:	4313      	orrs	r3, r2
 8001f64:	6203      	str	r3, [r0, #32]
  MODIFY_REG(hi2s->Instance->I2SCFGR, (SPI_I2SCFGR_CHLEN | SPI_I2SCFGR_DATLEN | \
 8001f66:	e9d4 2101 	ldrd	r2, r1, [r4, #4]
 8001f6a:	69c3      	ldr	r3, [r0, #28]
 8001f6c:	ea42 0701 	orr.w	r7, r2, r1
 8001f70:	ea03 030c 	and.w	r3, r3, ip
 8001f74:	433b      	orrs	r3, r7
 8001f76:	4333      	orrs	r3, r6
 8001f78:	432b      	orrs	r3, r5
 8001f7a:	f443 6300 	orr.w	r3, r3, #2048	; 0x800
 8001f7e:	61c3      	str	r3, [r0, #28]
#if defined (SPI_I2S_FULLDUPLEX_SUPPORT)

  /* Configure the I2S extended if the full duplex mode is enabled */
  assert_param(IS_I2S_FULLDUPLEX_MODE(hi2s->Init.FullDuplexMode));

  if (hi2s->Init.FullDuplexMode == I2S_FULLDUPLEXMODE_ENABLE)
 8001f80:	6a23      	ldr	r3, [r4, #32]
 8001f82:	2b01      	cmp	r3, #1
 8001f84:	d123      	bne.n	8001fce <HAL_I2S_Init+0x102>
  {
    /* Set FullDuplex I2S IrqHandler ISR if FULLDUPLEXMODE is enabled */
    hi2s->IrqHandlerISR = HAL_I2SEx_FullDuplex_IRQHandler;
 8001f86:	4b1d      	ldr	r3, [pc, #116]	; (8001ffc <HAL_I2S_Init+0x130>)
 8001f88:	6363      	str	r3, [r4, #52]	; 0x34

    /* Clear I2SMOD, I2SE, I2SCFG, PCMSYNC, I2SSTD, CKPOL, DATLEN and CHLEN bits */
    CLEAR_BIT(I2SxEXT(hi2s->Instance)->I2SCFGR, (SPI_I2SCFGR_CHLEN | SPI_I2SCFGR_DATLEN | SPI_I2SCFGR_CKPOL | \
 8001f8a:	4f1d      	ldr	r7, [pc, #116]	; (8002000 <HAL_I2S_Init+0x134>)
 8001f8c:	4b1d      	ldr	r3, [pc, #116]	; (8002004 <HAL_I2S_Init+0x138>)
 8001f8e:	4298      	cmp	r0, r3
 8001f90:	bf18      	it	ne
 8001f92:	f04f 2740 	movne.w	r7, #1073758208	; 0x40004000

    /* Get the I2SCFGR register value */
    tmpreg = I2SxEXT(hi2s->Instance)->I2SCFGR;

    /* Get the mode to be configured for the extended I2S */
    if ((hi2s->Init.Mode == I2S_MODE_MASTER_TX) || (hi2s->Init.Mode == I2S_MODE_SLAVE_TX))
 8001f96:	f5b2 7f00 	cmp.w	r2, #512	; 0x200
    CLEAR_BIT(I2SxEXT(hi2s->Instance)->I2SCFGR, (SPI_I2SCFGR_CHLEN | SPI_I2SCFGR_DATLEN | SPI_I2SCFGR_CKPOL | \
 8001f9a:	69fb      	ldr	r3, [r7, #28]
 8001f9c:	ea03 030c 	and.w	r3, r3, ip
 8001fa0:	61fb      	str	r3, [r7, #28]
    I2SxEXT(hi2s->Instance)->I2SPR = 2U;
 8001fa2:	f04f 0302 	mov.w	r3, #2
 8001fa6:	623b      	str	r3, [r7, #32]
    if ((hi2s->Init.Mode == I2S_MODE_MASTER_TX) || (hi2s->Init.Mode == I2S_MODE_SLAVE_TX))
 8001fa8:	bf1c      	itt	ne
 8001faa:	fab2 f382 	clzne	r3, r2
 8001fae:	095b      	lsrne	r3, r3, #5
    tmpreg = I2SxEXT(hi2s->Instance)->I2SCFGR;
 8001fb0:	69f8      	ldr	r0, [r7, #28]
    if ((hi2s->Init.Mode == I2S_MODE_MASTER_TX) || (hi2s->Init.Mode == I2S_MODE_SLAVE_TX))
 8001fb2:	bf14      	ite	ne
 8001fb4:	021b      	lslne	r3, r3, #8
    {
      tmp = I2S_MODE_SLAVE_RX;
 8001fb6:	f44f 7380 	moveq.w	r3, #256	; 0x100
    {
      tmp = I2S_MODE_SLAVE_TX;
    }

    /* Configure the I2S Slave with the I2S Master parameter values */
    tmpreg |= (uint16_t)((uint16_t)SPI_I2SCFGR_I2SMOD | (uint16_t)(tmp | \
 8001fba:	4331      	orrs	r1, r6
 8001fbc:	4319      	orrs	r1, r3
    tmpreg = I2SxEXT(hi2s->Instance)->I2SCFGR;
 8001fbe:	b280      	uxth	r0, r0
    tmpreg |= (uint16_t)((uint16_t)SPI_I2SCFGR_I2SMOD | (uint16_t)(tmp | \
 8001fc0:	4329      	orrs	r1, r5
 8001fc2:	ea40 0301 	orr.w	r3, r0, r1
 8001fc6:	b29b      	uxth	r3, r3
                         (uint16_t)(hi2s->Init.Standard | (uint16_t)(hi2s->Init.DataFormat | \
                                    (uint16_t)hi2s->Init.CPOL))));

    /* Write to SPIx I2SCFGR */
    WRITE_REG(I2SxEXT(hi2s->Instance)->I2SCFGR, tmpreg);
 8001fc8:	f443 6300 	orr.w	r3, r3, #2048	; 0x800
 8001fcc:	61fb      	str	r3, [r7, #28]
  }
#endif /* SPI_I2S_FULLDUPLEX_SUPPORT */

  hi2s->ErrorCode = HAL_I2S_ERROR_NONE;
 8001fce:	2000      	movs	r0, #0
  hi2s->State     = HAL_I2S_STATE_READY;
 8001fd0:	2301      	movs	r3, #1
  hi2s->ErrorCode = HAL_I2S_ERROR_NONE;
 8001fd2:	6460      	str	r0, [r4, #68]	; 0x44
  hi2s->State     = HAL_I2S_STATE_READY;
 8001fd4:	f884 3041 	strb.w	r3, [r4, #65]	; 0x41

  return HAL_OK;
}
 8001fd8:	bdf8      	pop	{r3, r4, r5, r6, r7, pc}
        tmp = (uint32_t)(((((i2sclk / (packetlength * 8U)) * 10U) / hi2s->Init.AudioFreq)) + 5U);
 8001fda:	00ed      	lsls	r5, r5, #3
 8001fdc:	e7aa      	b.n	8001f34 <HAL_I2S_Init+0x68>
      tmp = (uint32_t)(((((i2sclk / packetlength) * 10U) / hi2s->Init.AudioFreq)) + 5U);
 8001fde:	210a      	movs	r1, #10
 8001fe0:	fbb0 f3f5 	udiv	r3, r0, r5
 8001fe4:	e7a8      	b.n	8001f38 <HAL_I2S_Init+0x6c>
    SET_BIT(hi2s->ErrorCode, HAL_I2S_ERROR_PRESCALER);
 8001fe6:	6c63      	ldr	r3, [r4, #68]	; 0x44
 8001fe8:	f043 0310 	orr.w	r3, r3, #16
 8001fec:	6463      	str	r3, [r4, #68]	; 0x44
    return HAL_ERROR;
 8001fee:	2001      	movs	r0, #1
 8001ff0:	e7f2      	b.n	8001fd8 <HAL_I2S_Init+0x10c>
    i2sodd = 0U;
 8001ff2:	2200      	movs	r2, #0
 8001ff4:	e7ae      	b.n	8001f54 <HAL_I2S_Init+0x88>
 8001ff6:	bf00      	nop
 8001ff8:	08002087 	.word	0x08002087
 8001ffc:	08002185 	.word	0x08002185
 8002000:	40003400 	.word	0x40003400
 8002004:	40003800 	.word	0x40003800
 8002008:	fffff040 	.word	0xfffff040

0800200c <HAL_I2S_Transmit_IT>:
  * @note   The I2S is kept enabled at the end of transaction to avoid the clock de-synchronization
  *         between Master and Slave(example: audio streaming).
  * @retval HAL status
  */
HAL_StatusTypeDef HAL_I2S_Transmit_IT(I2S_HandleTypeDef *hi2s, uint16_t *pData, uint16_t Size)
{
 800200c:	b510      	push	{r4, lr}
  uint32_t tmpreg_cfgr;

  if ((pData == NULL) || (Size == 0U))
 800200e:	2900      	cmp	r1, #0
 8002010:	d033      	beq.n	800207a <HAL_I2S_Transmit_IT+0x6e>
 8002012:	2a00      	cmp	r2, #0
 8002014:	d031      	beq.n	800207a <HAL_I2S_Transmit_IT+0x6e>
  {
    return  HAL_ERROR;
  }

  /* Process Locked */
  __HAL_LOCK(hi2s);
 8002016:	f890 3040 	ldrb.w	r3, [r0, #64]	; 0x40
 800201a:	2b01      	cmp	r3, #1
 800201c:	d00a      	beq.n	8002034 <HAL_I2S_Transmit_IT+0x28>
 800201e:	2301      	movs	r3, #1
 8002020:	f880 3040 	strb.w	r3, [r0, #64]	; 0x40

  if (hi2s->State != HAL_I2S_STATE_READY)
 8002024:	f890 3041 	ldrb.w	r3, [r0, #65]	; 0x41
 8002028:	2b01      	cmp	r3, #1
 800202a:	f04f 0300 	mov.w	r3, #0
 800202e:	d003      	beq.n	8002038 <HAL_I2S_Transmit_IT+0x2c>
  {
    __HAL_UNLOCK(hi2s);
 8002030:	f880 3040 	strb.w	r3, [r0, #64]	; 0x40
  __HAL_LOCK(hi2s);
 8002034:	2002      	movs	r0, #2
 8002036:	e01f      	b.n	8002078 <HAL_I2S_Transmit_IT+0x6c>
    return HAL_BUSY;
  }

  /* Set state and reset error code */
  hi2s->State = HAL_I2S_STATE_BUSY_TX;
 8002038:	2403      	movs	r4, #3
 800203a:	f880 4041 	strb.w	r4, [r0, #65]	; 0x41
  hi2s->ErrorCode = HAL_I2S_ERROR_NONE;
 800203e:	6443      	str	r3, [r0, #68]	; 0x44
  hi2s->pTxBuffPtr = pData;

  tmpreg_cfgr = hi2s->Instance->I2SCFGR & (SPI_I2SCFGR_DATLEN | SPI_I2SCFGR_CHLEN);
 8002040:	6803      	ldr	r3, [r0, #0]
  hi2s->pTxBuffPtr = pData;
 8002042:	6241      	str	r1, [r0, #36]	; 0x24
  tmpreg_cfgr = hi2s->Instance->I2SCFGR & (SPI_I2SCFGR_DATLEN | SPI_I2SCFGR_CHLEN);
 8002044:	69dc      	ldr	r4, [r3, #28]

  if ((tmpreg_cfgr == I2S_DATAFORMAT_24B) || (tmpreg_cfgr == I2S_DATAFORMAT_32B))
 8002046:	2128      	movs	r1, #40	; 0x28
  tmpreg_cfgr = hi2s->Instance->I2SCFGR & (SPI_I2SCFGR_DATLEN | SPI_I2SCFGR_CHLEN);
 8002048:	f004 0407 	and.w	r4, r4, #7
  if ((tmpreg_cfgr == I2S_DATAFORMAT_24B) || (tmpreg_cfgr == I2S_DATAFORMAT_32B))
 800204c:	40e1      	lsrs	r1, r4
 800204e:	07c9      	lsls	r1, r1, #31
  {
    hi2s->TxXferSize = (Size << 1U);
 8002050:	bf44      	itt	mi
 8002052:	0052      	lslmi	r2, r2, #1
 8002054:	b292      	uxthmi	r2, r2
    hi2s->TxXferCount = (Size << 1U);
  }
  else
  {
    hi2s->TxXferSize = Size;
 8002056:	8502      	strh	r2, [r0, #40]	; 0x28
    hi2s->TxXferCount = Size;
 8002058:	8542      	strh	r2, [r0, #42]	; 0x2a
  }

  /* Enable TXE and ERR interrupt */
  __HAL_I2S_ENABLE_IT(hi2s, (I2S_IT_TXE | I2S_IT_ERR));
 800205a:	685a      	ldr	r2, [r3, #4]
 800205c:	f042 02a0 	orr.w	r2, r2, #160	; 0xa0
 8002060:	605a      	str	r2, [r3, #4]

  /* Check if the I2S is already enabled */
  if ((hi2s->Instance->I2SCFGR & SPI_I2SCFGR_I2SE) != SPI_I2SCFGR_I2SE)
 8002062:	69da      	ldr	r2, [r3, #28]
 8002064:	0552      	lsls	r2, r2, #21
  {
    /* Enable I2S peripheral */
    __HAL_I2S_ENABLE(hi2s);
 8002066:	bf5e      	ittt	pl
 8002068:	69da      	ldrpl	r2, [r3, #28]
 800206a:	f442 6280 	orrpl.w	r2, r2, #1024	; 0x400
 800206e:	61da      	strpl	r2, [r3, #28]
  }

  __HAL_UNLOCK(hi2s);
 8002070:	2300      	movs	r3, #0
 8002072:	f880 3040 	strb.w	r3, [r0, #64]	; 0x40
  return HAL_OK;
 8002076:	4618      	mov	r0, r3
}
 8002078:	bd10      	pop	{r4, pc}
    return  HAL_ERROR;
 800207a:	2001      	movs	r0, #1
 800207c:	e7fc      	b.n	8002078 <HAL_I2S_Transmit_IT+0x6c>

0800207e <HAL_I2S_IRQHandler>:
  * @retval None
  */
void HAL_I2S_IRQHandler(I2S_HandleTypeDef *hi2s)
{
  /* Call the IrqHandler ISR set during HAL_I2S_INIT */
  hi2s->IrqHandlerISR(hi2s);
 800207e:	6b43      	ldr	r3, [r0, #52]	; 0x34
 8002080:	4718      	bx	r3

08002082 <HAL_I2S_RxCpltCallback>:
 8002082:	4770      	bx	lr

08002084 <HAL_I2S_ErrorCallback>:
 8002084:	4770      	bx	lr

08002086 <I2S_IRQHandler>:
  * @param  hi2s: pointer to a I2S_HandleTypeDef structure that contains
  *         the configuration information for I2S module
  * @retval None
  */
static void I2S_IRQHandler(I2S_HandleTypeDef *hi2s)
{
 8002086:	b51f      	push	{r0, r1, r2, r3, r4, lr}
  __IO uint32_t i2ssr = hi2s->Instance->SR;
 8002088:	6803      	ldr	r3, [r0, #0]
 800208a:	689a      	ldr	r2, [r3, #8]
 800208c:	9201      	str	r2, [sp, #4]

  if (hi2s->State == HAL_I2S_STATE_BUSY_RX)
 800208e:	f890 2041 	ldrb.w	r2, [r0, #65]	; 0x41
 8002092:	2a04      	cmp	r2, #4
{
 8002094:	4604      	mov	r4, r0
  if (hi2s->State == HAL_I2S_STATE_BUSY_RX)
 8002096:	d136      	bne.n	8002106 <I2S_IRQHandler+0x80>
  {
    /* I2S in mode Receiver ------------------------------------------------*/
    if (((i2ssr & I2S_FLAG_RXNE) == I2S_FLAG_RXNE) && (__HAL_I2S_GET_IT_SOURCE(hi2s, I2S_IT_RXNE) != RESET))
 8002098:	9a01      	ldr	r2, [sp, #4]
 800209a:	07d1      	lsls	r1, r2, #31
 800209c:	d517      	bpl.n	80020ce <I2S_IRQHandler+0x48>
 800209e:	685a      	ldr	r2, [r3, #4]
 80020a0:	0652      	lsls	r2, r2, #25
 80020a2:	d514      	bpl.n	80020ce <I2S_IRQHandler+0x48>
  (*hi2s->pRxBuffPtr) = (uint16_t)hi2s->Instance->DR;
 80020a4:	6ac2      	ldr	r2, [r0, #44]	; 0x2c
 80020a6:	68d9      	ldr	r1, [r3, #12]
 80020a8:	f822 1b02 	strh.w	r1, [r2], #2
  hi2s->pRxBuffPtr++;
 80020ac:	62c2      	str	r2, [r0, #44]	; 0x2c
  hi2s->RxXferCount--;
 80020ae:	8e42      	ldrh	r2, [r0, #50]	; 0x32
 80020b0:	3a01      	subs	r2, #1
 80020b2:	b292      	uxth	r2, r2
 80020b4:	8642      	strh	r2, [r0, #50]	; 0x32
  if (hi2s->RxXferCount == 0U)
 80020b6:	8e42      	ldrh	r2, [r0, #50]	; 0x32
 80020b8:	b292      	uxth	r2, r2
 80020ba:	b942      	cbnz	r2, 80020ce <I2S_IRQHandler+0x48>
    __HAL_I2S_DISABLE_IT(hi2s, (I2S_IT_RXNE | I2S_IT_ERR));
 80020bc:	685a      	ldr	r2, [r3, #4]
 80020be:	f022 0260 	bic.w	r2, r2, #96	; 0x60
 80020c2:	605a      	str	r2, [r3, #4]
    hi2s->State = HAL_I2S_STATE_READY;
 80020c4:	2301      	movs	r3, #1
 80020c6:	f880 3041 	strb.w	r3, [r0, #65]	; 0x41
    HAL_I2S_RxCpltCallback(hi2s);
 80020ca:	f7ff ffda 	bl	8002082 <HAL_I2S_RxCpltCallback>
    {
      I2S_Receive_IT(hi2s);
    }

    /* I2S Overrun error interrupt occurred -------------------------------------*/
    if (((i2ssr & I2S_FLAG_OVR) == I2S_FLAG_OVR) && (__HAL_I2S_GET_IT_SOURCE(hi2s, I2S_IT_ERR) != RESET))
 80020ce:	9b01      	ldr	r3, [sp, #4]
 80020d0:	0659      	lsls	r1, r3, #25
 80020d2:	d518      	bpl.n	8002106 <I2S_IRQHandler+0x80>
 80020d4:	6823      	ldr	r3, [r4, #0]
 80020d6:	685a      	ldr	r2, [r3, #4]
 80020d8:	0692      	lsls	r2, r2, #26
 80020da:	d514      	bpl.n	8002106 <I2S_IRQHandler+0x80>
    {
      /* Disable RXNE and ERR interrupt */
      __HAL_I2S_DISABLE_IT(hi2s, (I2S_IT_RXNE | I2S_IT_ERR));
 80020dc:	685a      	ldr	r2, [r3, #4]
 80020de:	f022 0260 	bic.w	r2, r2, #96	; 0x60
 80020e2:	605a      	str	r2, [r3, #4]

      /* Clear Overrun flag */
      __HAL_I2S_CLEAR_OVRFLAG(hi2s);
 80020e4:	2200      	movs	r2, #0
 80020e6:	9202      	str	r2, [sp, #8]
 80020e8:	68da      	ldr	r2, [r3, #12]
 80020ea:	9202      	str	r2, [sp, #8]
 80020ec:	689b      	ldr	r3, [r3, #8]
 80020ee:	9302      	str	r3, [sp, #8]
 80020f0:	9b02      	ldr	r3, [sp, #8]

      /* Set the I2S State ready */
      hi2s->State = HAL_I2S_STATE_READY;
 80020f2:	2301      	movs	r3, #1
 80020f4:	f884 3041 	strb.w	r3, [r4, #65]	; 0x41


      /* Set the error code and execute error callback*/
      SET_BIT(hi2s->ErrorCode, HAL_I2S_ERROR_OVR);
 80020f8:	6c63      	ldr	r3, [r4, #68]	; 0x44
 80020fa:	f043 0302 	orr.w	r3, r3, #2
 80020fe:	6463      	str	r3, [r4, #68]	; 0x44
      /* Call user error callback */
#if (USE_HAL_I2S_REGISTER_CALLBACKS == 1U)
      hi2s->ErrorCallback(hi2s);
#else
      HAL_I2S_ErrorCallback(hi2s);
 8002100:	4620      	mov	r0, r4
 8002102:	f7ff ffbf 	bl	8002084 <HAL_I2S_ErrorCallback>
#endif /* USE_HAL_I2S_REGISTER_CALLBACKS */
    }
  }

  if (hi2s->State == HAL_I2S_STATE_BUSY_TX)
 8002106:	f894 3041 	ldrb.w	r3, [r4, #65]	; 0x41
 800210a:	2b03      	cmp	r3, #3
 800210c:	d136      	bne.n	800217c <I2S_IRQHandler+0xf6>
  {
    /* I2S in mode Transmitter -----------------------------------------------*/
    if (((i2ssr & I2S_FLAG_TXE) == I2S_FLAG_TXE) && (__HAL_I2S_GET_IT_SOURCE(hi2s, I2S_IT_TXE) != RESET))
 800210e:	9b01      	ldr	r3, [sp, #4]
 8002110:	079b      	lsls	r3, r3, #30
 8002112:	d519      	bpl.n	8002148 <I2S_IRQHandler+0xc2>
 8002114:	6822      	ldr	r2, [r4, #0]
 8002116:	6853      	ldr	r3, [r2, #4]
 8002118:	0618      	lsls	r0, r3, #24
 800211a:	d515      	bpl.n	8002148 <I2S_IRQHandler+0xc2>
  hi2s->Instance->DR = (*hi2s->pTxBuffPtr);
 800211c:	6a63      	ldr	r3, [r4, #36]	; 0x24
 800211e:	f833 1b02 	ldrh.w	r1, [r3], #2
 8002122:	60d1      	str	r1, [r2, #12]
  hi2s->pTxBuffPtr++;
 8002124:	6263      	str	r3, [r4, #36]	; 0x24
  hi2s->TxXferCount--;
 8002126:	8d63      	ldrh	r3, [r4, #42]	; 0x2a
 8002128:	3b01      	subs	r3, #1
 800212a:	b29b      	uxth	r3, r3
 800212c:	8563      	strh	r3, [r4, #42]	; 0x2a
  if (hi2s->TxXferCount == 0U)
 800212e:	8d63      	ldrh	r3, [r4, #42]	; 0x2a
 8002130:	b29b      	uxth	r3, r3
 8002132:	b94b      	cbnz	r3, 8002148 <I2S_IRQHandler+0xc2>
    __HAL_I2S_DISABLE_IT(hi2s, (I2S_IT_TXE | I2S_IT_ERR));
 8002134:	6853      	ldr	r3, [r2, #4]
 8002136:	f023 03a0 	bic.w	r3, r3, #160	; 0xa0
 800213a:	6053      	str	r3, [r2, #4]
    hi2s->State = HAL_I2S_STATE_READY;
 800213c:	2301      	movs	r3, #1
 800213e:	f884 3041 	strb.w	r3, [r4, #65]	; 0x41
    HAL_I2S_TxCpltCallback(hi2s);
 8002142:	4620      	mov	r0, r4
 8002144:	f000 ff38 	bl	8002fb8 <HAL_I2S_TxCpltCallback>
    {
      I2S_Transmit_IT(hi2s);
    }

    /* I2S Underrun error interrupt occurred --------------------------------*/
    if (((i2ssr & I2S_FLAG_UDR) == I2S_FLAG_UDR) && (__HAL_I2S_GET_IT_SOURCE(hi2s, I2S_IT_ERR) != RESET))
 8002148:	9b01      	ldr	r3, [sp, #4]
 800214a:	0719      	lsls	r1, r3, #28
 800214c:	d516      	bpl.n	800217c <I2S_IRQHandler+0xf6>
 800214e:	6823      	ldr	r3, [r4, #0]
 8002150:	685a      	ldr	r2, [r3, #4]
 8002152:	0692      	lsls	r2, r2, #26
 8002154:	d512      	bpl.n	800217c <I2S_IRQHandler+0xf6>
    {
      /* Disable TXE and ERR interrupt */
      __HAL_I2S_DISABLE_IT(hi2s, (I2S_IT_TXE | I2S_IT_ERR));
 8002156:	685a      	ldr	r2, [r3, #4]
 8002158:	f022 02a0 	bic.w	r2, r2, #160	; 0xa0
 800215c:	605a      	str	r2, [r3, #4]

      /* Clear Underrun flag */
      __HAL_I2S_CLEAR_UDRFLAG(hi2s);
 800215e:	2200      	movs	r2, #0
 8002160:	9203      	str	r2, [sp, #12]
 8002162:	689b      	ldr	r3, [r3, #8]
 8002164:	9303      	str	r3, [sp, #12]
 8002166:	9b03      	ldr	r3, [sp, #12]

      /* Set the I2S State ready */
      hi2s->State = HAL_I2S_STATE_READY;
 8002168:	2301      	movs	r3, #1
 800216a:	f884 3041 	strb.w	r3, [r4, #65]	; 0x41

      /* Set the error code and execute error callback*/
      SET_BIT(hi2s->ErrorCode, HAL_I2S_ERROR_UDR);
 800216e:	6c63      	ldr	r3, [r4, #68]	; 0x44
 8002170:	f043 0304 	orr.w	r3, r3, #4
 8002174:	6463      	str	r3, [r4, #68]	; 0x44
      /* Call user error callback */
#if (USE_HAL_I2S_REGISTER_CALLBACKS == 1U)
      hi2s->ErrorCallback(hi2s);
#else
      HAL_I2S_ErrorCallback(hi2s);
 8002176:	4620      	mov	r0, r4
 8002178:	f7ff ff84 	bl	8002084 <HAL_I2S_ErrorCallback>
#endif /* USE_HAL_I2S_REGISTER_CALLBACKS */
    }
  }
}
 800217c:	b004      	add	sp, #16
 800217e:	bd10      	pop	{r4, pc}

08002180 <HAL_I2SEx_TxRxCpltCallback>:
 8002180:	4770      	bx	lr
	...

08002184 <HAL_I2SEx_FullDuplex_IRQHandler>:
  * @brief  This function handles I2S/I2Sext interrupt requests in full-duplex mode.
  * @param  hi2s I2S handle
  * @retval HAL status
  */
void HAL_I2SEx_FullDuplex_IRQHandler(I2S_HandleTypeDef *hi2s)
{
 8002184:	b510      	push	{r4, lr}
  __IO uint32_t i2ssr     = hi2s->Instance->SR;
 8002186:	6802      	ldr	r2, [r0, #0]
  __IO uint32_t i2sextsr  = I2SxEXT(hi2s->Instance)->SR;
 8002188:	498e      	ldr	r1, [pc, #568]	; (80023c4 <HAL_I2SEx_FullDuplex_IRQHandler+0x240>)
  __IO uint32_t i2ssr     = hi2s->Instance->SR;
 800218a:	6893      	ldr	r3, [r2, #8]
{
 800218c:	b086      	sub	sp, #24
 800218e:	4604      	mov	r4, r0
  __IO uint32_t i2ssr     = hi2s->Instance->SR;
 8002190:	9300      	str	r3, [sp, #0]
  __IO uint32_t i2sextsr  = I2SxEXT(hi2s->Instance)->SR;
 8002192:	4b8d      	ldr	r3, [pc, #564]	; (80023c8 <HAL_I2SEx_FullDuplex_IRQHandler+0x244>)
 8002194:	428a      	cmp	r2, r1
 8002196:	bf18      	it	ne
 8002198:	f04f 2340 	movne.w	r3, #1073758208	; 0x40004000
 800219c:	6899      	ldr	r1, [r3, #8]
 800219e:	9101      	str	r1, [sp, #4]
  __IO uint32_t i2scr2    = hi2s->Instance->CR2;
 80021a0:	6851      	ldr	r1, [r2, #4]
 80021a2:	9102      	str	r1, [sp, #8]
  __IO uint32_t i2sextcr2 = I2SxEXT(hi2s->Instance)->CR2;
 80021a4:	6859      	ldr	r1, [r3, #4]
 80021a6:	9103      	str	r1, [sp, #12]

  /* Check if the I2S_MODE_MASTER_TX or I2S_MODE_SLAVE_TX Mode is selected */
  if ((hi2s->Init.Mode == I2S_MODE_MASTER_TX) || (hi2s->Init.Mode == I2S_MODE_SLAVE_TX))
 80021a8:	6841      	ldr	r1, [r0, #4]
 80021aa:	f431 7100 	bics.w	r1, r1, #512	; 0x200
 80021ae:	f040 8093 	bne.w	80022d8 <HAL_I2SEx_FullDuplex_IRQHandler+0x154>
  {
    /* I2S in mode Transmitter -------------------------------------------------*/
    if (((i2ssr & I2S_FLAG_TXE) == I2S_FLAG_TXE) && ((i2scr2 & I2S_IT_TXE) != RESET))
 80021b2:	9b00      	ldr	r3, [sp, #0]
 80021b4:	0799      	lsls	r1, r3, #30
 80021b6:	d51a      	bpl.n	80021ee <HAL_I2SEx_FullDuplex_IRQHandler+0x6a>
 80021b8:	9b02      	ldr	r3, [sp, #8]
 80021ba:	061b      	lsls	r3, r3, #24
 80021bc:	d517      	bpl.n	80021ee <HAL_I2SEx_FullDuplex_IRQHandler+0x6a>
  * @retval None
  */
static void I2SEx_TxISR_I2S(I2S_HandleTypeDef *hi2s)
{
  /* Write Data on DR register */
  hi2s->Instance->DR = (*hi2s->pTxBuffPtr++);
 80021be:	6a43      	ldr	r3, [r0, #36]	; 0x24
 80021c0:	1c99      	adds	r1, r3, #2
 80021c2:	881b      	ldrh	r3, [r3, #0]
 80021c4:	6241      	str	r1, [r0, #36]	; 0x24
 80021c6:	60d3      	str	r3, [r2, #12]
  hi2s->TxXferCount--;
 80021c8:	8d43      	ldrh	r3, [r0, #42]	; 0x2a
 80021ca:	3b01      	subs	r3, #1
 80021cc:	b29b      	uxth	r3, r3
 80021ce:	8543      	strh	r3, [r0, #42]	; 0x2a

  if (hi2s->TxXferCount == 0U)
 80021d0:	8d43      	ldrh	r3, [r0, #42]	; 0x2a
 80021d2:	b29b      	uxth	r3, r3
 80021d4:	b95b      	cbnz	r3, 80021ee <HAL_I2SEx_FullDuplex_IRQHandler+0x6a>
  {
    /* Disable TXE and ERR interrupt */
    __HAL_I2S_DISABLE_IT(hi2s, (I2S_IT_TXE | I2S_IT_ERR));
 80021d6:	6853      	ldr	r3, [r2, #4]
 80021d8:	f023 03a0 	bic.w	r3, r3, #160	; 0xa0
 80021dc:	6053      	str	r3, [r2, #4]

    if (hi2s->RxXferCount == 0U)
 80021de:	8e43      	ldrh	r3, [r0, #50]	; 0x32
 80021e0:	b29b      	uxth	r3, r3
 80021e2:	b923      	cbnz	r3, 80021ee <HAL_I2SEx_FullDuplex_IRQHandler+0x6a>
    {
      hi2s->State = HAL_I2S_STATE_READY;
 80021e4:	2301      	movs	r3, #1
 80021e6:	f880 3041 	strb.w	r3, [r0, #65]	; 0x41
      /* Call user TxRx complete callback */
#if (USE_HAL_I2S_REGISTER_CALLBACKS == 1U)
      hi2s->TxRxCpltCallback(hi2s);
#else
      HAL_I2SEx_TxRxCpltCallback(hi2s);
 80021ea:	f7ff ffc9 	bl	8002180 <HAL_I2SEx_TxRxCpltCallback>
    if (((i2sextsr & I2S_FLAG_RXNE) == I2S_FLAG_RXNE) && ((i2sextcr2 & I2S_IT_RXNE) != RESET))
 80021ee:	9b01      	ldr	r3, [sp, #4]
 80021f0:	07d8      	lsls	r0, r3, #31
 80021f2:	d522      	bpl.n	800223a <HAL_I2SEx_FullDuplex_IRQHandler+0xb6>
 80021f4:	9b03      	ldr	r3, [sp, #12]
 80021f6:	0659      	lsls	r1, r3, #25
 80021f8:	d51f      	bpl.n	800223a <HAL_I2SEx_FullDuplex_IRQHandler+0xb6>
  * @retval None
  */
static void I2SEx_RxISR_I2SExt(I2S_HandleTypeDef *hi2s)
{
  /* Read Data from DR register */
  (*hi2s->pRxBuffPtr++) = I2SxEXT(hi2s->Instance)->DR;
 80021fa:	6821      	ldr	r1, [r4, #0]
 80021fc:	4a71      	ldr	r2, [pc, #452]	; (80023c4 <HAL_I2SEx_FullDuplex_IRQHandler+0x240>)
 80021fe:	4b72      	ldr	r3, [pc, #456]	; (80023c8 <HAL_I2SEx_FullDuplex_IRQHandler+0x244>)
 8002200:	4291      	cmp	r1, r2
 8002202:	bf18      	it	ne
 8002204:	f04f 2340 	movne.w	r3, #1073758208	; 0x40004000
 8002208:	6ae2      	ldr	r2, [r4, #44]	; 0x2c
 800220a:	68d9      	ldr	r1, [r3, #12]
 800220c:	1c90      	adds	r0, r2, #2
 800220e:	62e0      	str	r0, [r4, #44]	; 0x2c
 8002210:	8011      	strh	r1, [r2, #0]
  hi2s->RxXferCount--;
 8002212:	8e62      	ldrh	r2, [r4, #50]	; 0x32
 8002214:	3a01      	subs	r2, #1
 8002216:	b292      	uxth	r2, r2
 8002218:	8662      	strh	r2, [r4, #50]	; 0x32

  if (hi2s->RxXferCount == 0U)
 800221a:	8e62      	ldrh	r2, [r4, #50]	; 0x32
 800221c:	b292      	uxth	r2, r2
 800221e:	b962      	cbnz	r2, 800223a <HAL_I2SEx_FullDuplex_IRQHandler+0xb6>
  {
    /* Disable I2Sext RXNE and ERR interrupt */
    __HAL_I2SEXT_DISABLE_IT(hi2s, (I2S_IT_RXNE | I2S_IT_ERR));
 8002220:	685a      	ldr	r2, [r3, #4]
 8002222:	f022 0260 	bic.w	r2, r2, #96	; 0x60
 8002226:	605a      	str	r2, [r3, #4]

    if (hi2s->TxXferCount == 0U)
 8002228:	8d63      	ldrh	r3, [r4, #42]	; 0x2a
 800222a:	b29b      	uxth	r3, r3
 800222c:	b92b      	cbnz	r3, 800223a <HAL_I2SEx_FullDuplex_IRQHandler+0xb6>
    {
      hi2s->State = HAL_I2S_STATE_READY;
 800222e:	2301      	movs	r3, #1
 8002230:	f884 3041 	strb.w	r3, [r4, #65]	; 0x41
      /* Call user TxRx complete callback */
#if (USE_HAL_I2S_REGISTER_CALLBACKS == 1U)
      hi2s->TxRxCpltCallback(hi2s);
#else
      HAL_I2SEx_TxRxCpltCallback(hi2s);
 8002234:	4620      	mov	r0, r4
 8002236:	f7ff ffa3 	bl	8002180 <HAL_I2SEx_TxRxCpltCallback>
    if (((i2sextsr & I2S_FLAG_OVR) == I2S_FLAG_OVR) && ((i2sextcr2 & I2S_IT_ERR) != RESET))
 800223a:	9b01      	ldr	r3, [sp, #4]
 800223c:	065a      	lsls	r2, r3, #25
 800223e:	d522      	bpl.n	8002286 <HAL_I2SEx_FullDuplex_IRQHandler+0x102>
 8002240:	9b03      	ldr	r3, [sp, #12]
 8002242:	069b      	lsls	r3, r3, #26
 8002244:	d51f      	bpl.n	8002286 <HAL_I2SEx_FullDuplex_IRQHandler+0x102>
      __HAL_I2SEXT_DISABLE_IT(hi2s, (I2S_IT_RXNE | I2S_IT_ERR));
 8002246:	6823      	ldr	r3, [r4, #0]
 8002248:	495e      	ldr	r1, [pc, #376]	; (80023c4 <HAL_I2SEx_FullDuplex_IRQHandler+0x240>)
 800224a:	4a5f      	ldr	r2, [pc, #380]	; (80023c8 <HAL_I2SEx_FullDuplex_IRQHandler+0x244>)
 800224c:	428b      	cmp	r3, r1
 800224e:	bf18      	it	ne
 8002250:	f04f 2240 	movne.w	r2, #1073758208	; 0x40004000
      HAL_I2S_ErrorCallback(hi2s);
 8002254:	4620      	mov	r0, r4
      __HAL_I2SEXT_DISABLE_IT(hi2s, (I2S_IT_RXNE | I2S_IT_ERR));
 8002256:	6851      	ldr	r1, [r2, #4]
 8002258:	f021 0160 	bic.w	r1, r1, #96	; 0x60
 800225c:	6051      	str	r1, [r2, #4]
      __HAL_I2S_DISABLE_IT(hi2s, (I2S_IT_TXE | I2S_IT_ERR));
 800225e:	685a      	ldr	r2, [r3, #4]
 8002260:	f022 02a0 	bic.w	r2, r2, #160	; 0xa0
 8002264:	605a      	str	r2, [r3, #4]
      __HAL_I2S_CLEAR_OVRFLAG(hi2s);
 8002266:	2200      	movs	r2, #0
 8002268:	9204      	str	r2, [sp, #16]
 800226a:	68da      	ldr	r2, [r3, #12]
 800226c:	9204      	str	r2, [sp, #16]
 800226e:	689b      	ldr	r3, [r3, #8]
 8002270:	9304      	str	r3, [sp, #16]
 8002272:	9b04      	ldr	r3, [sp, #16]
      hi2s->State = HAL_I2S_STATE_READY;
 8002274:	2301      	movs	r3, #1
 8002276:	f884 3041 	strb.w	r3, [r4, #65]	; 0x41
      SET_BIT(hi2s->ErrorCode, HAL_I2S_ERROR_OVR);
 800227a:	6c63      	ldr	r3, [r4, #68]	; 0x44
 800227c:	f043 0302 	orr.w	r3, r3, #2
 8002280:	6463      	str	r3, [r4, #68]	; 0x44
      HAL_I2S_ErrorCallback(hi2s);
 8002282:	f7ff feff 	bl	8002084 <HAL_I2S_ErrorCallback>
    if (((i2ssr & I2S_FLAG_UDR) == I2S_FLAG_UDR) && ((i2scr2 & I2S_IT_ERR) != RESET))
 8002286:	9b00      	ldr	r3, [sp, #0]
 8002288:	0718      	lsls	r0, r3, #28
 800228a:	f140 8098 	bpl.w	80023be <HAL_I2SEx_FullDuplex_IRQHandler+0x23a>
 800228e:	9b02      	ldr	r3, [sp, #8]
 8002290:	0699      	lsls	r1, r3, #26
 8002292:	f140 8094 	bpl.w	80023be <HAL_I2SEx_FullDuplex_IRQHandler+0x23a>
      __HAL_I2S_DISABLE_IT(hi2s, (I2S_IT_TXE | I2S_IT_ERR));
 8002296:	6823      	ldr	r3, [r4, #0]
      __HAL_I2SEXT_DISABLE_IT(hi2s, (I2S_IT_RXNE | I2S_IT_ERR));
 8002298:	494a      	ldr	r1, [pc, #296]	; (80023c4 <HAL_I2SEx_FullDuplex_IRQHandler+0x240>)
      __HAL_I2S_DISABLE_IT(hi2s, (I2S_IT_TXE | I2S_IT_ERR));
 800229a:	685a      	ldr	r2, [r3, #4]
 800229c:	f022 02a0 	bic.w	r2, r2, #160	; 0xa0
 80022a0:	605a      	str	r2, [r3, #4]
      __HAL_I2SEXT_DISABLE_IT(hi2s, (I2S_IT_RXNE | I2S_IT_ERR));
 80022a2:	4a49      	ldr	r2, [pc, #292]	; (80023c8 <HAL_I2SEx_FullDuplex_IRQHandler+0x244>)
 80022a4:	428b      	cmp	r3, r1
 80022a6:	bf18      	it	ne
 80022a8:	f04f 2240 	movne.w	r2, #1073758208	; 0x40004000
 80022ac:	6851      	ldr	r1, [r2, #4]
 80022ae:	f021 0160 	bic.w	r1, r1, #96	; 0x60
 80022b2:	6051      	str	r1, [r2, #4]
      __HAL_I2S_CLEAR_UDRFLAG(hi2s);
 80022b4:	2200      	movs	r2, #0
 80022b6:	9205      	str	r2, [sp, #20]
 80022b8:	689b      	ldr	r3, [r3, #8]
 80022ba:	9305      	str	r3, [sp, #20]
 80022bc:	9b05      	ldr	r3, [sp, #20]
      hi2s->State = HAL_I2S_STATE_READY;
 80022be:	2301      	movs	r3, #1
 80022c0:	f884 3041 	strb.w	r3, [r4, #65]	; 0x41
      SET_BIT(hi2s->ErrorCode, HAL_I2S_ERROR_UDR);
 80022c4:	6c63      	ldr	r3, [r4, #68]	; 0x44
      HAL_I2S_ErrorCallback(hi2s);
 80022c6:	4620      	mov	r0, r4
      SET_BIT(hi2s->ErrorCode, HAL_I2S_ERROR_UDR);
 80022c8:	f043 0304 	orr.w	r3, r3, #4
 80022cc:	6463      	str	r3, [r4, #68]	; 0x44
}
 80022ce:	b006      	add	sp, #24
 80022d0:	e8bd 4010 	ldmia.w	sp!, {r4, lr}
      HAL_I2S_ErrorCallback(hi2s);
 80022d4:	f7ff bed6 	b.w	8002084 <HAL_I2S_ErrorCallback>
    if (((i2sextsr & I2S_FLAG_TXE) == I2S_FLAG_TXE) && ((i2sextcr2 & I2S_IT_TXE) != RESET))
 80022d8:	9a01      	ldr	r2, [sp, #4]
 80022da:	0792      	lsls	r2, r2, #30
 80022dc:	d51a      	bpl.n	8002314 <HAL_I2SEx_FullDuplex_IRQHandler+0x190>
 80022de:	9a03      	ldr	r2, [sp, #12]
 80022e0:	0611      	lsls	r1, r2, #24
 80022e2:	d517      	bpl.n	8002314 <HAL_I2SEx_FullDuplex_IRQHandler+0x190>
  I2SxEXT(hi2s->Instance)->DR = (*hi2s->pTxBuffPtr++);
 80022e4:	6a42      	ldr	r2, [r0, #36]	; 0x24
 80022e6:	1c91      	adds	r1, r2, #2
 80022e8:	8812      	ldrh	r2, [r2, #0]
 80022ea:	6241      	str	r1, [r0, #36]	; 0x24
 80022ec:	60da      	str	r2, [r3, #12]
  hi2s->TxXferCount--;
 80022ee:	8d42      	ldrh	r2, [r0, #42]	; 0x2a
 80022f0:	3a01      	subs	r2, #1
 80022f2:	b292      	uxth	r2, r2
 80022f4:	8542      	strh	r2, [r0, #42]	; 0x2a
  if (hi2s->TxXferCount == 0U)
 80022f6:	8d42      	ldrh	r2, [r0, #42]	; 0x2a
 80022f8:	b292      	uxth	r2, r2
 80022fa:	b95a      	cbnz	r2, 8002314 <HAL_I2SEx_FullDuplex_IRQHandler+0x190>
    __HAL_I2SEXT_DISABLE_IT(hi2s, (I2S_IT_TXE | I2S_IT_ERR));
 80022fc:	685a      	ldr	r2, [r3, #4]
 80022fe:	f022 02a0 	bic.w	r2, r2, #160	; 0xa0
 8002302:	605a      	str	r2, [r3, #4]
    if (hi2s->RxXferCount == 0U)
 8002304:	8e43      	ldrh	r3, [r0, #50]	; 0x32
 8002306:	b29b      	uxth	r3, r3
 8002308:	b923      	cbnz	r3, 8002314 <HAL_I2SEx_FullDuplex_IRQHandler+0x190>
      hi2s->State = HAL_I2S_STATE_READY;
 800230a:	2301      	movs	r3, #1
 800230c:	f880 3041 	strb.w	r3, [r0, #65]	; 0x41
      HAL_I2SEx_TxRxCpltCallback(hi2s);
 8002310:	f7ff ff36 	bl	8002180 <HAL_I2SEx_TxRxCpltCallback>
    if (((i2ssr & I2S_FLAG_RXNE) == I2S_FLAG_RXNE) && ((i2scr2 & I2S_IT_RXNE) != RESET))
 8002314:	9b00      	ldr	r3, [sp, #0]
 8002316:	07da      	lsls	r2, r3, #31
 8002318:	d51c      	bpl.n	8002354 <HAL_I2SEx_FullDuplex_IRQHandler+0x1d0>
 800231a:	9b02      	ldr	r3, [sp, #8]
 800231c:	065b      	lsls	r3, r3, #25
 800231e:	d519      	bpl.n	8002354 <HAL_I2SEx_FullDuplex_IRQHandler+0x1d0>
  (*hi2s->pRxBuffPtr++) = hi2s->Instance->DR;
 8002320:	6ae3      	ldr	r3, [r4, #44]	; 0x2c
 8002322:	6822      	ldr	r2, [r4, #0]
 8002324:	1c98      	adds	r0, r3, #2
 8002326:	68d1      	ldr	r1, [r2, #12]
 8002328:	62e0      	str	r0, [r4, #44]	; 0x2c
 800232a:	8019      	strh	r1, [r3, #0]
  hi2s->RxXferCount--;
 800232c:	8e63      	ldrh	r3, [r4, #50]	; 0x32
 800232e:	3b01      	subs	r3, #1
 8002330:	b29b      	uxth	r3, r3
 8002332:	8663      	strh	r3, [r4, #50]	; 0x32
  if (hi2s->RxXferCount == 0U)
 8002334:	8e63      	ldrh	r3, [r4, #50]	; 0x32
 8002336:	b29b      	uxth	r3, r3
 8002338:	b963      	cbnz	r3, 8002354 <HAL_I2SEx_FullDuplex_IRQHandler+0x1d0>
    __HAL_I2S_DISABLE_IT(hi2s, (I2S_IT_RXNE | I2S_IT_ERR));
 800233a:	6853      	ldr	r3, [r2, #4]
 800233c:	f023 0360 	bic.w	r3, r3, #96	; 0x60
 8002340:	6053      	str	r3, [r2, #4]
    if (hi2s->TxXferCount == 0U)
 8002342:	8d63      	ldrh	r3, [r4, #42]	; 0x2a
 8002344:	b29b      	uxth	r3, r3
 8002346:	b92b      	cbnz	r3, 8002354 <HAL_I2SEx_FullDuplex_IRQHandler+0x1d0>
      hi2s->State = HAL_I2S_STATE_READY;
 8002348:	2301      	movs	r3, #1
 800234a:	f884 3041 	strb.w	r3, [r4, #65]	; 0x41
      HAL_I2SEx_TxRxCpltCallback(hi2s);
 800234e:	4620      	mov	r0, r4
 8002350:	f7ff ff16 	bl	8002180 <HAL_I2SEx_TxRxCpltCallback>
    if (((i2ssr & I2S_FLAG_OVR) == I2S_FLAG_OVR) && ((i2scr2 & I2S_IT_ERR) != RESET))
 8002354:	9b00      	ldr	r3, [sp, #0]
 8002356:	0658      	lsls	r0, r3, #25
 8002358:	d51b      	bpl.n	8002392 <HAL_I2SEx_FullDuplex_IRQHandler+0x20e>
 800235a:	9b02      	ldr	r3, [sp, #8]
 800235c:	0699      	lsls	r1, r3, #26
 800235e:	d518      	bpl.n	8002392 <HAL_I2SEx_FullDuplex_IRQHandler+0x20e>
      __HAL_I2S_DISABLE_IT(hi2s, (I2S_IT_RXNE | I2S_IT_ERR));
 8002360:	6822      	ldr	r2, [r4, #0]
      __HAL_I2SEXT_DISABLE_IT(hi2s, (I2S_IT_TXE | I2S_IT_ERR));
 8002362:	4918      	ldr	r1, [pc, #96]	; (80023c4 <HAL_I2SEx_FullDuplex_IRQHandler+0x240>)
      __HAL_I2S_DISABLE_IT(hi2s, (I2S_IT_RXNE | I2S_IT_ERR));
 8002364:	6853      	ldr	r3, [r2, #4]
 8002366:	f023 0360 	bic.w	r3, r3, #96	; 0x60
 800236a:	6053      	str	r3, [r2, #4]
      __HAL_I2SEXT_DISABLE_IT(hi2s, (I2S_IT_TXE | I2S_IT_ERR));
 800236c:	4b16      	ldr	r3, [pc, #88]	; (80023c8 <HAL_I2SEx_FullDuplex_IRQHandler+0x244>)
 800236e:	428a      	cmp	r2, r1
 8002370:	bf18      	it	ne
 8002372:	f04f 2340 	movne.w	r3, #1073758208	; 0x40004000
      HAL_I2S_ErrorCallback(hi2s);
 8002376:	4620      	mov	r0, r4
      __HAL_I2SEXT_DISABLE_IT(hi2s, (I2S_IT_TXE | I2S_IT_ERR));
 8002378:	685a      	ldr	r2, [r3, #4]
 800237a:	f022 02a0 	bic.w	r2, r2, #160	; 0xa0
 800237e:	605a      	str	r2, [r3, #4]
      hi2s->State = HAL_I2S_STATE_READY;
 8002380:	2301      	movs	r3, #1
 8002382:	f884 3041 	strb.w	r3, [r4, #65]	; 0x41
      SET_BIT(hi2s->ErrorCode, HAL_I2S_ERROR_OVR);
 8002386:	6c63      	ldr	r3, [r4, #68]	; 0x44
 8002388:	f043 0302 	orr.w	r3, r3, #2
 800238c:	6463      	str	r3, [r4, #68]	; 0x44
      HAL_I2S_ErrorCallback(hi2s);
 800238e:	f7ff fe79 	bl	8002084 <HAL_I2S_ErrorCallback>
    if (((i2sextsr & I2S_FLAG_UDR) == I2S_FLAG_UDR) && ((i2sextcr2 & I2S_IT_ERR) != RESET))
 8002392:	9b01      	ldr	r3, [sp, #4]
 8002394:	071a      	lsls	r2, r3, #28
 8002396:	d512      	bpl.n	80023be <HAL_I2SEx_FullDuplex_IRQHandler+0x23a>
 8002398:	9b03      	ldr	r3, [sp, #12]
 800239a:	069b      	lsls	r3, r3, #26
 800239c:	d50f      	bpl.n	80023be <HAL_I2SEx_FullDuplex_IRQHandler+0x23a>
      __HAL_I2SEXT_DISABLE_IT(hi2s, (I2S_IT_TXE | I2S_IT_ERR));
 800239e:	6822      	ldr	r2, [r4, #0]
 80023a0:	4908      	ldr	r1, [pc, #32]	; (80023c4 <HAL_I2SEx_FullDuplex_IRQHandler+0x240>)
 80023a2:	4b09      	ldr	r3, [pc, #36]	; (80023c8 <HAL_I2SEx_FullDuplex_IRQHandler+0x244>)
 80023a4:	428a      	cmp	r2, r1
 80023a6:	bf18      	it	ne
 80023a8:	f04f 2340 	movne.w	r3, #1073758208	; 0x40004000
 80023ac:	6859      	ldr	r1, [r3, #4]
 80023ae:	f021 01a0 	bic.w	r1, r1, #160	; 0xa0
 80023b2:	6059      	str	r1, [r3, #4]
      __HAL_I2S_DISABLE_IT(hi2s, (I2S_IT_RXNE | I2S_IT_ERR));
 80023b4:	6853      	ldr	r3, [r2, #4]
 80023b6:	f023 0360 	bic.w	r3, r3, #96	; 0x60
 80023ba:	6053      	str	r3, [r2, #4]
 80023bc:	e77f      	b.n	80022be <HAL_I2SEx_FullDuplex_IRQHandler+0x13a>
}
 80023be:	b006      	add	sp, #24
 80023c0:	bd10      	pop	{r4, pc}
 80023c2:	bf00      	nop
 80023c4:	40003800 	.word	0x40003800
 80023c8:	40003400 	.word	0x40003400

080023cc <HAL_RCC_OscConfig>:
  *         supported by this API. User should request a transition to HSE Off
  *         first and then HSE On or HSE Bypass.
  * @retval HAL status
  */
__weak HAL_StatusTypeDef HAL_RCC_OscConfig(RCC_OscInitTypeDef  *RCC_OscInitStruct)
{
 80023cc:	e92d 41f3 	stmdb	sp!, {r0, r1, r4, r5, r6, r7, r8, lr}
  uint32_t tickstart;

  /* Check Null pointer */
  if(RCC_OscInitStruct == NULL)
 80023d0:	4604      	mov	r4, r0
 80023d2:	b918      	cbnz	r0, 80023dc <HAL_RCC_OscConfig+0x10>
  {
    return HAL_ERROR;
 80023d4:	2001      	movs	r0, #1
    {
      return HAL_ERROR;
    }
  }
  return HAL_OK;
}
 80023d6:	b002      	add	sp, #8
 80023d8:	e8bd 81f0 	ldmia.w	sp!, {r4, r5, r6, r7, r8, pc}
  if(((RCC_OscInitStruct->OscillatorType) & RCC_OSCILLATORTYPE_HSE) == RCC_OSCILLATORTYPE_HSE)
 80023dc:	6803      	ldr	r3, [r0, #0]
 80023de:	07dd      	lsls	r5, r3, #31
 80023e0:	d410      	bmi.n	8002404 <HAL_RCC_OscConfig+0x38>
  if(((RCC_OscInitStruct->OscillatorType) & RCC_OSCILLATORTYPE_HSI) == RCC_OSCILLATORTYPE_HSI)
 80023e2:	6823      	ldr	r3, [r4, #0]
 80023e4:	0798      	lsls	r0, r3, #30
 80023e6:	d458      	bmi.n	800249a <HAL_RCC_OscConfig+0xce>
  if(((RCC_OscInitStruct->OscillatorType) & RCC_OSCILLATORTYPE_LSI) == RCC_OSCILLATORTYPE_LSI)
 80023e8:	6823      	ldr	r3, [r4, #0]
 80023ea:	071a      	lsls	r2, r3, #28
 80023ec:	f100 809a 	bmi.w	8002524 <HAL_RCC_OscConfig+0x158>
  if(((RCC_OscInitStruct->OscillatorType) & RCC_OSCILLATORTYPE_LSE) == RCC_OSCILLATORTYPE_LSE)
 80023f0:	6823      	ldr	r3, [r4, #0]
 80023f2:	075b      	lsls	r3, r3, #29
 80023f4:	f100 80ba 	bmi.w	800256c <HAL_RCC_OscConfig+0x1a0>
  if ((RCC_OscInitStruct->PLL.PLLState) != RCC_PLL_NONE)
 80023f8:	69a2      	ldr	r2, [r4, #24]
 80023fa:	2a00      	cmp	r2, #0
 80023fc:	f040 8122 	bne.w	8002644 <HAL_RCC_OscConfig+0x278>
  return HAL_OK;
 8002400:	2000      	movs	r0, #0
 8002402:	e7e8      	b.n	80023d6 <HAL_RCC_OscConfig+0xa>
    if((__HAL_RCC_GET_SYSCLK_SOURCE() == RCC_CFGR_SWS_HSE) ||\
 8002404:	4b8c      	ldr	r3, [pc, #560]	; (8002638 <HAL_RCC_OscConfig+0x26c>)
 8002406:	689a      	ldr	r2, [r3, #8]
 8002408:	f002 020c 	and.w	r2, r2, #12
 800240c:	2a04      	cmp	r2, #4
 800240e:	d007      	beq.n	8002420 <HAL_RCC_OscConfig+0x54>
      ((__HAL_RCC_GET_SYSCLK_SOURCE() == RCC_CFGR_SWS_PLL) && ((RCC->PLLCFGR & RCC_PLLCFGR_PLLSRC) == RCC_PLLCFGR_PLLSRC_HSE)))
 8002410:	689a      	ldr	r2, [r3, #8]
 8002412:	f002 020c 	and.w	r2, r2, #12
    if((__HAL_RCC_GET_SYSCLK_SOURCE() == RCC_CFGR_SWS_HSE) ||\
 8002416:	2a08      	cmp	r2, #8
 8002418:	d10a      	bne.n	8002430 <HAL_RCC_OscConfig+0x64>
      ((__HAL_RCC_GET_SYSCLK_SOURCE() == RCC_CFGR_SWS_PLL) && ((RCC->PLLCFGR & RCC_PLLCFGR_PLLSRC) == RCC_PLLCFGR_PLLSRC_HSE)))
 800241a:	685b      	ldr	r3, [r3, #4]
 800241c:	0259      	lsls	r1, r3, #9
 800241e:	d507      	bpl.n	8002430 <HAL_RCC_OscConfig+0x64>
      if((__HAL_RCC_GET_FLAG(RCC_FLAG_HSERDY) != RESET) && (RCC_OscInitStruct->HSEState == RCC_HSE_OFF))
 8002420:	4b85      	ldr	r3, [pc, #532]	; (8002638 <HAL_RCC_OscConfig+0x26c>)
 8002422:	681b      	ldr	r3, [r3, #0]
 8002424:	039a      	lsls	r2, r3, #14
 8002426:	d5dc      	bpl.n	80023e2 <HAL_RCC_OscConfig+0x16>
 8002428:	6863      	ldr	r3, [r4, #4]
 800242a:	2b00      	cmp	r3, #0
 800242c:	d1d9      	bne.n	80023e2 <HAL_RCC_OscConfig+0x16>
 800242e:	e7d1      	b.n	80023d4 <HAL_RCC_OscConfig+0x8>
      __HAL_RCC_HSE_CONFIG(RCC_OscInitStruct->HSEState);
 8002430:	6863      	ldr	r3, [r4, #4]
 8002432:	4d81      	ldr	r5, [pc, #516]	; (8002638 <HAL_RCC_OscConfig+0x26c>)
 8002434:	f5b3 3f80 	cmp.w	r3, #65536	; 0x10000
 8002438:	d111      	bne.n	800245e <HAL_RCC_OscConfig+0x92>
 800243a:	682b      	ldr	r3, [r5, #0]
 800243c:	f443 3380 	orr.w	r3, r3, #65536	; 0x10000
 8002440:	602b      	str	r3, [r5, #0]
        tickstart = HAL_GetTick();
 8002442:	f7fe fdc1 	bl	8000fc8 <HAL_GetTick>
        while(__HAL_RCC_GET_FLAG(RCC_FLAG_HSERDY) == RESET)
 8002446:	4e7c      	ldr	r6, [pc, #496]	; (8002638 <HAL_RCC_OscConfig+0x26c>)
        tickstart = HAL_GetTick();
 8002448:	4605      	mov	r5, r0
        while(__HAL_RCC_GET_FLAG(RCC_FLAG_HSERDY) == RESET)
 800244a:	6833      	ldr	r3, [r6, #0]
 800244c:	039b      	lsls	r3, r3, #14
 800244e:	d4c8      	bmi.n	80023e2 <HAL_RCC_OscConfig+0x16>
          if((HAL_GetTick() - tickstart ) > HSE_TIMEOUT_VALUE)
 8002450:	f7fe fdba 	bl	8000fc8 <HAL_GetTick>
 8002454:	1b40      	subs	r0, r0, r5
 8002456:	2864      	cmp	r0, #100	; 0x64
 8002458:	d9f7      	bls.n	800244a <HAL_RCC_OscConfig+0x7e>
            return HAL_TIMEOUT;
 800245a:	2003      	movs	r0, #3
 800245c:	e7bb      	b.n	80023d6 <HAL_RCC_OscConfig+0xa>
      __HAL_RCC_HSE_CONFIG(RCC_OscInitStruct->HSEState);
 800245e:	f5b3 2fa0 	cmp.w	r3, #327680	; 0x50000
 8002462:	d104      	bne.n	800246e <HAL_RCC_OscConfig+0xa2>
 8002464:	682b      	ldr	r3, [r5, #0]
 8002466:	f443 2380 	orr.w	r3, r3, #262144	; 0x40000
 800246a:	602b      	str	r3, [r5, #0]
 800246c:	e7e5      	b.n	800243a <HAL_RCC_OscConfig+0x6e>
 800246e:	682a      	ldr	r2, [r5, #0]
 8002470:	f422 3280 	bic.w	r2, r2, #65536	; 0x10000
 8002474:	602a      	str	r2, [r5, #0]
 8002476:	682a      	ldr	r2, [r5, #0]
 8002478:	f422 2280 	bic.w	r2, r2, #262144	; 0x40000
 800247c:	602a      	str	r2, [r5, #0]
      if((RCC_OscInitStruct->HSEState) != RCC_HSE_OFF)
 800247e:	2b00      	cmp	r3, #0
 8002480:	d1df      	bne.n	8002442 <HAL_RCC_OscConfig+0x76>
        tickstart = HAL_GetTick();
 8002482:	f7fe fda1 	bl	8000fc8 <HAL_GetTick>
 8002486:	4606      	mov	r6, r0
        while(__HAL_RCC_GET_FLAG(RCC_FLAG_HSERDY) != RESET)
 8002488:	682b      	ldr	r3, [r5, #0]
 800248a:	039f      	lsls	r7, r3, #14
 800248c:	d5a9      	bpl.n	80023e2 <HAL_RCC_OscConfig+0x16>
          if((HAL_GetTick() - tickstart ) > HSE_TIMEOUT_VALUE)
 800248e:	f7fe fd9b 	bl	8000fc8 <HAL_GetTick>
 8002492:	1b80      	subs	r0, r0, r6
 8002494:	2864      	cmp	r0, #100	; 0x64
 8002496:	d9f7      	bls.n	8002488 <HAL_RCC_OscConfig+0xbc>
 8002498:	e7df      	b.n	800245a <HAL_RCC_OscConfig+0x8e>
    if((__HAL_RCC_GET_SYSCLK_SOURCE() == RCC_CFGR_SWS_HSI) ||\
 800249a:	4b67      	ldr	r3, [pc, #412]	; (8002638 <HAL_RCC_OscConfig+0x26c>)
 800249c:	689a      	ldr	r2, [r3, #8]
 800249e:	f012 0f0c 	tst.w	r2, #12
 80024a2:	d007      	beq.n	80024b4 <HAL_RCC_OscConfig+0xe8>
      ((__HAL_RCC_GET_SYSCLK_SOURCE() == RCC_CFGR_SWS_PLL) && ((RCC->PLLCFGR & RCC_PLLCFGR_PLLSRC) == RCC_PLLCFGR_PLLSRC_HSI)))
 80024a4:	689a      	ldr	r2, [r3, #8]
 80024a6:	f002 020c 	and.w	r2, r2, #12
    if((__HAL_RCC_GET_SYSCLK_SOURCE() == RCC_CFGR_SWS_HSI) ||\
 80024aa:	2a08      	cmp	r2, #8
 80024ac:	d111      	bne.n	80024d2 <HAL_RCC_OscConfig+0x106>
      ((__HAL_RCC_GET_SYSCLK_SOURCE() == RCC_CFGR_SWS_PLL) && ((RCC->PLLCFGR & RCC_PLLCFGR_PLLSRC) == RCC_PLLCFGR_PLLSRC_HSI)))
 80024ae:	685b      	ldr	r3, [r3, #4]
 80024b0:	025e      	lsls	r6, r3, #9
 80024b2:	d40e      	bmi.n	80024d2 <HAL_RCC_OscConfig+0x106>
      if((__HAL_RCC_GET_FLAG(RCC_FLAG_HSIRDY) != RESET) && (RCC_OscInitStruct->HSIState != RCC_HSI_ON))
 80024b4:	4a60      	ldr	r2, [pc, #384]	; (8002638 <HAL_RCC_OscConfig+0x26c>)
 80024b6:	6813      	ldr	r3, [r2, #0]
 80024b8:	079d      	lsls	r5, r3, #30
 80024ba:	d502      	bpl.n	80024c2 <HAL_RCC_OscConfig+0xf6>
 80024bc:	68e3      	ldr	r3, [r4, #12]
 80024be:	2b01      	cmp	r3, #1
 80024c0:	d188      	bne.n	80023d4 <HAL_RCC_OscConfig+0x8>
        __HAL_RCC_HSI_CALIBRATIONVALUE_ADJUST(RCC_OscInitStruct->HSICalibrationValue);
 80024c2:	6813      	ldr	r3, [r2, #0]
 80024c4:	6921      	ldr	r1, [r4, #16]
 80024c6:	f023 03f8 	bic.w	r3, r3, #248	; 0xf8
 80024ca:	ea43 03c1 	orr.w	r3, r3, r1, lsl #3
 80024ce:	6013      	str	r3, [r2, #0]
      if((__HAL_RCC_GET_FLAG(RCC_FLAG_HSIRDY) != RESET) && (RCC_OscInitStruct->HSIState != RCC_HSI_ON))
 80024d0:	e78a      	b.n	80023e8 <HAL_RCC_OscConfig+0x1c>
      if((RCC_OscInitStruct->HSIState)!= RCC_HSI_OFF)
 80024d2:	68e2      	ldr	r2, [r4, #12]
 80024d4:	4b59      	ldr	r3, [pc, #356]	; (800263c <HAL_RCC_OscConfig+0x270>)
 80024d6:	b1b2      	cbz	r2, 8002506 <HAL_RCC_OscConfig+0x13a>
        __HAL_RCC_HSI_ENABLE();
 80024d8:	2201      	movs	r2, #1
 80024da:	601a      	str	r2, [r3, #0]
        tickstart = HAL_GetTick();
 80024dc:	f7fe fd74 	bl	8000fc8 <HAL_GetTick>
        while(__HAL_RCC_GET_FLAG(RCC_FLAG_HSIRDY) == RESET)
 80024e0:	4d55      	ldr	r5, [pc, #340]	; (8002638 <HAL_RCC_OscConfig+0x26c>)
        tickstart = HAL_GetTick();
 80024e2:	4606      	mov	r6, r0
        while(__HAL_RCC_GET_FLAG(RCC_FLAG_HSIRDY) == RESET)
 80024e4:	682b      	ldr	r3, [r5, #0]
 80024e6:	0798      	lsls	r0, r3, #30
 80024e8:	d507      	bpl.n	80024fa <HAL_RCC_OscConfig+0x12e>
        __HAL_RCC_HSI_CALIBRATIONVALUE_ADJUST(RCC_OscInitStruct->HSICalibrationValue);
 80024ea:	682b      	ldr	r3, [r5, #0]
 80024ec:	6922      	ldr	r2, [r4, #16]
 80024ee:	f023 03f8 	bic.w	r3, r3, #248	; 0xf8
 80024f2:	ea43 03c2 	orr.w	r3, r3, r2, lsl #3
 80024f6:	602b      	str	r3, [r5, #0]
 80024f8:	e776      	b.n	80023e8 <HAL_RCC_OscConfig+0x1c>
          if((HAL_GetTick() - tickstart ) > HSI_TIMEOUT_VALUE)
 80024fa:	f7fe fd65 	bl	8000fc8 <HAL_GetTick>
 80024fe:	1b80      	subs	r0, r0, r6
 8002500:	2802      	cmp	r0, #2
 8002502:	d9ef      	bls.n	80024e4 <HAL_RCC_OscConfig+0x118>
 8002504:	e7a9      	b.n	800245a <HAL_RCC_OscConfig+0x8e>
        __HAL_RCC_HSI_DISABLE();
 8002506:	601a      	str	r2, [r3, #0]
        tickstart = HAL_GetTick();
 8002508:	f7fe fd5e 	bl	8000fc8 <HAL_GetTick>
        while(__HAL_RCC_GET_FLAG(RCC_FLAG_HSIRDY) != RESET)
 800250c:	4e4a      	ldr	r6, [pc, #296]	; (8002638 <HAL_RCC_OscConfig+0x26c>)
        tickstart = HAL_GetTick();
 800250e:	4605      	mov	r5, r0
        while(__HAL_RCC_GET_FLAG(RCC_FLAG_HSIRDY) != RESET)
 8002510:	6833      	ldr	r3, [r6, #0]
 8002512:	0799      	lsls	r1, r3, #30
 8002514:	f57f af68 	bpl.w	80023e8 <HAL_RCC_OscConfig+0x1c>
          if((HAL_GetTick() - tickstart ) > HSI_TIMEOUT_VALUE)
 8002518:	f7fe fd56 	bl	8000fc8 <HAL_GetTick>
 800251c:	1b40      	subs	r0, r0, r5
 800251e:	2802      	cmp	r0, #2
 8002520:	d9f6      	bls.n	8002510 <HAL_RCC_OscConfig+0x144>
 8002522:	e79a      	b.n	800245a <HAL_RCC_OscConfig+0x8e>
    if((RCC_OscInitStruct->LSIState)!= RCC_LSI_OFF)
 8002524:	6962      	ldr	r2, [r4, #20]
 8002526:	4b45      	ldr	r3, [pc, #276]	; (800263c <HAL_RCC_OscConfig+0x270>)
 8002528:	b182      	cbz	r2, 800254c <HAL_RCC_OscConfig+0x180>
      __HAL_RCC_LSI_ENABLE();
 800252a:	2201      	movs	r2, #1
 800252c:	f8c3 2e80 	str.w	r2, [r3, #3712]	; 0xe80
      tickstart = HAL_GetTick();
 8002530:	f7fe fd4a 	bl	8000fc8 <HAL_GetTick>
      while(__HAL_RCC_GET_FLAG(RCC_FLAG_LSIRDY) == RESET)
 8002534:	4e40      	ldr	r6, [pc, #256]	; (8002638 <HAL_RCC_OscConfig+0x26c>)
      tickstart = HAL_GetTick();
 8002536:	4605      	mov	r5, r0
      while(__HAL_RCC_GET_FLAG(RCC_FLAG_LSIRDY) == RESET)
 8002538:	6f73      	ldr	r3, [r6, #116]	; 0x74
 800253a:	079f      	lsls	r7, r3, #30
 800253c:	f53f af58 	bmi.w	80023f0 <HAL_RCC_OscConfig+0x24>
        if((HAL_GetTick() - tickstart ) > LSI_TIMEOUT_VALUE)
 8002540:	f7fe fd42 	bl	8000fc8 <HAL_GetTick>
 8002544:	1b40      	subs	r0, r0, r5
 8002546:	2802      	cmp	r0, #2
 8002548:	d9f6      	bls.n	8002538 <HAL_RCC_OscConfig+0x16c>
 800254a:	e786      	b.n	800245a <HAL_RCC_OscConfig+0x8e>
      __HAL_RCC_LSI_DISABLE();
 800254c:	f8c3 2e80 	str.w	r2, [r3, #3712]	; 0xe80
      tickstart = HAL_GetTick();
 8002550:	f7fe fd3a 	bl	8000fc8 <HAL_GetTick>
      while(__HAL_RCC_GET_FLAG(RCC_FLAG_LSIRDY) != RESET)
 8002554:	4e38      	ldr	r6, [pc, #224]	; (8002638 <HAL_RCC_OscConfig+0x26c>)
      tickstart = HAL_GetTick();
 8002556:	4605      	mov	r5, r0
      while(__HAL_RCC_GET_FLAG(RCC_FLAG_LSIRDY) != RESET)
 8002558:	6f73      	ldr	r3, [r6, #116]	; 0x74
 800255a:	0798      	lsls	r0, r3, #30
 800255c:	f57f af48 	bpl.w	80023f0 <HAL_RCC_OscConfig+0x24>
        if((HAL_GetTick() - tickstart ) > LSI_TIMEOUT_VALUE)
 8002560:	f7fe fd32 	bl	8000fc8 <HAL_GetTick>
 8002564:	1b40      	subs	r0, r0, r5
 8002566:	2802      	cmp	r0, #2
 8002568:	d9f6      	bls.n	8002558 <HAL_RCC_OscConfig+0x18c>
 800256a:	e776      	b.n	800245a <HAL_RCC_OscConfig+0x8e>
    if(__HAL_RCC_PWR_IS_CLK_DISABLED())
 800256c:	4b32      	ldr	r3, [pc, #200]	; (8002638 <HAL_RCC_OscConfig+0x26c>)
 800256e:	6c1a      	ldr	r2, [r3, #64]	; 0x40
 8002570:	f012 5280 	ands.w	r2, r2, #268435456	; 0x10000000
 8002574:	d128      	bne.n	80025c8 <HAL_RCC_OscConfig+0x1fc>
      __HAL_RCC_PWR_CLK_ENABLE();
 8002576:	9201      	str	r2, [sp, #4]
 8002578:	6c1a      	ldr	r2, [r3, #64]	; 0x40
 800257a:	f042 5280 	orr.w	r2, r2, #268435456	; 0x10000000
 800257e:	641a      	str	r2, [r3, #64]	; 0x40
 8002580:	6c1b      	ldr	r3, [r3, #64]	; 0x40
 8002582:	f003 5380 	and.w	r3, r3, #268435456	; 0x10000000
 8002586:	9301      	str	r3, [sp, #4]
 8002588:	9b01      	ldr	r3, [sp, #4]
      pwrclkchanged = SET;
 800258a:	2701      	movs	r7, #1
    if(HAL_IS_BIT_CLR(PWR->CR, PWR_CR_DBP))
 800258c:	4d2c      	ldr	r5, [pc, #176]	; (8002640 <HAL_RCC_OscConfig+0x274>)
 800258e:	682b      	ldr	r3, [r5, #0]
 8002590:	05d9      	lsls	r1, r3, #23
 8002592:	d51b      	bpl.n	80025cc <HAL_RCC_OscConfig+0x200>
    __HAL_RCC_LSE_CONFIG(RCC_OscInitStruct->LSEState);
 8002594:	68a3      	ldr	r3, [r4, #8]
 8002596:	4d28      	ldr	r5, [pc, #160]	; (8002638 <HAL_RCC_OscConfig+0x26c>)
 8002598:	2b01      	cmp	r3, #1
 800259a:	d127      	bne.n	80025ec <HAL_RCC_OscConfig+0x220>
 800259c:	6f2b      	ldr	r3, [r5, #112]	; 0x70
 800259e:	f043 0301 	orr.w	r3, r3, #1
 80025a2:	672b      	str	r3, [r5, #112]	; 0x70
      tickstart = HAL_GetTick();
 80025a4:	f7fe fd10 	bl	8000fc8 <HAL_GetTick>
      while(__HAL_RCC_GET_FLAG(RCC_FLAG_LSERDY) == RESET)
 80025a8:	4e23      	ldr	r6, [pc, #140]	; (8002638 <HAL_RCC_OscConfig+0x26c>)
      tickstart = HAL_GetTick();
 80025aa:	4605      	mov	r5, r0
        if((HAL_GetTick() - tickstart ) > RCC_LSE_TIMEOUT_VALUE)
 80025ac:	f241 3888 	movw	r8, #5000	; 0x1388
      while(__HAL_RCC_GET_FLAG(RCC_FLAG_LSERDY) == RESET)
 80025b0:	6f33      	ldr	r3, [r6, #112]	; 0x70
 80025b2:	079b      	lsls	r3, r3, #30
 80025b4:	d539      	bpl.n	800262a <HAL_RCC_OscConfig+0x25e>
    if(pwrclkchanged == SET)
 80025b6:	2f00      	cmp	r7, #0
 80025b8:	f43f af1e 	beq.w	80023f8 <HAL_RCC_OscConfig+0x2c>
      __HAL_RCC_PWR_CLK_DISABLE();
 80025bc:	4a1e      	ldr	r2, [pc, #120]	; (8002638 <HAL_RCC_OscConfig+0x26c>)
 80025be:	6c13      	ldr	r3, [r2, #64]	; 0x40
 80025c0:	f023 5380 	bic.w	r3, r3, #268435456	; 0x10000000
 80025c4:	6413      	str	r3, [r2, #64]	; 0x40
 80025c6:	e717      	b.n	80023f8 <HAL_RCC_OscConfig+0x2c>
    FlagStatus       pwrclkchanged = RESET;
 80025c8:	2700      	movs	r7, #0
 80025ca:	e7df      	b.n	800258c <HAL_RCC_OscConfig+0x1c0>
      SET_BIT(PWR->CR, PWR_CR_DBP);
 80025cc:	682b      	ldr	r3, [r5, #0]
 80025ce:	f443 7380 	orr.w	r3, r3, #256	; 0x100
 80025d2:	602b      	str	r3, [r5, #0]
      tickstart = HAL_GetTick();
 80025d4:	f7fe fcf8 	bl	8000fc8 <HAL_GetTick>
 80025d8:	4606      	mov	r6, r0
      while(HAL_IS_BIT_CLR(PWR->CR, PWR_CR_DBP))
 80025da:	682b      	ldr	r3, [r5, #0]
 80025dc:	05da      	lsls	r2, r3, #23
 80025de:	d4d9      	bmi.n	8002594 <HAL_RCC_OscConfig+0x1c8>
        if((HAL_GetTick() - tickstart) > RCC_DBP_TIMEOUT_VALUE)
 80025e0:	f7fe fcf2 	bl	8000fc8 <HAL_GetTick>
 80025e4:	1b80      	subs	r0, r0, r6
 80025e6:	2802      	cmp	r0, #2
 80025e8:	d9f7      	bls.n	80025da <HAL_RCC_OscConfig+0x20e>
 80025ea:	e736      	b.n	800245a <HAL_RCC_OscConfig+0x8e>
    __HAL_RCC_LSE_CONFIG(RCC_OscInitStruct->LSEState);
 80025ec:	2b05      	cmp	r3, #5
 80025ee:	d104      	bne.n	80025fa <HAL_RCC_OscConfig+0x22e>
 80025f0:	6f2b      	ldr	r3, [r5, #112]	; 0x70
 80025f2:	f043 0304 	orr.w	r3, r3, #4
 80025f6:	672b      	str	r3, [r5, #112]	; 0x70
 80025f8:	e7d0      	b.n	800259c <HAL_RCC_OscConfig+0x1d0>
 80025fa:	6f2a      	ldr	r2, [r5, #112]	; 0x70
 80025fc:	f022 0201 	bic.w	r2, r2, #1
 8002600:	672a      	str	r2, [r5, #112]	; 0x70
 8002602:	6f2a      	ldr	r2, [r5, #112]	; 0x70
 8002604:	f022 0204 	bic.w	r2, r2, #4
 8002608:	672a      	str	r2, [r5, #112]	; 0x70
    if((RCC_OscInitStruct->LSEState) != RCC_LSE_OFF)
 800260a:	2b00      	cmp	r3, #0
 800260c:	d1ca      	bne.n	80025a4 <HAL_RCC_OscConfig+0x1d8>
      tickstart = HAL_GetTick();
 800260e:	f7fe fcdb 	bl	8000fc8 <HAL_GetTick>
        if((HAL_GetTick() - tickstart ) > RCC_LSE_TIMEOUT_VALUE)
 8002612:	f241 3888 	movw	r8, #5000	; 0x1388
      tickstart = HAL_GetTick();
 8002616:	4606      	mov	r6, r0
      while(__HAL_RCC_GET_FLAG(RCC_FLAG_LSERDY) != RESET)
 8002618:	6f2b      	ldr	r3, [r5, #112]	; 0x70
 800261a:	0798      	lsls	r0, r3, #30
 800261c:	d5cb      	bpl.n	80025b6 <HAL_RCC_OscConfig+0x1ea>
        if((HAL_GetTick() - tickstart ) > RCC_LSE_TIMEOUT_VALUE)
 800261e:	f7fe fcd3 	bl	8000fc8 <HAL_GetTick>
 8002622:	1b80      	subs	r0, r0, r6
 8002624:	4540      	cmp	r0, r8
 8002626:	d9f7      	bls.n	8002618 <HAL_RCC_OscConfig+0x24c>
 8002628:	e717      	b.n	800245a <HAL_RCC_OscConfig+0x8e>
        if((HAL_GetTick() - tickstart ) > RCC_LSE_TIMEOUT_VALUE)
 800262a:	f7fe fccd 	bl	8000fc8 <HAL_GetTick>
 800262e:	1b40      	subs	r0, r0, r5
 8002630:	4540      	cmp	r0, r8
 8002632:	d9bd      	bls.n	80025b0 <HAL_RCC_OscConfig+0x1e4>
 8002634:	e711      	b.n	800245a <HAL_RCC_OscConfig+0x8e>
 8002636:	bf00      	nop
 8002638:	40023800 	.word	0x40023800
 800263c:	42470000 	.word	0x42470000
 8002640:	40007000 	.word	0x40007000
    if(__HAL_RCC_GET_SYSCLK_SOURCE() != RCC_CFGR_SWS_PLL)
 8002644:	4d22      	ldr	r5, [pc, #136]	; (80026d0 <HAL_RCC_OscConfig+0x304>)
 8002646:	68ab      	ldr	r3, [r5, #8]
 8002648:	f003 030c 	and.w	r3, r3, #12
 800264c:	2b08      	cmp	r3, #8
 800264e:	f43f aec1 	beq.w	80023d4 <HAL_RCC_OscConfig+0x8>
      if((RCC_OscInitStruct->PLL.PLLState) == RCC_PLL_ON)
 8002652:	4b20      	ldr	r3, [pc, #128]	; (80026d4 <HAL_RCC_OscConfig+0x308>)
 8002654:	2a02      	cmp	r2, #2
 8002656:	f04f 0200 	mov.w	r2, #0
        __HAL_RCC_PLL_DISABLE();
 800265a:	661a      	str	r2, [r3, #96]	; 0x60
      if((RCC_OscInitStruct->PLL.PLLState) == RCC_PLL_ON)
 800265c:	d12b      	bne.n	80026b6 <HAL_RCC_OscConfig+0x2ea>
        tickstart = HAL_GetTick();
 800265e:	f7fe fcb3 	bl	8000fc8 <HAL_GetTick>
 8002662:	4606      	mov	r6, r0
        while(__HAL_RCC_GET_FLAG(RCC_FLAG_PLLRDY) != RESET)
 8002664:	682b      	ldr	r3, [r5, #0]
 8002666:	0199      	lsls	r1, r3, #6
 8002668:	d41f      	bmi.n	80026aa <HAL_RCC_OscConfig+0x2de>
        WRITE_REG(RCC->PLLCFGR, (RCC_OscInitStruct->PLL.PLLSource                                            | \
 800266a:	e9d4 3207 	ldrd	r3, r2, [r4, #28]
 800266e:	4313      	orrs	r3, r2
 8002670:	6a62      	ldr	r2, [r4, #36]	; 0x24
 8002672:	ea43 1382 	orr.w	r3, r3, r2, lsl #6
 8002676:	6ae2      	ldr	r2, [r4, #44]	; 0x2c
 8002678:	ea43 6302 	orr.w	r3, r3, r2, lsl #24
 800267c:	6aa2      	ldr	r2, [r4, #40]	; 0x28
 800267e:	0852      	lsrs	r2, r2, #1
 8002680:	3a01      	subs	r2, #1
 8002682:	ea43 4302 	orr.w	r3, r3, r2, lsl #16
 8002686:	606b      	str	r3, [r5, #4]
        __HAL_RCC_PLL_ENABLE();
 8002688:	4b12      	ldr	r3, [pc, #72]	; (80026d4 <HAL_RCC_OscConfig+0x308>)
        while(__HAL_RCC_GET_FLAG(RCC_FLAG_PLLRDY) == RESET)
 800268a:	4d11      	ldr	r5, [pc, #68]	; (80026d0 <HAL_RCC_OscConfig+0x304>)
        __HAL_RCC_PLL_ENABLE();
 800268c:	2201      	movs	r2, #1
 800268e:	661a      	str	r2, [r3, #96]	; 0x60
        tickstart = HAL_GetTick();
 8002690:	f7fe fc9a 	bl	8000fc8 <HAL_GetTick>
 8002694:	4604      	mov	r4, r0
        while(__HAL_RCC_GET_FLAG(RCC_FLAG_PLLRDY) == RESET)
 8002696:	682b      	ldr	r3, [r5, #0]
 8002698:	019a      	lsls	r2, r3, #6
 800269a:	f53f aeb1 	bmi.w	8002400 <HAL_RCC_OscConfig+0x34>
          if((HAL_GetTick() - tickstart ) > PLL_TIMEOUT_VALUE)
 800269e:	f7fe fc93 	bl	8000fc8 <HAL_GetTick>
 80026a2:	1b00      	subs	r0, r0, r4
 80026a4:	2802      	cmp	r0, #2
 80026a6:	d9f6      	bls.n	8002696 <HAL_RCC_OscConfig+0x2ca>
 80026a8:	e6d7      	b.n	800245a <HAL_RCC_OscConfig+0x8e>
          if((HAL_GetTick() - tickstart ) > PLL_TIMEOUT_VALUE)
 80026aa:	f7fe fc8d 	bl	8000fc8 <HAL_GetTick>
 80026ae:	1b80      	subs	r0, r0, r6
 80026b0:	2802      	cmp	r0, #2
 80026b2:	d9d7      	bls.n	8002664 <HAL_RCC_OscConfig+0x298>
 80026b4:	e6d1      	b.n	800245a <HAL_RCC_OscConfig+0x8e>
        tickstart = HAL_GetTick();
 80026b6:	f7fe fc87 	bl	8000fc8 <HAL_GetTick>
 80026ba:	4604      	mov	r4, r0
        while(__HAL_RCC_GET_FLAG(RCC_FLAG_PLLRDY) != RESET)
 80026bc:	682b      	ldr	r3, [r5, #0]
 80026be:	019b      	lsls	r3, r3, #6
 80026c0:	f57f ae9e 	bpl.w	8002400 <HAL_RCC_OscConfig+0x34>
          if((HAL_GetTick() - tickstart ) > PLL_TIMEOUT_VALUE)
 80026c4:	f7fe fc80 	bl	8000fc8 <HAL_GetTick>
 80026c8:	1b00      	subs	r0, r0, r4
 80026ca:	2802      	cmp	r0, #2
 80026cc:	d9f6      	bls.n	80026bc <HAL_RCC_OscConfig+0x2f0>
 80026ce:	e6c4      	b.n	800245a <HAL_RCC_OscConfig+0x8e>
 80026d0:	40023800 	.word	0x40023800
 80026d4:	42470000 	.word	0x42470000

080026d8 <HAL_RCC_GetSysClockFreq>:
{
  uint32_t pllm = 0U, pllvco = 0U, pllp = 0U;
  uint32_t sysclockfreq = 0U;

  /* Get SYSCLK source -------------------------------------------------------*/
  switch (RCC->CFGR & RCC_CFGR_SWS)
 80026d8:	4913      	ldr	r1, [pc, #76]	; (8002728 <HAL_RCC_GetSysClockFreq+0x50>)
{
 80026da:	b508      	push	{r3, lr}
  switch (RCC->CFGR & RCC_CFGR_SWS)
 80026dc:	688b      	ldr	r3, [r1, #8]
 80026de:	f003 030c 	and.w	r3, r3, #12
 80026e2:	2b04      	cmp	r3, #4
 80026e4:	d01c      	beq.n	8002720 <HAL_RCC_GetSysClockFreq+0x48>
 80026e6:	2b08      	cmp	r3, #8
 80026e8:	d11c      	bne.n	8002724 <HAL_RCC_GetSysClockFreq+0x4c>
    }
    case RCC_CFGR_SWS_PLL:  /* PLL used as system clock  source */
    {
      /* PLL_VCO = (HSE_VALUE or HSI_VALUE / PLLM) * PLLN
      SYSCLK = PLL_VCO / PLLP */
      pllm = RCC->PLLCFGR & RCC_PLLCFGR_PLLM;
 80026ea:	684a      	ldr	r2, [r1, #4]
      if(__HAL_RCC_GET_PLL_OSCSOURCE() != RCC_PLLSOURCE_HSI)
 80026ec:	684b      	ldr	r3, [r1, #4]
      {
        /* HSE used as PLL clock source */
        pllvco = (uint32_t) ((((uint64_t) HSE_VALUE * ((uint64_t) ((RCC->PLLCFGR & RCC_PLLCFGR_PLLN) >> RCC_PLLCFGR_PLLN_Pos)))) / (uint64_t)pllm);
 80026ee:	6849      	ldr	r1, [r1, #4]
      if(__HAL_RCC_GET_PLL_OSCSOURCE() != RCC_PLLSOURCE_HSI)
 80026f0:	f413 0380 	ands.w	r3, r3, #4194304	; 0x400000
        pllvco = (uint32_t) ((((uint64_t) HSE_VALUE * ((uint64_t) ((RCC->PLLCFGR & RCC_PLLCFGR_PLLN) >> RCC_PLLCFGR_PLLN_Pos)))) / (uint64_t)pllm);
 80026f4:	bf14      	ite	ne
 80026f6:	480d      	ldrne	r0, [pc, #52]	; (800272c <HAL_RCC_GetSysClockFreq+0x54>)
      }
      else
      {
        /* HSI used as PLL clock source */
        pllvco = (uint32_t) ((((uint64_t) HSI_VALUE * ((uint64_t) ((RCC->PLLCFGR & RCC_PLLCFGR_PLLN) >> RCC_PLLCFGR_PLLN_Pos)))) / (uint64_t)pllm);
 80026f8:	480d      	ldreq	r0, [pc, #52]	; (8002730 <HAL_RCC_GetSysClockFreq+0x58>)
        pllvco = (uint32_t) ((((uint64_t) HSE_VALUE * ((uint64_t) ((RCC->PLLCFGR & RCC_PLLCFGR_PLLN) >> RCC_PLLCFGR_PLLN_Pos)))) / (uint64_t)pllm);
 80026fa:	f3c1 1188 	ubfx	r1, r1, #6, #9
 80026fe:	bf18      	it	ne
 8002700:	2300      	movne	r3, #0
      pllm = RCC->PLLCFGR & RCC_PLLCFGR_PLLM;
 8002702:	f002 023f 	and.w	r2, r2, #63	; 0x3f
        pllvco = (uint32_t) ((((uint64_t) HSI_VALUE * ((uint64_t) ((RCC->PLLCFGR & RCC_PLLCFGR_PLLN) >> RCC_PLLCFGR_PLLN_Pos)))) / (uint64_t)pllm);
 8002706:	fba1 0100 	umull	r0, r1, r1, r0
 800270a:	f7fe fa95 	bl	8000c38 <__aeabi_uldivmod>
      }
      pllp = ((((RCC->PLLCFGR & RCC_PLLCFGR_PLLP) >> RCC_PLLCFGR_PLLP_Pos) + 1U) *2U);
 800270e:	4b06      	ldr	r3, [pc, #24]	; (8002728 <HAL_RCC_GetSysClockFreq+0x50>)
 8002710:	685b      	ldr	r3, [r3, #4]
 8002712:	f3c3 4301 	ubfx	r3, r3, #16, #2
 8002716:	3301      	adds	r3, #1
 8002718:	005b      	lsls	r3, r3, #1

      sysclockfreq = pllvco/pllp;
 800271a:	fbb0 f0f3 	udiv	r0, r0, r3
      sysclockfreq = HSI_VALUE;
      break;
    }
  }
  return sysclockfreq;
}
 800271e:	bd08      	pop	{r3, pc}
  switch (RCC->CFGR & RCC_CFGR_SWS)
 8002720:	4802      	ldr	r0, [pc, #8]	; (800272c <HAL_RCC_GetSysClockFreq+0x54>)
 8002722:	e7fc      	b.n	800271e <HAL_RCC_GetSysClockFreq+0x46>
      sysclockfreq = HSI_VALUE;
 8002724:	4802      	ldr	r0, [pc, #8]	; (8002730 <HAL_RCC_GetSysClockFreq+0x58>)
  return sysclockfreq;
 8002726:	e7fa      	b.n	800271e <HAL_RCC_GetSysClockFreq+0x46>
 8002728:	40023800 	.word	0x40023800
 800272c:	007a1200 	.word	0x007a1200
 8002730:	00f42400 	.word	0x00f42400

08002734 <HAL_RCC_ClockConfig>:
{
 8002734:	e92d 41f0 	stmdb	sp!, {r4, r5, r6, r7, r8, lr}
 8002738:	460d      	mov	r5, r1
  if(RCC_ClkInitStruct == NULL)
 800273a:	4604      	mov	r4, r0
 800273c:	b910      	cbnz	r0, 8002744 <HAL_RCC_ClockConfig+0x10>
    return HAL_ERROR;
 800273e:	2001      	movs	r0, #1
}
 8002740:	e8bd 81f0 	ldmia.w	sp!, {r4, r5, r6, r7, r8, pc}
  if(FLatency > __HAL_FLASH_GET_LATENCY())
 8002744:	4b43      	ldr	r3, [pc, #268]	; (8002854 <HAL_RCC_ClockConfig+0x120>)
 8002746:	681a      	ldr	r2, [r3, #0]
 8002748:	f002 020f 	and.w	r2, r2, #15
 800274c:	428a      	cmp	r2, r1
 800274e:	d327      	bcc.n	80027a0 <HAL_RCC_ClockConfig+0x6c>
  if(((RCC_ClkInitStruct->ClockType) & RCC_CLOCKTYPE_HCLK) == RCC_CLOCKTYPE_HCLK)
 8002750:	6821      	ldr	r1, [r4, #0]
 8002752:	078f      	lsls	r7, r1, #30
 8002754:	d42c      	bmi.n	80027b0 <HAL_RCC_ClockConfig+0x7c>
  if(((RCC_ClkInitStruct->ClockType) & RCC_CLOCKTYPE_SYSCLK) == RCC_CLOCKTYPE_SYSCLK)
 8002756:	07c8      	lsls	r0, r1, #31
 8002758:	d43f      	bmi.n	80027da <HAL_RCC_ClockConfig+0xa6>
  if(FLatency < __HAL_FLASH_GET_LATENCY())
 800275a:	4b3e      	ldr	r3, [pc, #248]	; (8002854 <HAL_RCC_ClockConfig+0x120>)
 800275c:	681a      	ldr	r2, [r3, #0]
 800275e:	f002 020f 	and.w	r2, r2, #15
 8002762:	42aa      	cmp	r2, r5
 8002764:	d864      	bhi.n	8002830 <HAL_RCC_ClockConfig+0xfc>
  if(((RCC_ClkInitStruct->ClockType) & RCC_CLOCKTYPE_PCLK1) == RCC_CLOCKTYPE_PCLK1)
 8002766:	6822      	ldr	r2, [r4, #0]
 8002768:	0751      	lsls	r1, r2, #29
 800276a:	d46a      	bmi.n	8002842 <HAL_RCC_ClockConfig+0x10e>
  if(((RCC_ClkInitStruct->ClockType) & RCC_CLOCKTYPE_PCLK2) == RCC_CLOCKTYPE_PCLK2)
 800276c:	0713      	lsls	r3, r2, #28
 800276e:	d507      	bpl.n	8002780 <HAL_RCC_ClockConfig+0x4c>
    MODIFY_REG(RCC->CFGR, RCC_CFGR_PPRE2, ((RCC_ClkInitStruct->APB2CLKDivider) << 3U));
 8002770:	4a39      	ldr	r2, [pc, #228]	; (8002858 <HAL_RCC_ClockConfig+0x124>)
 8002772:	6921      	ldr	r1, [r4, #16]
 8002774:	6893      	ldr	r3, [r2, #8]
 8002776:	f423 4360 	bic.w	r3, r3, #57344	; 0xe000
 800277a:	ea43 03c1 	orr.w	r3, r3, r1, lsl #3
 800277e:	6093      	str	r3, [r2, #8]
  SystemCoreClock = HAL_RCC_GetSysClockFreq() >> AHBPrescTable[(RCC->CFGR & RCC_CFGR_HPRE)>> RCC_CFGR_HPRE_Pos];
 8002780:	f7ff ffaa 	bl	80026d8 <HAL_RCC_GetSysClockFreq>
 8002784:	4b34      	ldr	r3, [pc, #208]	; (8002858 <HAL_RCC_ClockConfig+0x124>)
 8002786:	4a35      	ldr	r2, [pc, #212]	; (800285c <HAL_RCC_ClockConfig+0x128>)
 8002788:	689b      	ldr	r3, [r3, #8]
 800278a:	f3c3 1303 	ubfx	r3, r3, #4, #4
 800278e:	5cd3      	ldrb	r3, [r2, r3]
 8002790:	40d8      	lsrs	r0, r3
 8002792:	4b33      	ldr	r3, [pc, #204]	; (8002860 <HAL_RCC_ClockConfig+0x12c>)
 8002794:	6018      	str	r0, [r3, #0]
  HAL_InitTick (TICK_INT_PRIORITY);
 8002796:	2000      	movs	r0, #0
 8002798:	f7fe fbcc 	bl	8000f34 <HAL_InitTick>
  return HAL_OK;
 800279c:	2000      	movs	r0, #0
 800279e:	e7cf      	b.n	8002740 <HAL_RCC_ClockConfig+0xc>
    __HAL_FLASH_SET_LATENCY(FLatency);
 80027a0:	b2ca      	uxtb	r2, r1
 80027a2:	701a      	strb	r2, [r3, #0]
    if(__HAL_FLASH_GET_LATENCY() != FLatency)
 80027a4:	681b      	ldr	r3, [r3, #0]
 80027a6:	f003 030f 	and.w	r3, r3, #15
 80027aa:	428b      	cmp	r3, r1
 80027ac:	d1c7      	bne.n	800273e <HAL_RCC_ClockConfig+0xa>
 80027ae:	e7cf      	b.n	8002750 <HAL_RCC_ClockConfig+0x1c>
    if(((RCC_ClkInitStruct->ClockType) & RCC_CLOCKTYPE_PCLK1) == RCC_CLOCKTYPE_PCLK1)
 80027b0:	4b29      	ldr	r3, [pc, #164]	; (8002858 <HAL_RCC_ClockConfig+0x124>)
 80027b2:	f011 0f04 	tst.w	r1, #4
      MODIFY_REG(RCC->CFGR, RCC_CFGR_PPRE1, RCC_HCLK_DIV16);
 80027b6:	bf1e      	ittt	ne
 80027b8:	689a      	ldrne	r2, [r3, #8]
 80027ba:	f442 52e0 	orrne.w	r2, r2, #7168	; 0x1c00
 80027be:	609a      	strne	r2, [r3, #8]
    if(((RCC_ClkInitStruct->ClockType) & RCC_CLOCKTYPE_PCLK2) == RCC_CLOCKTYPE_PCLK2)
 80027c0:	070e      	lsls	r6, r1, #28
      MODIFY_REG(RCC->CFGR, RCC_CFGR_PPRE2, (RCC_HCLK_DIV16 << 3));
 80027c2:	bf42      	ittt	mi
 80027c4:	689a      	ldrmi	r2, [r3, #8]
 80027c6:	f442 4260 	orrmi.w	r2, r2, #57344	; 0xe000
 80027ca:	609a      	strmi	r2, [r3, #8]
    MODIFY_REG(RCC->CFGR, RCC_CFGR_HPRE, RCC_ClkInitStruct->AHBCLKDivider);
 80027cc:	689a      	ldr	r2, [r3, #8]
 80027ce:	68a0      	ldr	r0, [r4, #8]
 80027d0:	f022 02f0 	bic.w	r2, r2, #240	; 0xf0
 80027d4:	4302      	orrs	r2, r0
 80027d6:	609a      	str	r2, [r3, #8]
 80027d8:	e7bd      	b.n	8002756 <HAL_RCC_ClockConfig+0x22>
    if(RCC_ClkInitStruct->SYSCLKSource == RCC_SYSCLKSOURCE_HSE)
 80027da:	6862      	ldr	r2, [r4, #4]
 80027dc:	4b1e      	ldr	r3, [pc, #120]	; (8002858 <HAL_RCC_ClockConfig+0x124>)
 80027de:	2a01      	cmp	r2, #1
 80027e0:	d11c      	bne.n	800281c <HAL_RCC_ClockConfig+0xe8>
      if(__HAL_RCC_GET_FLAG(RCC_FLAG_HSERDY) == RESET)
 80027e2:	681b      	ldr	r3, [r3, #0]
 80027e4:	f413 3f00 	tst.w	r3, #131072	; 0x20000
      if(__HAL_RCC_GET_FLAG(RCC_FLAG_HSIRDY) == RESET)
 80027e8:	d0a9      	beq.n	800273e <HAL_RCC_ClockConfig+0xa>
    __HAL_RCC_SYSCLK_CONFIG(RCC_ClkInitStruct->SYSCLKSource);
 80027ea:	4e1b      	ldr	r6, [pc, #108]	; (8002858 <HAL_RCC_ClockConfig+0x124>)
 80027ec:	68b3      	ldr	r3, [r6, #8]
 80027ee:	f023 0303 	bic.w	r3, r3, #3
 80027f2:	4313      	orrs	r3, r2
 80027f4:	60b3      	str	r3, [r6, #8]
    tickstart = HAL_GetTick();
 80027f6:	f7fe fbe7 	bl	8000fc8 <HAL_GetTick>
      if ((HAL_GetTick() - tickstart) > CLOCKSWITCH_TIMEOUT_VALUE)
 80027fa:	f241 3888 	movw	r8, #5000	; 0x1388
    tickstart = HAL_GetTick();
 80027fe:	4607      	mov	r7, r0
    while (__HAL_RCC_GET_SYSCLK_SOURCE() != (RCC_ClkInitStruct->SYSCLKSource << RCC_CFGR_SWS_Pos))
 8002800:	68b3      	ldr	r3, [r6, #8]
 8002802:	6862      	ldr	r2, [r4, #4]
 8002804:	f003 030c 	and.w	r3, r3, #12
 8002808:	ebb3 0f82 	cmp.w	r3, r2, lsl #2
 800280c:	d0a5      	beq.n	800275a <HAL_RCC_ClockConfig+0x26>
      if ((HAL_GetTick() - tickstart) > CLOCKSWITCH_TIMEOUT_VALUE)
 800280e:	f7fe fbdb 	bl	8000fc8 <HAL_GetTick>
 8002812:	1bc0      	subs	r0, r0, r7
 8002814:	4540      	cmp	r0, r8
 8002816:	d9f3      	bls.n	8002800 <HAL_RCC_ClockConfig+0xcc>
        return HAL_TIMEOUT;
 8002818:	2003      	movs	r0, #3
 800281a:	e791      	b.n	8002740 <HAL_RCC_ClockConfig+0xc>
    else if((RCC_ClkInitStruct->SYSCLKSource == RCC_SYSCLKSOURCE_PLLCLK)   ||
 800281c:	1e91      	subs	r1, r2, #2
 800281e:	2901      	cmp	r1, #1
      if(__HAL_RCC_GET_FLAG(RCC_FLAG_PLLRDY) == RESET)
 8002820:	681b      	ldr	r3, [r3, #0]
    else if((RCC_ClkInitStruct->SYSCLKSource == RCC_SYSCLKSOURCE_PLLCLK)   ||
 8002822:	d802      	bhi.n	800282a <HAL_RCC_ClockConfig+0xf6>
      if(__HAL_RCC_GET_FLAG(RCC_FLAG_PLLRDY) == RESET)
 8002824:	f013 7f00 	tst.w	r3, #33554432	; 0x2000000
 8002828:	e7de      	b.n	80027e8 <HAL_RCC_ClockConfig+0xb4>
      if(__HAL_RCC_GET_FLAG(RCC_FLAG_HSIRDY) == RESET)
 800282a:	f013 0f02 	tst.w	r3, #2
 800282e:	e7db      	b.n	80027e8 <HAL_RCC_ClockConfig+0xb4>
    __HAL_FLASH_SET_LATENCY(FLatency);
 8002830:	b2ea      	uxtb	r2, r5
 8002832:	701a      	strb	r2, [r3, #0]
    if(__HAL_FLASH_GET_LATENCY() != FLatency)
 8002834:	681b      	ldr	r3, [r3, #0]
 8002836:	f003 030f 	and.w	r3, r3, #15
 800283a:	42ab      	cmp	r3, r5
 800283c:	f47f af7f 	bne.w	800273e <HAL_RCC_ClockConfig+0xa>
 8002840:	e791      	b.n	8002766 <HAL_RCC_ClockConfig+0x32>
    MODIFY_REG(RCC->CFGR, RCC_CFGR_PPRE1, RCC_ClkInitStruct->APB1CLKDivider);
 8002842:	4905      	ldr	r1, [pc, #20]	; (8002858 <HAL_RCC_ClockConfig+0x124>)
 8002844:	68e0      	ldr	r0, [r4, #12]
 8002846:	688b      	ldr	r3, [r1, #8]
 8002848:	f423 53e0 	bic.w	r3, r3, #7168	; 0x1c00
 800284c:	4303      	orrs	r3, r0
 800284e:	608b      	str	r3, [r1, #8]
 8002850:	e78c      	b.n	800276c <HAL_RCC_ClockConfig+0x38>
 8002852:	bf00      	nop
 8002854:	40023c00 	.word	0x40023c00
 8002858:	40023800 	.word	0x40023800
 800285c:	08005c4b 	.word	0x08005c4b
 8002860:	20000050 	.word	0x20000050

08002864 <HAL_RCC_GetPCLK1Freq>:
  * @retval PCLK1 frequency
  */
uint32_t HAL_RCC_GetPCLK1Freq(void)
{
  /* Get HCLK source and Compute PCLK1 frequency ---------------------------*/
  return (HAL_RCC_GetHCLKFreq() >> APBPrescTable[(RCC->CFGR & RCC_CFGR_PPRE1)>> RCC_CFGR_PPRE1_Pos]);
 8002864:	4b04      	ldr	r3, [pc, #16]	; (8002878 <HAL_RCC_GetPCLK1Freq+0x14>)
 8002866:	4a05      	ldr	r2, [pc, #20]	; (800287c <HAL_RCC_GetPCLK1Freq+0x18>)
 8002868:	689b      	ldr	r3, [r3, #8]
 800286a:	f3c3 2382 	ubfx	r3, r3, #10, #3
 800286e:	5cd3      	ldrb	r3, [r2, r3]
 8002870:	4a03      	ldr	r2, [pc, #12]	; (8002880 <HAL_RCC_GetPCLK1Freq+0x1c>)
 8002872:	6810      	ldr	r0, [r2, #0]
}
 8002874:	40d8      	lsrs	r0, r3
 8002876:	4770      	bx	lr
 8002878:	40023800 	.word	0x40023800
 800287c:	08005c5b 	.word	0x08005c5b
 8002880:	20000050 	.word	0x20000050

08002884 <HAL_RCCEx_PeriphCLKConfig>:

  /* Check the parameters */
  assert_param(IS_RCC_PERIPHCLOCK(PeriphClkInit->PeriphClockSelection));

  /*---------------------------- I2S configuration ---------------------------*/
  if((((PeriphClkInit->PeriphClockSelection) & RCC_PERIPHCLK_I2S) == RCC_PERIPHCLK_I2S) ||
 8002884:	6803      	ldr	r3, [r0, #0]
 8002886:	f013 0f05 	tst.w	r3, #5
{
 800288a:	b5f7      	push	{r0, r1, r2, r4, r5, r6, r7, lr}
 800288c:	4604      	mov	r4, r0
  if((((PeriphClkInit->PeriphClockSelection) & RCC_PERIPHCLK_I2S) == RCC_PERIPHCLK_I2S) ||
 800288e:	d105      	bne.n	800289c <HAL_RCCEx_PeriphCLKConfig+0x18>
      }
    }
  }

  /*---------------------------- RTC configuration ---------------------------*/
  if(((PeriphClkInit->PeriphClockSelection) & RCC_PERIPHCLK_RTC) == (RCC_PERIPHCLK_RTC))
 8002890:	6823      	ldr	r3, [r4, #0]
 8002892:	f013 0302 	ands.w	r3, r3, #2
 8002896:	d12a      	bne.n	80028ee <HAL_RCCEx_PeriphCLKConfig+0x6a>
  if(((PeriphClkInit->PeriphClockSelection) & RCC_PERIPHCLK_TIM) == (RCC_PERIPHCLK_TIM))
  {
    __HAL_RCC_TIMCLKPRESCALER(PeriphClkInit->TIMPresSelection);
  }
#endif /* STM32F401xC || STM32F401xE || STM32F411xE */
  return HAL_OK;
 8002898:	2000      	movs	r0, #0
 800289a:	e026      	b.n	80028ea <HAL_RCCEx_PeriphCLKConfig+0x66>
    __HAL_RCC_PLLI2S_DISABLE();
 800289c:	4b42      	ldr	r3, [pc, #264]	; (80029a8 <HAL_RCCEx_PeriphCLKConfig+0x124>)
    while(__HAL_RCC_GET_FLAG(RCC_FLAG_PLLI2SRDY)  != RESET)
 800289e:	4e43      	ldr	r6, [pc, #268]	; (80029ac <HAL_RCCEx_PeriphCLKConfig+0x128>)
    __HAL_RCC_PLLI2S_DISABLE();
 80028a0:	2200      	movs	r2, #0
 80028a2:	669a      	str	r2, [r3, #104]	; 0x68
    tickstart = HAL_GetTick();
 80028a4:	f7fe fb90 	bl	8000fc8 <HAL_GetTick>
 80028a8:	4605      	mov	r5, r0
    while(__HAL_RCC_GET_FLAG(RCC_FLAG_PLLI2SRDY)  != RESET)
 80028aa:	6833      	ldr	r3, [r6, #0]
 80028ac:	011f      	lsls	r7, r3, #4
 80028ae:	d416      	bmi.n	80028de <HAL_RCCEx_PeriphCLKConfig+0x5a>
    __HAL_RCC_PLLI2S_CONFIG(PeriphClkInit->PLLI2S.PLLI2SN , PeriphClkInit->PLLI2S.PLLI2SR);
 80028b0:	e9d4 2301 	ldrd	r2, r3, [r4, #4]
 80028b4:	071b      	lsls	r3, r3, #28
 80028b6:	ea43 1382 	orr.w	r3, r3, r2, lsl #6
 80028ba:	f8c6 3084 	str.w	r3, [r6, #132]	; 0x84
    __HAL_RCC_PLLI2S_ENABLE();
 80028be:	4b3a      	ldr	r3, [pc, #232]	; (80029a8 <HAL_RCCEx_PeriphCLKConfig+0x124>)
    while(__HAL_RCC_GET_FLAG(RCC_FLAG_PLLI2SRDY)  == RESET)
 80028c0:	4e3a      	ldr	r6, [pc, #232]	; (80029ac <HAL_RCCEx_PeriphCLKConfig+0x128>)
    __HAL_RCC_PLLI2S_ENABLE();
 80028c2:	2201      	movs	r2, #1
 80028c4:	669a      	str	r2, [r3, #104]	; 0x68
    tickstart = HAL_GetTick();
 80028c6:	f7fe fb7f 	bl	8000fc8 <HAL_GetTick>
 80028ca:	4605      	mov	r5, r0
    while(__HAL_RCC_GET_FLAG(RCC_FLAG_PLLI2SRDY)  == RESET)
 80028cc:	6833      	ldr	r3, [r6, #0]
 80028ce:	0118      	lsls	r0, r3, #4
 80028d0:	d4de      	bmi.n	8002890 <HAL_RCCEx_PeriphCLKConfig+0xc>
      if((HAL_GetTick() - tickstart ) > PLLI2S_TIMEOUT_VALUE)
 80028d2:	f7fe fb79 	bl	8000fc8 <HAL_GetTick>
 80028d6:	1b40      	subs	r0, r0, r5
 80028d8:	2802      	cmp	r0, #2
 80028da:	d9f7      	bls.n	80028cc <HAL_RCCEx_PeriphCLKConfig+0x48>
 80028dc:	e004      	b.n	80028e8 <HAL_RCCEx_PeriphCLKConfig+0x64>
      if((HAL_GetTick() - tickstart ) > PLLI2S_TIMEOUT_VALUE)
 80028de:	f7fe fb73 	bl	8000fc8 <HAL_GetTick>
 80028e2:	1b40      	subs	r0, r0, r5
 80028e4:	2802      	cmp	r0, #2
 80028e6:	d9e0      	bls.n	80028aa <HAL_RCCEx_PeriphCLKConfig+0x26>
        return HAL_TIMEOUT;
 80028e8:	2003      	movs	r0, #3
}
 80028ea:	b003      	add	sp, #12
 80028ec:	bdf0      	pop	{r4, r5, r6, r7, pc}
    __HAL_RCC_PWR_CLK_ENABLE();
 80028ee:	2300      	movs	r3, #0
 80028f0:	9301      	str	r3, [sp, #4]
 80028f2:	4b2e      	ldr	r3, [pc, #184]	; (80029ac <HAL_RCCEx_PeriphCLKConfig+0x128>)
    PWR->CR |= PWR_CR_DBP;
 80028f4:	4d2e      	ldr	r5, [pc, #184]	; (80029b0 <HAL_RCCEx_PeriphCLKConfig+0x12c>)
    __HAL_RCC_PWR_CLK_ENABLE();
 80028f6:	6c1a      	ldr	r2, [r3, #64]	; 0x40
 80028f8:	f042 5280 	orr.w	r2, r2, #268435456	; 0x10000000
 80028fc:	641a      	str	r2, [r3, #64]	; 0x40
 80028fe:	6c1b      	ldr	r3, [r3, #64]	; 0x40
 8002900:	f003 5380 	and.w	r3, r3, #268435456	; 0x10000000
 8002904:	9301      	str	r3, [sp, #4]
 8002906:	9b01      	ldr	r3, [sp, #4]
    PWR->CR |= PWR_CR_DBP;
 8002908:	682b      	ldr	r3, [r5, #0]
 800290a:	f443 7380 	orr.w	r3, r3, #256	; 0x100
 800290e:	602b      	str	r3, [r5, #0]
    tickstart = HAL_GetTick();
 8002910:	f7fe fb5a 	bl	8000fc8 <HAL_GetTick>
 8002914:	4606      	mov	r6, r0
    while((PWR->CR & PWR_CR_DBP) == RESET)
 8002916:	682b      	ldr	r3, [r5, #0]
 8002918:	05d9      	lsls	r1, r3, #23
 800291a:	d51b      	bpl.n	8002954 <HAL_RCCEx_PeriphCLKConfig+0xd0>
    tmpreg1 = (RCC->BDCR & RCC_BDCR_RTCSEL);
 800291c:	4d23      	ldr	r5, [pc, #140]	; (80029ac <HAL_RCCEx_PeriphCLKConfig+0x128>)
    if((tmpreg1 != 0x00000000U) && ((tmpreg1) != (PeriphClkInit->RTCClockSelection & RCC_BDCR_RTCSEL)))
 800291e:	68e2      	ldr	r2, [r4, #12]
    tmpreg1 = (RCC->BDCR & RCC_BDCR_RTCSEL);
 8002920:	6f2b      	ldr	r3, [r5, #112]	; 0x70
    if((tmpreg1 != 0x00000000U) && ((tmpreg1) != (PeriphClkInit->RTCClockSelection & RCC_BDCR_RTCSEL)))
 8002922:	f413 7340 	ands.w	r3, r3, #768	; 0x300
 8002926:	d11b      	bne.n	8002960 <HAL_RCCEx_PeriphCLKConfig+0xdc>
    __HAL_RCC_RTC_CONFIG(PeriphClkInit->RTCClockSelection);
 8002928:	68e3      	ldr	r3, [r4, #12]
 800292a:	f403 7240 	and.w	r2, r3, #768	; 0x300
 800292e:	f5b2 7f40 	cmp.w	r2, #768	; 0x300
 8002932:	4a1e      	ldr	r2, [pc, #120]	; (80029ac <HAL_RCCEx_PeriphCLKConfig+0x128>)
 8002934:	d134      	bne.n	80029a0 <HAL_RCCEx_PeriphCLKConfig+0x11c>
 8002936:	6891      	ldr	r1, [r2, #8]
 8002938:	f023 4070 	bic.w	r0, r3, #4026531840	; 0xf0000000
 800293c:	f421 11f8 	bic.w	r1, r1, #2031616	; 0x1f0000
 8002940:	f420 7040 	bic.w	r0, r0, #768	; 0x300
 8002944:	4301      	orrs	r1, r0
 8002946:	6091      	str	r1, [r2, #8]
 8002948:	6f11      	ldr	r1, [r2, #112]	; 0x70
 800294a:	f3c3 030b 	ubfx	r3, r3, #0, #12
 800294e:	430b      	orrs	r3, r1
 8002950:	6713      	str	r3, [r2, #112]	; 0x70
 8002952:	e7a1      	b.n	8002898 <HAL_RCCEx_PeriphCLKConfig+0x14>
      if((HAL_GetTick() - tickstart ) > RCC_DBP_TIMEOUT_VALUE)
 8002954:	f7fe fb38 	bl	8000fc8 <HAL_GetTick>
 8002958:	1b80      	subs	r0, r0, r6
 800295a:	2802      	cmp	r0, #2
 800295c:	d9db      	bls.n	8002916 <HAL_RCCEx_PeriphCLKConfig+0x92>
 800295e:	e7c3      	b.n	80028e8 <HAL_RCCEx_PeriphCLKConfig+0x64>
    if((tmpreg1 != 0x00000000U) && ((tmpreg1) != (PeriphClkInit->RTCClockSelection & RCC_BDCR_RTCSEL)))
 8002960:	f402 7240 	and.w	r2, r2, #768	; 0x300
 8002964:	4293      	cmp	r3, r2
 8002966:	d0df      	beq.n	8002928 <HAL_RCCEx_PeriphCLKConfig+0xa4>
      tmpreg1 = (RCC->BDCR & ~(RCC_BDCR_RTCSEL));
 8002968:	6f2b      	ldr	r3, [r5, #112]	; 0x70
      __HAL_RCC_BACKUPRESET_FORCE();
 800296a:	4a0f      	ldr	r2, [pc, #60]	; (80029a8 <HAL_RCCEx_PeriphCLKConfig+0x124>)
 800296c:	2101      	movs	r1, #1
 800296e:	f8c2 1e40 	str.w	r1, [r2, #3648]	; 0xe40
      tmpreg1 = (RCC->BDCR & ~(RCC_BDCR_RTCSEL));
 8002972:	f423 7340 	bic.w	r3, r3, #768	; 0x300
      __HAL_RCC_BACKUPRESET_RELEASE();
 8002976:	2100      	movs	r1, #0
 8002978:	f8c2 1e40 	str.w	r1, [r2, #3648]	; 0xe40
      RCC->BDCR = tmpreg1;
 800297c:	672b      	str	r3, [r5, #112]	; 0x70
      if(HAL_IS_BIT_SET(RCC->BDCR, RCC_BDCR_LSEON))
 800297e:	6f2b      	ldr	r3, [r5, #112]	; 0x70
 8002980:	07da      	lsls	r2, r3, #31
 8002982:	d5d1      	bpl.n	8002928 <HAL_RCCEx_PeriphCLKConfig+0xa4>
        tickstart = HAL_GetTick();
 8002984:	f7fe fb20 	bl	8000fc8 <HAL_GetTick>
          if((HAL_GetTick() - tickstart ) > RCC_LSE_TIMEOUT_VALUE)
 8002988:	f241 3788 	movw	r7, #5000	; 0x1388
        tickstart = HAL_GetTick();
 800298c:	4606      	mov	r6, r0
        while(__HAL_RCC_GET_FLAG(RCC_FLAG_LSERDY) == RESET)
 800298e:	6f2b      	ldr	r3, [r5, #112]	; 0x70
 8002990:	079b      	lsls	r3, r3, #30
 8002992:	d4c9      	bmi.n	8002928 <HAL_RCCEx_PeriphCLKConfig+0xa4>
          if((HAL_GetTick() - tickstart ) > RCC_LSE_TIMEOUT_VALUE)
 8002994:	f7fe fb18 	bl	8000fc8 <HAL_GetTick>
 8002998:	1b80      	subs	r0, r0, r6
 800299a:	42b8      	cmp	r0, r7
 800299c:	d9f7      	bls.n	800298e <HAL_RCCEx_PeriphCLKConfig+0x10a>
 800299e:	e7a3      	b.n	80028e8 <HAL_RCCEx_PeriphCLKConfig+0x64>
    __HAL_RCC_RTC_CONFIG(PeriphClkInit->RTCClockSelection);
 80029a0:	6891      	ldr	r1, [r2, #8]
 80029a2:	f421 11f8 	bic.w	r1, r1, #2031616	; 0x1f0000
 80029a6:	e7ce      	b.n	8002946 <HAL_RCCEx_PeriphCLKConfig+0xc2>
 80029a8:	42470000 	.word	0x42470000
 80029ac:	40023800 	.word	0x40023800
 80029b0:	40007000 	.word	0x40007000

080029b4 <HAL_RCCEx_GetPeriphCLKFreq>:
  /* This variable used to store the VCO Input (value in Hz) */
  uint32_t vcoinput = 0U;
  uint32_t srcclk = 0U;
  /* This variable used to store the VCO Output (value in Hz) */
  uint32_t vcooutput = 0U;
  switch (PeriphClk)
 80029b4:	2801      	cmp	r0, #1
 80029b6:	d11b      	bne.n	80029f0 <HAL_RCCEx_GetPeriphCLKFreq+0x3c>
  {
  case RCC_PERIPHCLK_I2S:
    {
      /* Get the current I2S source */
      srcclk = __HAL_RCC_GET_I2S_SOURCE();
 80029b8:	4b0e      	ldr	r3, [pc, #56]	; (80029f4 <HAL_RCCEx_GetPeriphCLKFreq+0x40>)
 80029ba:	689a      	ldr	r2, [r3, #8]
      switch (srcclk)
 80029bc:	0212      	lsls	r2, r2, #8
 80029be:	d417      	bmi.n	80029f0 <HAL_RCCEx_GetPeriphCLKFreq+0x3c>
            vcoinput = (uint32_t)(HSI_VALUE / (uint32_t)(RCC->PLLI2SCFGR & RCC_PLLI2SCFGR_PLLI2SM));
          }
#else
          /* Configure the PLLI2S division factor */
          /* PLLI2S_VCO Input  = PLL_SOURCE/PLLM */
          if((RCC->PLLCFGR & RCC_PLLCFGR_PLLSRC) == RCC_PLLSOURCE_HSE)
 80029c0:	685a      	ldr	r2, [r3, #4]
 80029c2:	f412 0f80 	tst.w	r2, #4194304	; 0x400000
          {
            /* Get the I2S source clock value */
            vcoinput = (uint32_t)(HSE_VALUE / (uint32_t)(RCC->PLLCFGR & RCC_PLLCFGR_PLLM));
 80029c6:	685a      	ldr	r2, [r3, #4]
 80029c8:	bf14      	ite	ne
 80029ca:	4b0b      	ldrne	r3, [pc, #44]	; (80029f8 <HAL_RCCEx_GetPeriphCLKFreq+0x44>)
          }
          else
          {
            /* Get the I2S source clock value */
            vcoinput = (uint32_t)(HSI_VALUE / (uint32_t)(RCC->PLLCFGR & RCC_PLLCFGR_PLLM));
 80029cc:	4b0b      	ldreq	r3, [pc, #44]	; (80029fc <HAL_RCCEx_GetPeriphCLKFreq+0x48>)
            vcoinput = (uint32_t)(HSE_VALUE / (uint32_t)(RCC->PLLCFGR & RCC_PLLCFGR_PLLM));
 80029ce:	f002 023f 	and.w	r2, r2, #63	; 0x3f
            vcoinput = (uint32_t)(HSI_VALUE / (uint32_t)(RCC->PLLCFGR & RCC_PLLCFGR_PLLM));
 80029d2:	fbb3 f3f2 	udiv	r3, r3, r2
          }
#endif /* STM32F411xE */
          /* PLLI2S_VCO Output = PLLI2S_VCO Input * PLLI2SN */
          vcooutput = (uint32_t)(vcoinput * (((RCC->PLLI2SCFGR & RCC_PLLI2SCFGR_PLLI2SN) >> 6U) & (RCC_PLLI2SCFGR_PLLI2SN >> 6U)));
 80029d6:	4a07      	ldr	r2, [pc, #28]	; (80029f4 <HAL_RCCEx_GetPeriphCLKFreq+0x40>)
 80029d8:	f8d2 0084 	ldr.w	r0, [r2, #132]	; 0x84
          /* I2S_CLK = PLLI2S_VCO Output/PLLI2SR */
          frequency = (uint32_t)(vcooutput /(((RCC->PLLI2SCFGR & RCC_PLLI2SCFGR_PLLI2SR) >> 28U) & (RCC_PLLI2SCFGR_PLLI2SR >> 28U)));
 80029dc:	f8d2 2084 	ldr.w	r2, [r2, #132]	; 0x84
          vcooutput = (uint32_t)(vcoinput * (((RCC->PLLI2SCFGR & RCC_PLLI2SCFGR_PLLI2SN) >> 6U) & (RCC_PLLI2SCFGR_PLLI2SN >> 6U)));
 80029e0:	f3c0 1088 	ubfx	r0, r0, #6, #9
 80029e4:	4358      	muls	r0, r3
          frequency = (uint32_t)(vcooutput /(((RCC->PLLI2SCFGR & RCC_PLLI2SCFGR_PLLI2SR) >> 28U) & (RCC_PLLI2SCFGR_PLLI2SR >> 28U)));
 80029e6:	f3c2 7302 	ubfx	r3, r2, #28, #3
 80029ea:	fbb0 f0f3 	udiv	r0, r0, r3
          break;
 80029ee:	4770      	bx	lr
 80029f0:	2000      	movs	r0, #0
      }
      break;
    }
  }
  return frequency;
}
 80029f2:	4770      	bx	lr
 80029f4:	40023800 	.word	0x40023800
 80029f8:	007a1200 	.word	0x007a1200
 80029fc:	00f42400 	.word	0x00f42400

08002a00 <HAL_TIM_Base_Start>:

  /* Check the parameters */
  assert_param(IS_TIM_INSTANCE(htim->Instance));

  /* Set the TIM state */
  htim->State = HAL_TIM_STATE_BUSY;
 8002a00:	2302      	movs	r3, #2
 8002a02:	f880 303d 	strb.w	r3, [r0, #61]	; 0x3d

  /* Enable the Peripheral, except in trigger mode where enable is automatically done with trigger */
  tmpsmcr = htim->Instance->SMCR & TIM_SMCR_SMS;
 8002a06:	6803      	ldr	r3, [r0, #0]
 8002a08:	689a      	ldr	r2, [r3, #8]
 8002a0a:	f002 0207 	and.w	r2, r2, #7
  if (!IS_TIM_SLAVEMODE_TRIGGER_ENABLED(tmpsmcr))
 8002a0e:	2a06      	cmp	r2, #6
  {
    __HAL_TIM_ENABLE(htim);
 8002a10:	bf1e      	ittt	ne
 8002a12:	681a      	ldrne	r2, [r3, #0]
 8002a14:	f042 0201 	orrne.w	r2, r2, #1
 8002a18:	601a      	strne	r2, [r3, #0]
  }

  /* Change the TIM state*/
  htim->State = HAL_TIM_STATE_READY;
 8002a1a:	2301      	movs	r3, #1
 8002a1c:	f880 303d 	strb.w	r3, [r0, #61]	; 0x3d

  /* Return function status */
  return HAL_OK;
}
 8002a20:	2000      	movs	r0, #0
 8002a22:	4770      	bx	lr

08002a24 <TIM_Base_SetConfig>:
{
  uint32_t tmpcr1;
  tmpcr1 = TIMx->CR1;

  /* Set TIM Time Base Unit parameters ---------------------------------------*/
  if (IS_TIM_COUNTER_MODE_SELECT_INSTANCE(TIMx))
 8002a24:	4a30      	ldr	r2, [pc, #192]	; (8002ae8 <TIM_Base_SetConfig+0xc4>)
  tmpcr1 = TIMx->CR1;
 8002a26:	6803      	ldr	r3, [r0, #0]
  if (IS_TIM_COUNTER_MODE_SELECT_INSTANCE(TIMx))
 8002a28:	4290      	cmp	r0, r2
 8002a2a:	d012      	beq.n	8002a52 <TIM_Base_SetConfig+0x2e>
 8002a2c:	f1b0 4f80 	cmp.w	r0, #1073741824	; 0x40000000
 8002a30:	d00f      	beq.n	8002a52 <TIM_Base_SetConfig+0x2e>
 8002a32:	f5a2 427c 	sub.w	r2, r2, #64512	; 0xfc00
 8002a36:	4290      	cmp	r0, r2
 8002a38:	d00b      	beq.n	8002a52 <TIM_Base_SetConfig+0x2e>
 8002a3a:	f502 6280 	add.w	r2, r2, #1024	; 0x400
 8002a3e:	4290      	cmp	r0, r2
 8002a40:	d007      	beq.n	8002a52 <TIM_Base_SetConfig+0x2e>
 8002a42:	f502 6280 	add.w	r2, r2, #1024	; 0x400
 8002a46:	4290      	cmp	r0, r2
 8002a48:	d003      	beq.n	8002a52 <TIM_Base_SetConfig+0x2e>
 8002a4a:	f502 4278 	add.w	r2, r2, #63488	; 0xf800
 8002a4e:	4290      	cmp	r0, r2
 8002a50:	d119      	bne.n	8002a86 <TIM_Base_SetConfig+0x62>
  {
    /* Select the Counter Mode */
    tmpcr1 &= ~(TIM_CR1_DIR | TIM_CR1_CMS);
    tmpcr1 |= Structure->CounterMode;
 8002a52:	684a      	ldr	r2, [r1, #4]
    tmpcr1 &= ~(TIM_CR1_DIR | TIM_CR1_CMS);
 8002a54:	f023 0370 	bic.w	r3, r3, #112	; 0x70
    tmpcr1 |= Structure->CounterMode;
 8002a58:	4313      	orrs	r3, r2
  }

  if (IS_TIM_CLOCK_DIVISION_INSTANCE(TIMx))
 8002a5a:	4a23      	ldr	r2, [pc, #140]	; (8002ae8 <TIM_Base_SetConfig+0xc4>)
 8002a5c:	4290      	cmp	r0, r2
 8002a5e:	d029      	beq.n	8002ab4 <TIM_Base_SetConfig+0x90>
 8002a60:	f1b0 4f80 	cmp.w	r0, #1073741824	; 0x40000000
 8002a64:	d026      	beq.n	8002ab4 <TIM_Base_SetConfig+0x90>
 8002a66:	f5a2 427c 	sub.w	r2, r2, #64512	; 0xfc00
 8002a6a:	4290      	cmp	r0, r2
 8002a6c:	d022      	beq.n	8002ab4 <TIM_Base_SetConfig+0x90>
 8002a6e:	f502 6280 	add.w	r2, r2, #1024	; 0x400
 8002a72:	4290      	cmp	r0, r2
 8002a74:	d01e      	beq.n	8002ab4 <TIM_Base_SetConfig+0x90>
 8002a76:	f502 6280 	add.w	r2, r2, #1024	; 0x400
 8002a7a:	4290      	cmp	r0, r2
 8002a7c:	d01a      	beq.n	8002ab4 <TIM_Base_SetConfig+0x90>
 8002a7e:	f502 4278 	add.w	r2, r2, #63488	; 0xf800
 8002a82:	4290      	cmp	r0, r2
 8002a84:	d016      	beq.n	8002ab4 <TIM_Base_SetConfig+0x90>
 8002a86:	4a19      	ldr	r2, [pc, #100]	; (8002aec <TIM_Base_SetConfig+0xc8>)
 8002a88:	4290      	cmp	r0, r2
 8002a8a:	d013      	beq.n	8002ab4 <TIM_Base_SetConfig+0x90>
 8002a8c:	f502 6280 	add.w	r2, r2, #1024	; 0x400
 8002a90:	4290      	cmp	r0, r2
 8002a92:	d00f      	beq.n	8002ab4 <TIM_Base_SetConfig+0x90>
 8002a94:	f502 6280 	add.w	r2, r2, #1024	; 0x400
 8002a98:	4290      	cmp	r0, r2
 8002a9a:	d00b      	beq.n	8002ab4 <TIM_Base_SetConfig+0x90>
 8002a9c:	f5a2 3298 	sub.w	r2, r2, #77824	; 0x13000
 8002aa0:	4290      	cmp	r0, r2
 8002aa2:	d007      	beq.n	8002ab4 <TIM_Base_SetConfig+0x90>
 8002aa4:	f502 6280 	add.w	r2, r2, #1024	; 0x400
 8002aa8:	4290      	cmp	r0, r2
 8002aaa:	d003      	beq.n	8002ab4 <TIM_Base_SetConfig+0x90>
 8002aac:	f502 6280 	add.w	r2, r2, #1024	; 0x400
 8002ab0:	4290      	cmp	r0, r2
 8002ab2:	d103      	bne.n	8002abc <TIM_Base_SetConfig+0x98>
  {
    /* Set the clock division */
    tmpcr1 &= ~TIM_CR1_CKD;
    tmpcr1 |= (uint32_t)Structure->ClockDivision;
 8002ab4:	68ca      	ldr	r2, [r1, #12]
    tmpcr1 &= ~TIM_CR1_CKD;
 8002ab6:	f423 7340 	bic.w	r3, r3, #768	; 0x300
    tmpcr1 |= (uint32_t)Structure->ClockDivision;
 8002aba:	4313      	orrs	r3, r2
  }

  /* Set the auto-reload preload */
  MODIFY_REG(tmpcr1, TIM_CR1_ARPE, Structure->AutoReloadPreload);
 8002abc:	694a      	ldr	r2, [r1, #20]
 8002abe:	f023 0380 	bic.w	r3, r3, #128	; 0x80
 8002ac2:	4313      	orrs	r3, r2

  TIMx->CR1 = tmpcr1;
 8002ac4:	6003      	str	r3, [r0, #0]

  /* Set the Autoreload value */
  TIMx->ARR = (uint32_t)Structure->Period ;
 8002ac6:	688b      	ldr	r3, [r1, #8]
 8002ac8:	62c3      	str	r3, [r0, #44]	; 0x2c

  /* Set the Prescaler value */
  TIMx->PSC = Structure->Prescaler;
 8002aca:	680b      	ldr	r3, [r1, #0]
 8002acc:	6283      	str	r3, [r0, #40]	; 0x28

  if (IS_TIM_REPETITION_COUNTER_INSTANCE(TIMx))
 8002ace:	4b06      	ldr	r3, [pc, #24]	; (8002ae8 <TIM_Base_SetConfig+0xc4>)
 8002ad0:	4298      	cmp	r0, r3
 8002ad2:	d003      	beq.n	8002adc <TIM_Base_SetConfig+0xb8>
 8002ad4:	f503 6380 	add.w	r3, r3, #1024	; 0x400
 8002ad8:	4298      	cmp	r0, r3
 8002ada:	d101      	bne.n	8002ae0 <TIM_Base_SetConfig+0xbc>
  {
    /* Set the Repetition Counter value */
    TIMx->RCR = Structure->RepetitionCounter;
 8002adc:	690b      	ldr	r3, [r1, #16]
 8002ade:	6303      	str	r3, [r0, #48]	; 0x30
  }

  /* Generate an update event to reload the Prescaler
     and the repetition counter (only for advanced timer) value immediately */
  TIMx->EGR = TIM_EGR_UG;
 8002ae0:	2301      	movs	r3, #1
 8002ae2:	6143      	str	r3, [r0, #20]
}
 8002ae4:	4770      	bx	lr
 8002ae6:	bf00      	nop
 8002ae8:	40010000 	.word	0x40010000
 8002aec:	40014000 	.word	0x40014000

08002af0 <HAL_TIM_Base_Init>:
{
 8002af0:	b510      	push	{r4, lr}
  if (htim == NULL)
 8002af2:	4604      	mov	r4, r0
 8002af4:	b1a0      	cbz	r0, 8002b20 <HAL_TIM_Base_Init+0x30>
  if (htim->State == HAL_TIM_STATE_RESET)
 8002af6:	f890 303d 	ldrb.w	r3, [r0, #61]	; 0x3d
 8002afa:	f003 02ff 	and.w	r2, r3, #255	; 0xff
 8002afe:	b91b      	cbnz	r3, 8002b08 <HAL_TIM_Base_Init+0x18>
    htim->Lock = HAL_UNLOCKED;
 8002b00:	f880 203c 	strb.w	r2, [r0, #60]	; 0x3c
    HAL_TIM_Base_MspInit(htim);
 8002b04:	f000 feb6 	bl	8003874 <HAL_TIM_Base_MspInit>
  htim->State = HAL_TIM_STATE_BUSY;
 8002b08:	2302      	movs	r3, #2
  TIM_Base_SetConfig(htim->Instance, &htim->Init);
 8002b0a:	6820      	ldr	r0, [r4, #0]
  htim->State = HAL_TIM_STATE_BUSY;
 8002b0c:	f884 303d 	strb.w	r3, [r4, #61]	; 0x3d
  TIM_Base_SetConfig(htim->Instance, &htim->Init);
 8002b10:	1d21      	adds	r1, r4, #4
 8002b12:	f7ff ff87 	bl	8002a24 <TIM_Base_SetConfig>
  htim->State = HAL_TIM_STATE_READY;
 8002b16:	2301      	movs	r3, #1
 8002b18:	f884 303d 	strb.w	r3, [r4, #61]	; 0x3d
  return HAL_OK;
 8002b1c:	2000      	movs	r0, #0
}
 8002b1e:	bd10      	pop	{r4, pc}
    return HAL_ERROR;
 8002b20:	2001      	movs	r0, #1
 8002b22:	e7fc      	b.n	8002b1e <HAL_TIM_Base_Init+0x2e>

08002b24 <TIM_ETR_SetConfig>:
  *          This parameter must be a value between 0x00 and 0x0F
  * @retval None
  */
void TIM_ETR_SetConfig(TIM_TypeDef *TIMx, uint32_t TIM_ExtTRGPrescaler,
                       uint32_t TIM_ExtTRGPolarity, uint32_t ExtTRGFilter)
{
 8002b24:	b510      	push	{r4, lr}
  uint32_t tmpsmcr;

  tmpsmcr = TIMx->SMCR;
 8002b26:	6884      	ldr	r4, [r0, #8]

  /* Reset the ETR Bits */
  tmpsmcr &= ~(TIM_SMCR_ETF | TIM_SMCR_ETPS | TIM_SMCR_ECE | TIM_SMCR_ETP);

  /* Set the Prescaler, the Filter value and the Polarity */
  tmpsmcr |= (uint32_t)(TIM_ExtTRGPrescaler | (TIM_ExtTRGPolarity | (ExtTRGFilter << 8U)));
 8002b28:	4311      	orrs	r1, r2
  tmpsmcr &= ~(TIM_SMCR_ETF | TIM_SMCR_ETPS | TIM_SMCR_ECE | TIM_SMCR_ETP);
 8002b2a:	f424 447f 	bic.w	r4, r4, #65280	; 0xff00
  tmpsmcr |= (uint32_t)(TIM_ExtTRGPrescaler | (TIM_ExtTRGPolarity | (ExtTRGFilter << 8U)));
 8002b2e:	ea41 2303 	orr.w	r3, r1, r3, lsl #8
 8002b32:	4323      	orrs	r3, r4

  /* Write to TIMx SMCR */
  TIMx->SMCR = tmpsmcr;
 8002b34:	6083      	str	r3, [r0, #8]
}
 8002b36:	bd10      	pop	{r4, pc}

08002b38 <HAL_TIM_ConfigClockSource>:
{
 8002b38:	b538      	push	{r3, r4, r5, lr}
  __HAL_LOCK(htim);
 8002b3a:	f890 303c 	ldrb.w	r3, [r0, #60]	; 0x3c
 8002b3e:	2b01      	cmp	r3, #1
{
 8002b40:	4604      	mov	r4, r0
 8002b42:	f04f 0302 	mov.w	r3, #2
  __HAL_LOCK(htim);
 8002b46:	d027      	beq.n	8002b98 <HAL_TIM_ConfigClockSource+0x60>
 8002b48:	2201      	movs	r2, #1
  htim->State = HAL_TIM_STATE_BUSY;
 8002b4a:	f880 303d 	strb.w	r3, [r0, #61]	; 0x3d
  __HAL_LOCK(htim);
 8002b4e:	f880 203c 	strb.w	r2, [r0, #60]	; 0x3c
  tmpsmcr = htim->Instance->SMCR;
 8002b52:	6800      	ldr	r0, [r0, #0]
 8002b54:	6883      	ldr	r3, [r0, #8]
  tmpsmcr &= ~(TIM_SMCR_ETF | TIM_SMCR_ETPS | TIM_SMCR_ECE | TIM_SMCR_ETP);
 8002b56:	f423 437f 	bic.w	r3, r3, #65280	; 0xff00
 8002b5a:	f023 0377 	bic.w	r3, r3, #119	; 0x77
  htim->Instance->SMCR = tmpsmcr;
 8002b5e:	6083      	str	r3, [r0, #8]
  switch (sClockSourceConfig->ClockSource)
 8002b60:	680b      	ldr	r3, [r1, #0]
 8002b62:	2b60      	cmp	r3, #96	; 0x60
 8002b64:	d04b      	beq.n	8002bfe <HAL_TIM_ConfigClockSource+0xc6>
 8002b66:	d832      	bhi.n	8002bce <HAL_TIM_ConfigClockSource+0x96>
 8002b68:	2b40      	cmp	r3, #64	; 0x40
 8002b6a:	d060      	beq.n	8002c2e <HAL_TIM_ConfigClockSource+0xf6>
 8002b6c:	d816      	bhi.n	8002b9c <HAL_TIM_ConfigClockSource+0x64>
 8002b6e:	2b20      	cmp	r3, #32
 8002b70:	d003      	beq.n	8002b7a <HAL_TIM_ConfigClockSource+0x42>
 8002b72:	d809      	bhi.n	8002b88 <HAL_TIM_ConfigClockSource+0x50>
 8002b74:	f033 0210 	bics.w	r2, r3, #16
 8002b78:	d108      	bne.n	8002b8c <HAL_TIM_ConfigClockSource+0x54>
  tmpsmcr = TIMx->SMCR;
 8002b7a:	6882      	ldr	r2, [r0, #8]
  tmpsmcr &= ~TIM_SMCR_TS;
 8002b7c:	f022 0270 	bic.w	r2, r2, #112	; 0x70
  tmpsmcr |= (InputTriggerSource | TIM_SLAVEMODE_EXTERNAL1);
 8002b80:	4313      	orrs	r3, r2
 8002b82:	f043 0307 	orr.w	r3, r3, #7
 8002b86:	e038      	b.n	8002bfa <HAL_TIM_ConfigClockSource+0xc2>
  switch (sClockSourceConfig->ClockSource)
 8002b88:	2b30      	cmp	r3, #48	; 0x30
 8002b8a:	d0f6      	beq.n	8002b7a <HAL_TIM_ConfigClockSource+0x42>
  htim->State = HAL_TIM_STATE_READY;
 8002b8c:	2301      	movs	r3, #1
 8002b8e:	f884 303d 	strb.w	r3, [r4, #61]	; 0x3d
  __HAL_UNLOCK(htim);
 8002b92:	2300      	movs	r3, #0
 8002b94:	f884 303c 	strb.w	r3, [r4, #60]	; 0x3c
  __HAL_LOCK(htim);
 8002b98:	4618      	mov	r0, r3
}
 8002b9a:	bd38      	pop	{r3, r4, r5, pc}
  switch (sClockSourceConfig->ClockSource)
 8002b9c:	2b50      	cmp	r3, #80	; 0x50
 8002b9e:	d1f5      	bne.n	8002b8c <HAL_TIM_ConfigClockSource+0x54>
      TIM_TI1_ConfigInputStage(htim->Instance,
 8002ba0:	684a      	ldr	r2, [r1, #4]
 8002ba2:	68cd      	ldr	r5, [r1, #12]
  tmpccer = TIMx->CCER;
 8002ba4:	6a01      	ldr	r1, [r0, #32]
  TIMx->CCER &= ~TIM_CCER_CC1E;
 8002ba6:	6a03      	ldr	r3, [r0, #32]
 8002ba8:	f023 0301 	bic.w	r3, r3, #1
 8002bac:	6203      	str	r3, [r0, #32]
  tmpccmr1 = TIMx->CCMR1;
 8002bae:	6983      	ldr	r3, [r0, #24]
  tmpccer &= ~(TIM_CCER_CC1P | TIM_CCER_CC1NP);
 8002bb0:	f021 010a 	bic.w	r1, r1, #10
  tmpccmr1 &= ~TIM_CCMR1_IC1F;
 8002bb4:	f023 03f0 	bic.w	r3, r3, #240	; 0xf0
  tmpccmr1 |= (TIM_ICFilter << 4U);
 8002bb8:	ea43 1305 	orr.w	r3, r3, r5, lsl #4
  tmpccer |= TIM_ICPolarity;
 8002bbc:	430a      	orrs	r2, r1
  TIMx->CCMR1 = tmpccmr1;
 8002bbe:	6183      	str	r3, [r0, #24]
  TIMx->CCER = tmpccer;
 8002bc0:	6202      	str	r2, [r0, #32]
  tmpsmcr = TIMx->SMCR;
 8002bc2:	6883      	ldr	r3, [r0, #8]
  tmpsmcr &= ~TIM_SMCR_TS;
 8002bc4:	f023 0370 	bic.w	r3, r3, #112	; 0x70
  tmpsmcr |= (InputTriggerSource | TIM_SLAVEMODE_EXTERNAL1);
 8002bc8:	f043 0357 	orr.w	r3, r3, #87	; 0x57
  TIMx->SMCR = tmpsmcr;
 8002bcc:	e015      	b.n	8002bfa <HAL_TIM_ConfigClockSource+0xc2>
  switch (sClockSourceConfig->ClockSource)
 8002bce:	2b70      	cmp	r3, #112	; 0x70
 8002bd0:	d00b      	beq.n	8002bea <HAL_TIM_ConfigClockSource+0xb2>
 8002bd2:	f5b3 5f00 	cmp.w	r3, #8192	; 0x2000
 8002bd6:	d1d9      	bne.n	8002b8c <HAL_TIM_ConfigClockSource+0x54>
      TIM_ETR_SetConfig(htim->Instance,
 8002bd8:	68cb      	ldr	r3, [r1, #12]
 8002bda:	e9d1 2101 	ldrd	r2, r1, [r1, #4]
 8002bde:	f7ff ffa1 	bl	8002b24 <TIM_ETR_SetConfig>
      htim->Instance->SMCR |= TIM_SMCR_ECE;
 8002be2:	6883      	ldr	r3, [r0, #8]
 8002be4:	f443 4380 	orr.w	r3, r3, #16384	; 0x4000
 8002be8:	e007      	b.n	8002bfa <HAL_TIM_ConfigClockSource+0xc2>
      TIM_ETR_SetConfig(htim->Instance,
 8002bea:	68cb      	ldr	r3, [r1, #12]
 8002bec:	e9d1 2101 	ldrd	r2, r1, [r1, #4]
 8002bf0:	f7ff ff98 	bl	8002b24 <TIM_ETR_SetConfig>
      tmpsmcr = htim->Instance->SMCR;
 8002bf4:	6883      	ldr	r3, [r0, #8]
      tmpsmcr |= (TIM_SLAVEMODE_EXTERNAL1 | TIM_CLOCKSOURCE_ETRMODE1);
 8002bf6:	f043 0377 	orr.w	r3, r3, #119	; 0x77
  TIMx->SMCR = tmpsmcr;
 8002bfa:	6083      	str	r3, [r0, #8]
}
 8002bfc:	e7c6      	b.n	8002b8c <HAL_TIM_ConfigClockSource+0x54>
  TIMx->CCER &= ~TIM_CCER_CC2E;
 8002bfe:	6a03      	ldr	r3, [r0, #32]
      TIM_TI2_ConfigInputStage(htim->Instance,
 8002c00:	684d      	ldr	r5, [r1, #4]
 8002c02:	68c9      	ldr	r1, [r1, #12]
  TIMx->CCER &= ~TIM_CCER_CC2E;
 8002c04:	f023 0310 	bic.w	r3, r3, #16
 8002c08:	6203      	str	r3, [r0, #32]
  tmpccmr1 = TIMx->CCMR1;
 8002c0a:	6982      	ldr	r2, [r0, #24]
  tmpccer = TIMx->CCER;
 8002c0c:	6a03      	ldr	r3, [r0, #32]
  tmpccmr1 &= ~TIM_CCMR1_IC2F;
 8002c0e:	f422 4270 	bic.w	r2, r2, #61440	; 0xf000
  tmpccer &= ~(TIM_CCER_CC2P | TIM_CCER_CC2NP);
 8002c12:	f023 03a0 	bic.w	r3, r3, #160	; 0xa0
  tmpccer |= (TIM_ICPolarity << 4U);
 8002c16:	ea43 1305 	orr.w	r3, r3, r5, lsl #4
  tmpccmr1 |= (TIM_ICFilter << 12U);
 8002c1a:	ea42 3201 	orr.w	r2, r2, r1, lsl #12
  TIMx->CCMR1 = tmpccmr1 ;
 8002c1e:	6182      	str	r2, [r0, #24]
  TIMx->CCER = tmpccer;
 8002c20:	6203      	str	r3, [r0, #32]
  tmpsmcr = TIMx->SMCR;
 8002c22:	6883      	ldr	r3, [r0, #8]
  tmpsmcr &= ~TIM_SMCR_TS;
 8002c24:	f023 0370 	bic.w	r3, r3, #112	; 0x70
  tmpsmcr |= (InputTriggerSource | TIM_SLAVEMODE_EXTERNAL1);
 8002c28:	f043 0367 	orr.w	r3, r3, #103	; 0x67
  TIMx->SMCR = tmpsmcr;
 8002c2c:	e7e5      	b.n	8002bfa <HAL_TIM_ConfigClockSource+0xc2>
      TIM_TI1_ConfigInputStage(htim->Instance,
 8002c2e:	684a      	ldr	r2, [r1, #4]
 8002c30:	68cd      	ldr	r5, [r1, #12]
  tmpccer = TIMx->CCER;
 8002c32:	6a01      	ldr	r1, [r0, #32]
  TIMx->CCER &= ~TIM_CCER_CC1E;
 8002c34:	6a03      	ldr	r3, [r0, #32]
 8002c36:	f023 0301 	bic.w	r3, r3, #1
 8002c3a:	6203      	str	r3, [r0, #32]
  tmpccmr1 = TIMx->CCMR1;
 8002c3c:	6983      	ldr	r3, [r0, #24]
  tmpccer &= ~(TIM_CCER_CC1P | TIM_CCER_CC1NP);
 8002c3e:	f021 010a 	bic.w	r1, r1, #10
  tmpccmr1 &= ~TIM_CCMR1_IC1F;
 8002c42:	f023 03f0 	bic.w	r3, r3, #240	; 0xf0
  tmpccmr1 |= (TIM_ICFilter << 4U);
 8002c46:	ea43 1305 	orr.w	r3, r3, r5, lsl #4
  tmpccer |= TIM_ICPolarity;
 8002c4a:	430a      	orrs	r2, r1
  TIMx->CCMR1 = tmpccmr1;
 8002c4c:	6183      	str	r3, [r0, #24]
  TIMx->CCER = tmpccer;
 8002c4e:	6202      	str	r2, [r0, #32]
  tmpsmcr = TIMx->SMCR;
 8002c50:	6883      	ldr	r3, [r0, #8]
  tmpsmcr &= ~TIM_SMCR_TS;
 8002c52:	f023 0370 	bic.w	r3, r3, #112	; 0x70
  tmpsmcr |= (InputTriggerSource | TIM_SLAVEMODE_EXTERNAL1);
 8002c56:	f043 0347 	orr.w	r3, r3, #71	; 0x47
  TIMx->SMCR = tmpsmcr;
 8002c5a:	e7ce      	b.n	8002bfa <HAL_TIM_ConfigClockSource+0xc2>

08002c5c <HAL_TIMEx_MasterConfigSynchronization>:
  *         mode.
  * @retval HAL status
  */
HAL_StatusTypeDef HAL_TIMEx_MasterConfigSynchronization(TIM_HandleTypeDef *htim,
                                                        TIM_MasterConfigTypeDef *sMasterConfig)
{
 8002c5c:	b530      	push	{r4, r5, lr}
  assert_param(IS_TIM_SYNCHRO_INSTANCE(htim->Instance));
  assert_param(IS_TIM_TRGO_SOURCE(sMasterConfig->MasterOutputTrigger));
  assert_param(IS_TIM_MSM_STATE(sMasterConfig->MasterSlaveMode));

  /* Check input state */
  __HAL_LOCK(htim);
 8002c5e:	f890 303c 	ldrb.w	r3, [r0, #60]	; 0x3c
 8002c62:	2b01      	cmp	r3, #1
 8002c64:	f04f 0302 	mov.w	r3, #2
 8002c68:	d014      	beq.n	8002c94 <HAL_TIMEx_MasterConfigSynchronization+0x38>

  /* Change the handler state */
  htim->State = HAL_TIM_STATE_BUSY;

  /* Get the TIMx CR2 register value */
  tmpcr2 = htim->Instance->CR2;
 8002c6a:	6804      	ldr	r4, [r0, #0]
  htim->State = HAL_TIM_STATE_BUSY;
 8002c6c:	f880 303d 	strb.w	r3, [r0, #61]	; 0x3d
  tmpcr2 = htim->Instance->CR2;
 8002c70:	6862      	ldr	r2, [r4, #4]

  /* Get the TIMx SMCR register value */
  tmpsmcr = htim->Instance->SMCR;
 8002c72:	68a3      	ldr	r3, [r4, #8]

  /* Reset the MMS Bits */
  tmpcr2 &= ~TIM_CR2_MMS;
  /* Select the TRGO source */
  tmpcr2 |=  sMasterConfig->MasterOutputTrigger;
 8002c74:	680d      	ldr	r5, [r1, #0]

  /* Reset the MSM Bit */
  tmpsmcr &= ~TIM_SMCR_MSM;
  /* Set master mode */
  tmpsmcr |= sMasterConfig->MasterSlaveMode;
 8002c76:	6849      	ldr	r1, [r1, #4]
  tmpcr2 &= ~TIM_CR2_MMS;
 8002c78:	f022 0270 	bic.w	r2, r2, #112	; 0x70
  tmpsmcr &= ~TIM_SMCR_MSM;
 8002c7c:	f023 0380 	bic.w	r3, r3, #128	; 0x80
  tmpsmcr |= sMasterConfig->MasterSlaveMode;
 8002c80:	430b      	orrs	r3, r1
  tmpcr2 |=  sMasterConfig->MasterOutputTrigger;
 8002c82:	432a      	orrs	r2, r5

  /* Update TIMx CR2 */
  htim->Instance->CR2 = tmpcr2;
 8002c84:	6062      	str	r2, [r4, #4]

  /* Update TIMx SMCR */
  htim->Instance->SMCR = tmpsmcr;
 8002c86:	60a3      	str	r3, [r4, #8]

  /* Change the htim state */
  htim->State = HAL_TIM_STATE_READY;
 8002c88:	2301      	movs	r3, #1
 8002c8a:	f880 303d 	strb.w	r3, [r0, #61]	; 0x3d

  __HAL_UNLOCK(htim);
 8002c8e:	2300      	movs	r3, #0
 8002c90:	f880 303c 	strb.w	r3, [r0, #60]	; 0x3c
  __HAL_LOCK(htim);
 8002c94:	4618      	mov	r0, r3

  return HAL_OK;
}
 8002c96:	bd30      	pop	{r4, r5, pc}

08002c98 <CS43L22_write>:
	// Write 0x00 to register 0x00.
	CS43L22_write( 0x00, 0x00, 2);
	CS43L22_write( CS43L22_REG_POWER_CTL1 , 0x9E, 2);
}

void CS43L22_write(uint8_t reg, uint8_t Cmd, uint8_t len){
 8002c98:	b507      	push	{r0, r1, r2, lr}

	uint8_t iData[2]; // Buffer to read, change and write back register values of the DAC
	iData[0] =  reg;
 8002c9a:	f88d 0004 	strb.w	r0, [sp, #4]
	iData[1] = Cmd;
 8002c9e:	f88d 1005 	strb.w	r1, [sp, #5]

	CS43L22_EXTERNAL_DAC_I2C_write(iData,len);
 8002ca2:	a801      	add	r0, sp, #4
 8002ca4:	4611      	mov	r1, r2
 8002ca6:	f000 fccb 	bl	8003640 <CS43L22_EXTERNAL_DAC_I2C_write>


}
 8002caa:	b003      	add	sp, #12
 8002cac:	f85d fb04 	ldr.w	pc, [sp], #4

08002cb0 <CS43L22_init>:
void CS43L22_init(){
 8002cb0:	b513      	push	{r0, r1, r4, lr}
	CS43L22_EXTERNAL_DAC_enable();
 8002cb2:	f000 fce1 	bl	8003678 <CS43L22_EXTERNAL_DAC_enable>
	CS43L22_write( CS43L22_REG_POWER_CTL1, 0x01, 2);
 8002cb6:	2202      	movs	r2, #2
 8002cb8:	4610      	mov	r0, r2
 8002cba:	2101      	movs	r1, #1
 8002cbc:	f7ff ffec 	bl	8002c98 <CS43L22_write>
	CS43L22_write( CS43L22_REG_POWER_CTL2, 0xAF, 2);
 8002cc0:	2202      	movs	r2, #2
 8002cc2:	21af      	movs	r1, #175	; 0xaf
 8002cc4:	2004      	movs	r0, #4
 8002cc6:	f7ff ffe7 	bl	8002c98 <CS43L22_write>
	CS43L22_write( CS43L22_REG_CLOCKING_CTL,(1 << 7), 2); //Tal vez tenga que poner 0x81 para dividir clock
 8002cca:	2202      	movs	r2, #2
 8002ccc:	2180      	movs	r1, #128	; 0x80
 8002cce:	2005      	movs	r0, #5
 8002cd0:	f7ff ffe2 	bl	8002c98 <CS43L22_write>
	CS43L22_write(iData[0], iData[1], 1);// Transmit register address to the device ...
 8002cd4:	f89d 1005 	ldrb.w	r1, [sp, #5]
	iData[0] = CS43L22_REG_INTERFACE_CTL1;
 8002cd8:	2006      	movs	r0, #6
	CS43L22_write(iData[0], iData[1], 1);// Transmit register address to the device ...
 8002cda:	2201      	movs	r2, #1
	iData[0] = CS43L22_REG_INTERFACE_CTL1;
 8002cdc:	f88d 0004 	strb.w	r0, [sp, #4]
	CS43L22_write(iData[0], iData[1], 1);// Transmit register address to the device ...
 8002ce0:	f7ff ffda 	bl	8002c98 <CS43L22_write>
	CS43L22_EXTERNAL_DAC_I2C_recieve(&iData[1]); // ... and read 1 byte (the register content).
 8002ce4:	f10d 0005 	add.w	r0, sp, #5
 8002ce8:	f000 fcb8 	bl	800365c <CS43L22_EXTERNAL_DAC_I2C_recieve>
	iData[1] &= (1 << 5); // Clear all bits except bit 5 which is reserved
 8002cec:	f89d 1005 	ldrb.w	r1, [sp, #5]
	CS43L22_write(iData[0], iData[1], 2);
 8002cf0:	f89d 0004 	ldrb.w	r0, [sp, #4]
	iData[1] &= (1 << 5); // Clear all bits except bit 5 which is reserved
 8002cf4:	f001 0120 	and.w	r1, r1, #32
	iData[1] |=  (3 << 0);  // 16-bit audio word length for I2S interface
 8002cf8:	f041 0107 	orr.w	r1, r1, #7
	CS43L22_write(iData[0], iData[1], 2);
 8002cfc:	2202      	movs	r2, #2
	iData[1] |=  (3 << 0);  // 16-bit audio word length for I2S interface
 8002cfe:	f88d 1005 	strb.w	r1, [sp, #5]
	CS43L22_write(iData[0], iData[1], 2);
 8002d02:	f7ff ffc9 	bl	8002c98 <CS43L22_write>
	CS43L22_write(iData[0], iData[1], 1); // Transmit register address to the device ...
 8002d06:	f89d 1005 	ldrb.w	r1, [sp, #5]
	iData[0] = CS43L22_REG_MISC_CTL ;
 8002d0a:	200e      	movs	r0, #14
	CS43L22_write(iData[0], iData[1], 1); // Transmit register address to the device ...
 8002d0c:	2201      	movs	r2, #1
	iData[0] = CS43L22_REG_MISC_CTL ;
 8002d0e:	f88d 0004 	strb.w	r0, [sp, #4]
	CS43L22_write(iData[0], iData[1], 1); // Transmit register address to the device ...
 8002d12:	f7ff ffc1 	bl	8002c98 <CS43L22_write>
	CS43L22_EXTERNAL_DAC_I2C_recieve(&iData[1]);  // ... and read 1 byte (the register content).
 8002d16:	f10d 0005 	add.w	r0, sp, #5
 8002d1a:	f000 fc9f 	bl	800365c <CS43L22_EXTERNAL_DAC_I2C_recieve>
	iData[1] &= ~(1 << 3);   // Changed settings take affect immediately
 8002d1e:	f89d 1005 	ldrb.w	r1, [sp, #5]
	CS43L22_write(iData[0], iData[1], 2);
 8002d22:	f89d 0004 	ldrb.w	r0, [sp, #4]
	iData[1] &= ~(1 << 3);   // Changed settings take affect immediately
 8002d26:	f001 0137 	and.w	r1, r1, #55	; 0x37
 8002d2a:	f041 0130 	orr.w	r1, r1, #48	; 0x30
	CS43L22_write(iData[0], iData[1], 2);
 8002d2e:	2202      	movs	r2, #2
	iData[1] &= ~(1 << 3);   // Changed settings take affect immediately
 8002d30:	f88d 1005 	strb.w	r1, [sp, #5]
	CS43L22_write(iData[0], iData[1], 2);
 8002d34:	f7ff ffb0 	bl	8002c98 <CS43L22_write>
	CS43L22_write( CS43L22_REG_PLAYBACK_CTL2, 0x00, 2);
 8002d38:	2202      	movs	r2, #2
 8002d3a:	2100      	movs	r1, #0
 8002d3c:	200f      	movs	r0, #15
 8002d3e:	f7ff ffab 	bl	8002c98 <CS43L22_write>
	CS43L22_write( CS43L22_REG_PCMA_VOL, 0x00, 2);
 8002d42:	2202      	movs	r2, #2
 8002d44:	2100      	movs	r1, #0
 8002d46:	201a      	movs	r0, #26
 8002d48:	f7ff ffa6 	bl	8002c98 <CS43L22_write>
	CS43L22_write( CS43L22_REG_PCMB_VOL, 0x00, 2);
 8002d4c:	2202      	movs	r2, #2
 8002d4e:	2100      	movs	r1, #0
 8002d50:	201b      	movs	r0, #27
 8002d52:	f7ff ffa1 	bl	8002c98 <CS43L22_write>
	CS43L22_write( 0x00, 0x99, 2);
 8002d56:	2202      	movs	r2, #2
 8002d58:	2199      	movs	r1, #153	; 0x99
 8002d5a:	2000      	movs	r0, #0
 8002d5c:	f7ff ff9c 	bl	8002c98 <CS43L22_write>
	iData[0] = 0x32;
 8002d60:	2432      	movs	r4, #50	; 0x32
	CS43L22_write( 0x47, 0x80, 2);
 8002d62:	2202      	movs	r2, #2
 8002d64:	2180      	movs	r1, #128	; 0x80
 8002d66:	2047      	movs	r0, #71	; 0x47
 8002d68:	f7ff ff96 	bl	8002c98 <CS43L22_write>
	CS43L22_write(iData[0], iData[1], 1);
 8002d6c:	f89d 1005 	ldrb.w	r1, [sp, #5]
	iData[0] = 0x32;
 8002d70:	f88d 4004 	strb.w	r4, [sp, #4]
	CS43L22_write(iData[0], iData[1], 1);
 8002d74:	2201      	movs	r2, #1
 8002d76:	4620      	mov	r0, r4
 8002d78:	f7ff ff8e 	bl	8002c98 <CS43L22_write>
	CS43L22_EXTERNAL_DAC_I2C_recieve(&iData[1]);
 8002d7c:	f10d 0005 	add.w	r0, sp, #5
 8002d80:	f000 fc6c 	bl	800365c <CS43L22_EXTERNAL_DAC_I2C_recieve>
	iData[1] |= 0x80;
 8002d84:	f89d 1005 	ldrb.w	r1, [sp, #5]
	CS43L22_write(iData[0], iData[1], 2);
 8002d88:	f89d 0004 	ldrb.w	r0, [sp, #4]
	iData[1] |= 0x80;
 8002d8c:	f041 0180 	orr.w	r1, r1, #128	; 0x80
	CS43L22_write(iData[0], iData[1], 2);
 8002d90:	2202      	movs	r2, #2
	iData[1] |= 0x80;
 8002d92:	f88d 1005 	strb.w	r1, [sp, #5]
	CS43L22_write(iData[0], iData[1], 2);
 8002d96:	f7ff ff7f 	bl	8002c98 <CS43L22_write>
	CS43L22_write(iData[0], iData[1], 1);
 8002d9a:	f89d 1005 	ldrb.w	r1, [sp, #5]
	iData[0] = 0x32;
 8002d9e:	f88d 4004 	strb.w	r4, [sp, #4]
	CS43L22_write(iData[0], iData[1], 1);
 8002da2:	2201      	movs	r2, #1
 8002da4:	4620      	mov	r0, r4
 8002da6:	f7ff ff77 	bl	8002c98 <CS43L22_write>
	CS43L22_EXTERNAL_DAC_I2C_recieve(&iData[1]);
 8002daa:	f10d 0005 	add.w	r0, sp, #5
 8002dae:	f000 fc55 	bl	800365c <CS43L22_EXTERNAL_DAC_I2C_recieve>
	iData[1] &= ~(0x80);
 8002db2:	f89d 1005 	ldrb.w	r1, [sp, #5]
	CS43L22_write(iData[0], iData[1], 2);
 8002db6:	f89d 0004 	ldrb.w	r0, [sp, #4]
	iData[1] &= ~(0x80);
 8002dba:	f001 017f 	and.w	r1, r1, #127	; 0x7f
	CS43L22_write(iData[0], iData[1], 2);
 8002dbe:	2202      	movs	r2, #2
	iData[1] &= ~(0x80);
 8002dc0:	f88d 1005 	strb.w	r1, [sp, #5]
	CS43L22_write(iData[0], iData[1], 2);
 8002dc4:	f7ff ff68 	bl	8002c98 <CS43L22_write>
	CS43L22_write( 0x00, 0x00, 2);
 8002dc8:	2100      	movs	r1, #0
 8002dca:	4608      	mov	r0, r1
 8002dcc:	2202      	movs	r2, #2
 8002dce:	f7ff ff63 	bl	8002c98 <CS43L22_write>
	CS43L22_write( CS43L22_REG_POWER_CTL1 , 0x9E, 2);
 8002dd2:	2202      	movs	r2, #2
 8002dd4:	219e      	movs	r1, #158	; 0x9e
 8002dd6:	4610      	mov	r0, r2
 8002dd8:	f7ff ff5e 	bl	8002c98 <CS43L22_write>
}
 8002ddc:	b002      	add	sp, #8
 8002dde:	bd10      	pop	{r4, pc}

08002de0 <CS43L22_AudioSend>:

void CS43L22_AudioSend(uint16_t *buffer,uint16_t buffer_size){

	CS43L22_EXTERNAL_DAC_I2S_transmit(buffer,buffer_size);
 8002de0:	f000 bc26 	b.w	8003630 <CS43L22_EXTERNAL_DAC_I2S_transmit>

08002de4 <FFT>:
#define PTS 1024		    //# of points for FFT
typedef struct {float real,imag;} COMPLEX;
extern COMPLEX w[PTS];       	    //twiddle constants stored in w

void FFT(COMPLEX *Y, int N)      //input sample array, # of points     
{
 8002de4:	e92d 4ff7 	stmdb	sp!, {r0, r1, r2, r4, r5, r6, r7, r8, r9, sl, fp, lr}
 int i,j,k;                       //loop counter variables               
 int upper_leg, lower_leg;   	    //index of upper/lower butterfly leg   
 int leg_diff;                    //difference between upper/lower leg   
 int num_stages = 0;              //number of FFT stages (iterations)
 int index, step;                 //index/step through twiddle constant
 i = 1;                           //log(base2) of N points= # of stages  
 8002de8:	2301      	movs	r3, #1
 int num_stages = 0;              //number of FFT stages (iterations)
 8002dea:	2200      	movs	r2, #0
 do
  {
   num_stages +=1;
   i = i*2;
 8002dec:	005b      	lsls	r3, r3, #1
  }while (i!=N);
 8002dee:	428b      	cmp	r3, r1
 8002df0:	4693      	mov	fp, r2
   num_stages +=1;
 8002df2:	f102 0201 	add.w	r2, r2, #1
  }while (i!=N);
 8002df6:	d1f9      	bne.n	8002dec <FFT+0x8>
 leg_diff = N/2; 		     	    //difference between upper&lower legs
 8002df8:	eb01 73d1 	add.w	r3, r1, r1, lsr #31
 8002dfc:	ea4f 0a63 	mov.w	sl, r3, asr #1
 step = PTS/N;   		     	    //step between values in twiddle.h              
 8002e00:	f44f 6780 	mov.w	r7, #1024	; 0x400
 for (i = 0;i < num_stages; i++)  //for N-point FFT                 
 8002e04:	f04f 0e00 	mov.w	lr, #0
 step = PTS/N;   		     	    //step between values in twiddle.h              
 8002e08:	fb97 f3f1 	sdiv	r3, r7, r1
 8002e0c:	9300      	str	r3, [sp, #0]
 leg_diff = N/2; 		     	    //difference between upper&lower legs
 8002e0e:	4653      	mov	r3, sl
  {
   index = 0;
   for (j = 0; j < leg_diff; j++)
    {
     for (upper_leg = j; upper_leg < N; upper_leg += (2*leg_diff))
 8002e10:	005a      	lsls	r2, r3, #1
 8002e12:	4617      	mov	r7, r2
 8002e14:	9a00      	ldr	r2, [sp, #0]
 8002e16:	4e39      	ldr	r6, [pc, #228]	; (8002efc <FFT+0x118>)
 8002e18:	00d2      	lsls	r2, r2, #3
 8002e1a:	eb00 0cc3 	add.w	ip, r0, r3, lsl #3
 8002e1e:	9201      	str	r2, [sp, #4]
 8002e20:	ea4f 1903 	mov.w	r9, r3, lsl #4
   for (j = 0; j < leg_diff; j++)
 8002e24:	2500      	movs	r5, #0
 8002e26:	e02f      	b.n	8002e88 <FFT+0xa4>
      {   
       lower_leg = upper_leg+leg_diff;
	 temp1.real = (Y[upper_leg]).real + (Y[lower_leg]).real;
 8002e28:	ed92 6a00 	vldr	s12, [r2]
       temp1.imag = (Y[upper_leg]).imag + (Y[lower_leg]).imag;
 8002e2c:	edd2 6a01 	vldr	s13, [r2, #4]
	 temp1.real = (Y[upper_leg]).real + (Y[lower_leg]).real;
 8002e30:	ed94 7a00 	vldr	s14, [r4]
       temp1.imag = (Y[upper_leg]).imag + (Y[lower_leg]).imag;
 8002e34:	edd4 7a01 	vldr	s15, [r4, #4]
       temp2.real = (Y[upper_leg]).real - (Y[lower_leg]).real;
       temp2.imag = (Y[upper_leg]).imag - (Y[lower_leg]).imag;
       (Y[lower_leg]).real = temp2.real*(w[index]).real
				    -temp2.imag*(w[index]).imag;
 8002e38:	edd6 4a00 	vldr	s9, [r6]
	 temp1.real = (Y[upper_leg]).real + (Y[lower_leg]).real;
 8002e3c:	ee37 5a06 	vadd.f32	s10, s14, s12
       temp1.imag = (Y[upper_leg]).imag + (Y[lower_leg]).imag;
 8002e40:	ee77 5aa6 	vadd.f32	s11, s15, s13
       temp2.real = (Y[upper_leg]).real - (Y[lower_leg]).real;
 8002e44:	ee37 7a46 	vsub.f32	s14, s14, s12
       temp2.imag = (Y[upper_leg]).imag - (Y[lower_leg]).imag;
 8002e48:	ee77 7ae6 	vsub.f32	s15, s15, s13
				    -temp2.imag*(w[index]).imag;
 8002e4c:	ed96 6a01 	vldr	s12, [r6, #4]
 8002e50:	ee66 6a67 	vnmul.f32	s13, s12, s15
     for (upper_leg = j; upper_leg < N; upper_leg += (2*leg_diff))
 8002e54:	44b8      	add	r8, r7
				    -temp2.imag*(w[index]).imag;
 8002e56:	eee7 6a24 	vfma.f32	s13, s14, s9
       (Y[lower_leg]).real = temp2.real*(w[index]).real
 8002e5a:	edc2 6a00 	vstr	s13, [r2]
       (Y[lower_leg]).imag = temp2.real*(w[index]).imag
				    +temp2.imag*(w[index]).real;
 8002e5e:	edd6 6a00 	vldr	s13, [r6]
 8002e62:	ee67 7aa6 	vmul.f32	s15, s15, s13
 8002e66:	eee7 7a06 	vfma.f32	s15, s14, s12
       (Y[lower_leg]).imag = temp2.real*(w[index]).imag
 8002e6a:	edc2 7a01 	vstr	s15, [r2, #4]
       (Y[upper_leg]).real = temp1.real;
 8002e6e:	ed84 5a00 	vstr	s10, [r4]
       (Y[upper_leg]).imag = temp1.imag;
 8002e72:	edc4 5a01 	vstr	s11, [r4, #4]
     for (upper_leg = j; upper_leg < N; upper_leg += (2*leg_diff))
 8002e76:	444a      	add	r2, r9
 8002e78:	444c      	add	r4, r9
 8002e7a:	4588      	cmp	r8, r1
 8002e7c:	dbd4      	blt.n	8002e28 <FFT+0x44>
   for (j = 0; j < leg_diff; j++)
 8002e7e:	9a01      	ldr	r2, [sp, #4]
 8002e80:	3501      	adds	r5, #1
 8002e82:	f10c 0c08 	add.w	ip, ip, #8
 8002e86:	4416      	add	r6, r2
 8002e88:	429d      	cmp	r5, r3
 8002e8a:	da04      	bge.n	8002e96 <FFT+0xb2>
 8002e8c:	eb00 04c5 	add.w	r4, r0, r5, lsl #3
 8002e90:	4662      	mov	r2, ip
 8002e92:	46a8      	mov	r8, r5
 8002e94:	e7f1      	b.n	8002e7a <FFT+0x96>
      }
   index += step;
    }
     leg_diff = leg_diff/2;
     step *= 2;
 8002e96:	9a00      	ldr	r2, [sp, #0]
     leg_diff = leg_diff/2;
 8002e98:	eb03 73d3 	add.w	r3, r3, r3, lsr #31
     step *= 2;
 8002e9c:	0052      	lsls	r2, r2, #1
 for (i = 0;i < num_stages; i++)  //for N-point FFT                 
 8002e9e:	45f3      	cmp	fp, lr
     step *= 2;
 8002ea0:	9200      	str	r2, [sp, #0]
     leg_diff = leg_diff/2;
 8002ea2:	ea4f 0363 	mov.w	r3, r3, asr #1
 for (i = 0;i < num_stages; i++)  //for N-point FFT                 
 8002ea6:	f10e 0201 	add.w	r2, lr, #1
 8002eaa:	d108      	bne.n	8002ebe <FFT+0xda>
 8002eac:	4604      	mov	r4, r0
      }
       j = 0;
 8002eae:	2200      	movs	r2, #0
       for (i = 1; i < (N-1); i++)     //bit reversal for resequencing data
 8002eb0:	2501      	movs	r5, #1
 8002eb2:	3901      	subs	r1, #1
 8002eb4:	42a9      	cmp	r1, r5
 8002eb6:	dc1e      	bgt.n	8002ef6 <FFT+0x112>
       (Y[i]).real = temp1.real;
       (Y[i]).imag = temp1.imag;
      }
    }
   return;
}
 8002eb8:	b003      	add	sp, #12
 8002eba:	e8bd 8ff0 	ldmia.w	sp!, {r4, r5, r6, r7, r8, r9, sl, fp, pc}
 8002ebe:	4696      	mov	lr, r2
 8002ec0:	e7a6      	b.n	8002e10 <FFT+0x2c>
       j = j - k;
 8002ec2:	1ad2      	subs	r2, r2, r3
       k = k/2;
 8002ec4:	eb03 73d3 	add.w	r3, r3, r3, lsr #31
 8002ec8:	105b      	asrs	r3, r3, #1
     while (k <= j)
 8002eca:	429a      	cmp	r2, r3
 8002ecc:	daf9      	bge.n	8002ec2 <FFT+0xde>
     j = j + k;
 8002ece:	441a      	add	r2, r3
     if (i<j)
 8002ed0:	4295      	cmp	r5, r2
 8002ed2:	da0d      	bge.n	8002ef0 <FFT+0x10c>
       temp1.real = (Y[j]).real;
 8002ed4:	eb00 03c2 	add.w	r3, r0, r2, lsl #3
       (Y[j]).real = (Y[i]).real;
 8002ed8:	f8d4 c008 	ldr.w	ip, [r4, #8]
       temp1.real = (Y[j]).real;
 8002edc:	681f      	ldr	r7, [r3, #0]
       (Y[j]).real = (Y[i]).real;
 8002ede:	f8c3 c000 	str.w	ip, [r3]
       temp1.imag = (Y[j]).imag;
 8002ee2:	685e      	ldr	r6, [r3, #4]
       (Y[j]).imag = (Y[i]).imag;
 8002ee4:	f8d4 c00c 	ldr.w	ip, [r4, #12]
 8002ee8:	f8c3 c004 	str.w	ip, [r3, #4]
       (Y[i]).real = temp1.real;
 8002eec:	60a7      	str	r7, [r4, #8]
       (Y[i]).imag = temp1.imag;
 8002eee:	60e6      	str	r6, [r4, #12]
       for (i = 1; i < (N-1); i++)     //bit reversal for resequencing data
 8002ef0:	3501      	adds	r5, #1
 8002ef2:	3408      	adds	r4, #8
 8002ef4:	e7de      	b.n	8002eb4 <FFT+0xd0>
     k = N/2;
 8002ef6:	4653      	mov	r3, sl
 8002ef8:	e7e7      	b.n	8002eca <FFT+0xe6>
 8002efa:	bf00      	nop
 8002efc:	20003514 	.word	0x20003514

08002f00 <SystemClock_Config>:
/**
  * @brief System Clock Configuration
  * @retval None
  */
void SystemClock_Config(void)
{
 8002f00:	b570      	push	{r4, r5, r6, lr}
  RCC_OscInitTypeDef RCC_OscInitStruct = {0};
 8002f02:	2410      	movs	r4, #16
{
 8002f04:	b098      	sub	sp, #96	; 0x60
  RCC_OscInitTypeDef RCC_OscInitStruct = {0};
 8002f06:	4622      	mov	r2, r4
 8002f08:	2100      	movs	r1, #0
 8002f0a:	a80e      	add	r0, sp, #56	; 0x38
 8002f0c:	f000 ff60 	bl	8003dd0 <memset>
  RCC_ClkInitTypeDef RCC_ClkInitStruct = {0};
 8002f10:	2214      	movs	r2, #20
 8002f12:	2100      	movs	r1, #0
 8002f14:	a807      	add	r0, sp, #28
 8002f16:	f000 ff5b 	bl	8003dd0 <memset>
  RCC_PeriphCLKInitTypeDef PeriphClkInitStruct = {0};
 8002f1a:	4622      	mov	r2, r4
 8002f1c:	2100      	movs	r1, #0
 8002f1e:	a803      	add	r0, sp, #12
 8002f20:	f000 ff56 	bl	8003dd0 <memset>

  /** Configure the main internal regulator output voltage 
  */
  __HAL_RCC_PWR_CLK_ENABLE();
 8002f24:	2400      	movs	r4, #0
 8002f26:	4b22      	ldr	r3, [pc, #136]	; (8002fb0 <SystemClock_Config+0xb0>)
 8002f28:	9401      	str	r4, [sp, #4]
 8002f2a:	6c1a      	ldr	r2, [r3, #64]	; 0x40
 8002f2c:	f042 5280 	orr.w	r2, r2, #268435456	; 0x10000000
 8002f30:	641a      	str	r2, [r3, #64]	; 0x40
 8002f32:	6c1b      	ldr	r3, [r3, #64]	; 0x40
 8002f34:	f003 5380 	and.w	r3, r3, #268435456	; 0x10000000
 8002f38:	9301      	str	r3, [sp, #4]
 8002f3a:	9b01      	ldr	r3, [sp, #4]
  __HAL_PWR_VOLTAGESCALING_CONFIG(PWR_REGULATOR_VOLTAGE_SCALE1);
 8002f3c:	4b1d      	ldr	r3, [pc, #116]	; (8002fb4 <SystemClock_Config+0xb4>)
 8002f3e:	9402      	str	r4, [sp, #8]
 8002f40:	681a      	ldr	r2, [r3, #0]
 8002f42:	f442 4280 	orr.w	r2, r2, #16384	; 0x4000
 8002f46:	601a      	str	r2, [r3, #0]
 8002f48:	681b      	ldr	r3, [r3, #0]
 8002f4a:	f403 4380 	and.w	r3, r3, #16384	; 0x4000
 8002f4e:	9302      	str	r3, [sp, #8]
 8002f50:	9b02      	ldr	r3, [sp, #8]
  /** Initializes the CPU, AHB and APB busses clocks 
  */
  RCC_OscInitStruct.OscillatorType = RCC_OSCILLATORTYPE_HSE;
  RCC_OscInitStruct.HSEState = RCC_HSE_ON;
 8002f52:	2601      	movs	r6, #1
 8002f54:	f44f 3380 	mov.w	r3, #65536	; 0x10000
  RCC_OscInitStruct.PLL.PLLState = RCC_PLL_ON;
  RCC_OscInitStruct.PLL.PLLSource = RCC_PLLSOURCE_HSE;
 8002f58:	2502      	movs	r5, #2
  RCC_OscInitStruct.HSEState = RCC_HSE_ON;
 8002f5a:	e9cd 630c 	strd	r6, r3, [sp, #48]	; 0x30
  RCC_OscInitStruct.PLL.PLLSource = RCC_PLLSOURCE_HSE;
 8002f5e:	f44f 0380 	mov.w	r3, #4194304	; 0x400000
  RCC_OscInitStruct.PLL.PLLM = 8;
  RCC_OscInitStruct.PLL.PLLN = 336;
 8002f62:	2208      	movs	r2, #8
  RCC_OscInitStruct.PLL.PLLSource = RCC_PLLSOURCE_HSE;
 8002f64:	e9cd 5312 	strd	r5, r3, [sp, #72]	; 0x48
  RCC_OscInitStruct.PLL.PLLN = 336;
 8002f68:	f44f 73a8 	mov.w	r3, #336	; 0x150
 8002f6c:	e9cd 2314 	strd	r2, r3, [sp, #80]	; 0x50
  RCC_OscInitStruct.PLL.PLLP = RCC_PLLP_DIV2;
  RCC_OscInitStruct.PLL.PLLQ = 7;
  if (HAL_RCC_OscConfig(&RCC_OscInitStruct) != HAL_OK)
 8002f70:	a80c      	add	r0, sp, #48	; 0x30
  RCC_OscInitStruct.PLL.PLLQ = 7;
 8002f72:	2307      	movs	r3, #7
 8002f74:	9317      	str	r3, [sp, #92]	; 0x5c
  RCC_OscInitStruct.PLL.PLLP = RCC_PLLP_DIV2;
 8002f76:	9516      	str	r5, [sp, #88]	; 0x58
  if (HAL_RCC_OscConfig(&RCC_OscInitStruct) != HAL_OK)
 8002f78:	f7ff fa28 	bl	80023cc <HAL_RCC_OscConfig>
  {
    Error_Handler();
  }
  /** Initializes the CPU, AHB and APB busses clocks 
  */
  RCC_ClkInitStruct.ClockType = RCC_CLOCKTYPE_HCLK|RCC_CLOCKTYPE_SYSCLK
 8002f7c:	230f      	movs	r3, #15
                              |RCC_CLOCKTYPE_PCLK1|RCC_CLOCKTYPE_PCLK2;
  RCC_ClkInitStruct.SYSCLKSource = RCC_SYSCLKSOURCE_PLLCLK;
 8002f7e:	e9cd 3507 	strd	r3, r5, [sp, #28]
  RCC_ClkInitStruct.AHBCLKDivider = RCC_SYSCLK_DIV1;
  RCC_ClkInitStruct.APB1CLKDivider = RCC_HCLK_DIV4;
  RCC_ClkInitStruct.APB2CLKDivider = RCC_HCLK_DIV2;
 8002f82:	f44f 51a0 	mov.w	r1, #5120	; 0x1400
 8002f86:	f44f 5380 	mov.w	r3, #4096	; 0x1000
 8002f8a:	e9cd 130a 	strd	r1, r3, [sp, #40]	; 0x28

  if (HAL_RCC_ClockConfig(&RCC_ClkInitStruct, FLASH_LATENCY_5) != HAL_OK)
 8002f8e:	a807      	add	r0, sp, #28
 8002f90:	2105      	movs	r1, #5
  RCC_ClkInitStruct.AHBCLKDivider = RCC_SYSCLK_DIV1;
 8002f92:	9409      	str	r4, [sp, #36]	; 0x24
  if (HAL_RCC_ClockConfig(&RCC_ClkInitStruct, FLASH_LATENCY_5) != HAL_OK)
 8002f94:	f7ff fbce 	bl	8002734 <HAL_RCC_ClockConfig>
  {
    Error_Handler();
  }
  PeriphClkInitStruct.PeriphClockSelection = RCC_PERIPHCLK_I2S;
  PeriphClkInitStruct.PLLI2S.PLLI2SN = 258;
  PeriphClkInitStruct.PLLI2S.PLLI2SR = 3;
 8002f98:	2303      	movs	r3, #3
 8002f9a:	f44f 7081 	mov.w	r0, #258	; 0x102
 8002f9e:	e9cd 0304 	strd	r0, r3, [sp, #16]
  if (HAL_RCCEx_PeriphCLKConfig(&PeriphClkInitStruct) != HAL_OK)
 8002fa2:	a803      	add	r0, sp, #12
  PeriphClkInitStruct.PeriphClockSelection = RCC_PERIPHCLK_I2S;
 8002fa4:	9603      	str	r6, [sp, #12]
  if (HAL_RCCEx_PeriphCLKConfig(&PeriphClkInitStruct) != HAL_OK)
 8002fa6:	f7ff fc6d 	bl	8002884 <HAL_RCCEx_PeriphCLKConfig>
  {
    Error_Handler();
  }
}
 8002faa:	b018      	add	sp, #96	; 0x60
 8002fac:	bd70      	pop	{r4, r5, r6, pc}
 8002fae:	bf00      	nop
 8002fb0:	40023800 	.word	0x40023800
 8002fb4:	40007000 	.word	0x40007000

08002fb8 <HAL_I2S_TxCpltCallback>:
	/* Prevent unused argument(s) compilation warning */
	UNUSED(hi2s);

	//HAL_GPIO_TogglePin(Sampling_Check_GPIO_Port, Sampling_Check_Pin);

	transferComplete = TRUE;
 8002fb8:	4b01      	ldr	r3, [pc, #4]	; (8002fc0 <HAL_I2S_TxCpltCallback+0x8>)
 8002fba:	2201      	movs	r2, #1
 8002fbc:	701a      	strb	r2, [r3, #0]

}
 8002fbe:	4770      	bx	lr
 8002fc0:	2000004c 	.word	0x2000004c

08002fc4 <HAL_ADC_ConvCpltCallback>:
void HAL_ADC_ConvCpltCallback(ADC_HandleTypeDef* hadc)

{
	/* Prevent unused argument(s) compilation warning */
	UNUSED(hadc);
	adc_done = 1;
 8002fc4:	4b01      	ldr	r3, [pc, #4]	; (8002fcc <HAL_ADC_ConvCpltCallback+0x8>)
 8002fc6:	2201      	movs	r2, #1
 8002fc8:	701a      	strb	r2, [r3, #0]

}
 8002fca:	4770      	bx	lr
 8002fcc:	200000e0 	.word	0x200000e0

08002fd0 <select_buffer_to_transmit>:

uint16_t* select_buffer_to_transmit(buffer_t bf){

	uint16_t *ptr = NULL;

	if(buffer_to_send == buffer_A){
 8002fd0:	4b04      	ldr	r3, [pc, #16]	; (8002fe4 <select_buffer_to_transmit+0x14>)
 8002fd2:	781b      	ldrb	r3, [r3, #0]
 8002fd4:	b123      	cbz	r3, 8002fe0 <select_buffer_to_transmit+0x10>

		ptr = audioBufferA;

	}else if(buffer_to_send == buffer_B){

		ptr = audioBufferB;
 8002fd6:	2b01      	cmp	r3, #1
 8002fd8:	4803      	ldr	r0, [pc, #12]	; (8002fe8 <select_buffer_to_transmit+0x18>)
 8002fda:	bf18      	it	ne
 8002fdc:	2000      	movne	r0, #0
 8002fde:	4770      	bx	lr
		ptr = audioBufferA;
 8002fe0:	4802      	ldr	r0, [pc, #8]	; (8002fec <select_buffer_to_transmit+0x1c>)

	}

	return ptr;

}
 8002fe2:	4770      	bx	lr
 8002fe4:	2000000c 	.word	0x2000000c
 8002fe8:	2000024a 	.word	0x2000024a
 8002fec:	200000e2 	.word	0x200000e2

08002ff0 <audio_buffer_init>:

void audio_buffer_init(){
 8002ff0:	b508      	push	{r3, lr}

	size_t i;

	for(i = 0;i<AUDIO_BUFFER_SIZE;i++){

		audioBufferA[i] = 0;
 8002ff2:	f44f 72b4 	mov.w	r2, #360	; 0x168
 8002ff6:	2100      	movs	r1, #0
 8002ff8:	4805      	ldr	r0, [pc, #20]	; (8003010 <audio_buffer_init+0x20>)
 8002ffa:	f000 fee9 	bl	8003dd0 <memset>
		audioBufferB[i] = 0;

	}

}
 8002ffe:	e8bd 4008 	ldmia.w	sp!, {r3, lr}
		audioBufferB[i] = 0;
 8003002:	4804      	ldr	r0, [pc, #16]	; (8003014 <audio_buffer_init+0x24>)
 8003004:	f44f 72b4 	mov.w	r2, #360	; 0x168
 8003008:	2100      	movs	r1, #0
 800300a:	f000 bee1 	b.w	8003dd0 <memset>
 800300e:	bf00      	nop
 8003010:	200000e2 	.word	0x200000e2
 8003014:	2000024a 	.word	0x2000024a

08003018 <audio_read>:


uint16_t audio_read(void){
 8003018:	b508      	push	{r3, lr}

#if (RUN_OPT == USE_ADC)

	return HAL_ADC_GetValue(&hadc1);
 800301a:	4802      	ldr	r0, [pc, #8]	; (8003024 <audio_read+0xc>)
 800301c:	f7fe f8fa 	bl	8001214 <HAL_ADC_GetValue>

	return SINE_COMP[index++];

#endif */

}
 8003020:	b280      	uxth	r0, r0
 8003022:	bd08      	pop	{r3, pc}
 8003024:	200003e4 	.word	0x200003e4

08003028 <load_buffer>:
void load_buffer(uint16_t *buff){
 8003028:	e92d 4ff0 	stmdb	sp!, {r4, r5, r6, r7, r8, r9, sl, fp, lr}
 800302c:	ed2d 8b02 	vpush	{d8}
 8003030:	b085      	sub	sp, #20
 8003032:	4680      	mov	r8, r0
	sample = audio_read();
 8003034:	f7ff fff0 	bl	8003018 <audio_read>
	samples[sample_index].real = (float)sample;
 8003038:	4d7f      	ldr	r5, [pc, #508]	; (8003238 <load_buffer+0x210>)
	sample = audio_read();
 800303a:	4b80      	ldr	r3, [pc, #512]	; (800323c <load_buffer+0x214>)
	samples[sample_index].real = (float)sample;
 800303c:	6829      	ldr	r1, [r5, #0]
 800303e:	4c80      	ldr	r4, [pc, #512]	; (8003240 <load_buffer+0x218>)
	sample = audio_read();
 8003040:	8018      	strh	r0, [r3, #0]
	samples[sample_index].real = (float)sample;
 8003042:	ee07 0a90 	vmov	s15, r0
 8003046:	eb04 03c1 	add.w	r3, r4, r1, lsl #3
 800304a:	eef8 7a67 	vcvt.f32.u32	s15, s15
	sample_index++;
 800304e:	3101      	adds	r1, #1
	samples[sample_index].imag = 0.0;
 8003050:	2200      	movs	r2, #0
	if(sample_index == PTS)
 8003052:	f5b1 6f80 	cmp.w	r1, #1024	; 0x400
	samples[sample_index].real = (float)sample;
 8003056:	edc3 7a00 	vstr	s15, [r3]
	samples[sample_index].imag = 0.0;
 800305a:	605a      	str	r2, [r3, #4]
	sample_index++;
 800305c:	6029      	str	r1, [r5, #0]
	if(sample_index == PTS)
 800305e:	f040 80c4 	bne.w	80031ea <load_buffer+0x1c2>
		FFT(samples, PTS);
 8003062:	4620      	mov	r0, r4
 8003064:	f8df b210 	ldr.w	fp, [pc, #528]	; 8003278 <load_buffer+0x250>
 8003068:	f7ff febc 	bl	8002de4 <FFT>
		for (int index = 0; index < PTS; index++)
 800306c:	f04f 0a00 	mov.w	sl, #0
 8003070:	46d9      	mov	r9, fp
			double mag = pow(samples[index].real, 2) + pow(samples[index].imag, 2);
 8003072:	6820      	ldr	r0, [r4, #0]
 8003074:	f7fd fa60 	bl	8000538 <__aeabi_f2d>
 8003078:	4602      	mov	r2, r0
 800307a:	460b      	mov	r3, r1
 800307c:	6860      	ldr	r0, [r4, #4]
 800307e:	e9cd 2302 	strd	r2, r3, [sp, #8]
 8003082:	f7fd fa59 	bl	8000538 <__aeabi_f2d>
 8003086:	e9dd 2302 	ldrd	r2, r3, [sp, #8]
 800308a:	ec41 0b18 	vmov	d8, r0, r1
 800308e:	4610      	mov	r0, r2
 8003090:	4619      	mov	r1, r3
 8003092:	f7fd faa9 	bl	80005e8 <__aeabi_dmul>
 8003096:	ec53 2b18 	vmov	r2, r3, d8
 800309a:	4606      	mov	r6, r0
 800309c:	460f      	mov	r7, r1
 800309e:	ee18 0a10 	vmov	r0, s16
 80030a2:	4619      	mov	r1, r3
 80030a4:	f7fd faa0 	bl	80005e8 <__aeabi_dmul>
 80030a8:	4602      	mov	r2, r0
 80030aa:	460b      	mov	r3, r1
 80030ac:	4630      	mov	r0, r6
 80030ae:	4639      	mov	r1, r7
 80030b0:	f7fd f8e4 	bl	800027c <__adddf3>
			spectrum[index] = sqrt(mag);
 80030b4:	ec41 0b10 	vmov	d0, r0, r1
 80030b8:	f001 fc12 	bl	80048e0 <sqrt>
 80030bc:	ec51 0b10 	vmov	r0, r1, d0
 80030c0:	f7fd fd6a 	bl	8000b98 <__aeabi_d2f>
		for (int index = 0; index < PTS; index++)
 80030c4:	f10a 0a01 	add.w	sl, sl, #1
 80030c8:	f5ba 6f80 	cmp.w	sl, #1024	; 0x400
			spectrum[index] = sqrt(mag);
 80030cc:	f84b 0b04 	str.w	r0, [fp], #4
		for (int index = 0; index < PTS; index++)
 80030d0:	f104 0408 	add.w	r4, r4, #8
 80030d4:	d1cd      	bne.n	8003072 <load_buffer+0x4a>
		for (int i = dtmf_row[0]; i < dtmf_column[3]; i++)
 80030d6:	4b5b      	ldr	r3, [pc, #364]	; (8003244 <load_buffer+0x21c>)
 80030d8:	4a5b      	ldr	r2, [pc, #364]	; (8003248 <load_buffer+0x220>)
 80030da:	6819      	ldr	r1, [r3, #0]
 80030dc:	4b5b      	ldr	r3, [pc, #364]	; (800324c <load_buffer+0x224>)
 80030de:	edd2 7a00 	vldr	s15, [r2]
 80030e2:	68d8      	ldr	r0, [r3, #12]
 80030e4:	eb09 0681 	add.w	r6, r9, r1, lsl #2
 80030e8:	460b      	mov	r3, r1
 80030ea:	2400      	movs	r4, #0
 80030ec:	4298      	cmp	r0, r3
 80030ee:	f300 8098 	bgt.w	8003222 <load_buffer+0x1fa>
 80030f2:	1a43      	subs	r3, r0, r1
 80030f4:	4288      	cmp	r0, r1
 80030f6:	bfb8      	it	lt
 80030f8:	2300      	movlt	r3, #0
 80030fa:	b10c      	cbz	r4, 8003100 <load_buffer+0xd8>
 80030fc:	edc2 7a00 	vstr	s15, [r2]
		average = average / (float)count;
 8003100:	ee07 3a90 	vmov	s15, r3
 8003104:	edd2 6a00 	vldr	s13, [r2]
		row_index = 5;
 8003108:	4851      	ldr	r0, [pc, #324]	; (8003250 <load_buffer+0x228>)
 800310a:	4f4e      	ldr	r7, [pc, #312]	; (8003244 <load_buffer+0x21c>)
 800310c:	4e4f      	ldr	r6, [pc, #316]	; (800324c <load_buffer+0x224>)
		average = average / (float)count;
 800310e:	eeb8 7ae7 	vcvt.f32.s32	s14, s15
		row_index = 5;
 8003112:	2305      	movs	r3, #5
		average = average / (float)count;
 8003114:	eec6 7a87 	vdiv.f32	s15, s13, s14
		row_index = 5;
 8003118:	6003      	str	r3, [r0, #0]
		float cutoff = average*THRESHOLD;
 800311a:	eeb0 7a08 	vmov.f32	s14, #8	; 0x40400000  3.0
		average = average / (float)count;
 800311e:	edc2 7a00 	vstr	s15, [r2]
		column_index = 5;
 8003122:	4a4c      	ldr	r2, [pc, #304]	; (8003254 <load_buffer+0x22c>)
		float cutoff = average*THRESHOLD;
 8003124:	ee67 7a87 	vmul.f32	s15, s15, s14
		float column_peak = 0.0;
 8003128:	ed9f 7a4b 	vldr	s14, [pc, #300]	; 8003258 <load_buffer+0x230>
		column_index = 5;
 800312c:	6013      	str	r3, [r2, #0]
 800312e:	2300      	movs	r3, #0
 8003130:	461c      	mov	r4, r3
		for(int index = 0; index < 4; index++)
 8003132:	461a      	mov	r2, r3
		float row_peak = 0.0;
 8003134:	eeb0 6a47 	vmov.f32	s12, s14
			if((spectrum[dtmf_row[index]] > cutoff) & (spectrum[dtmf_row[index]] > row_peak))
 8003138:	f857 1b04 	ldr.w	r1, [r7], #4
 800313c:	eb09 0181 	add.w	r1, r9, r1, lsl #2
 8003140:	edd1 6a00 	vldr	s13, [r1]
 8003144:	eef4 6ae7 	vcmpe.f32	s13, s15
 8003148:	eef1 fa10 	vmrs	APSR_nzcv, fpscr
 800314c:	eef4 6ac6 	vcmpe.f32	s13, s12
 8003150:	bfcc      	ite	gt
 8003152:	2101      	movgt	r1, #1
 8003154:	2100      	movle	r1, #0
 8003156:	eef1 fa10 	vmrs	APSR_nzcv, fpscr
 800315a:	f001 0101 	and.w	r1, r1, #1
 800315e:	bfd8      	it	le
 8003160:	2100      	movle	r1, #0
 8003162:	2900      	cmp	r1, #0
 8003164:	bf18      	it	ne
 8003166:	460c      	movne	r4, r1
 8003168:	9900      	ldr	r1, [sp, #0]
 800316a:	bf18      	it	ne
 800316c:	4611      	movne	r1, r2
 800316e:	9100      	str	r1, [sp, #0]
			if((spectrum[dtmf_column[index]] > cutoff) & (spectrum[dtmf_column[index]] > column_peak))
 8003170:	f856 1b04 	ldr.w	r1, [r6], #4
 8003174:	eb09 0181 	add.w	r1, r9, r1, lsl #2
			if((spectrum[dtmf_row[index]] > cutoff) & (spectrum[dtmf_row[index]] > row_peak))
 8003178:	bf18      	it	ne
 800317a:	eeb0 6a66 	vmovne.f32	s12, s13
			if((spectrum[dtmf_column[index]] > cutoff) & (spectrum[dtmf_column[index]] > column_peak))
 800317e:	edd1 6a00 	vldr	s13, [r1]
 8003182:	eef4 6ae7 	vcmpe.f32	s13, s15
 8003186:	eef1 fa10 	vmrs	APSR_nzcv, fpscr
 800318a:	eef4 6ac7 	vcmpe.f32	s13, s14
 800318e:	bfcc      	ite	gt
 8003190:	2101      	movgt	r1, #1
 8003192:	2100      	movle	r1, #0
 8003194:	eef1 fa10 	vmrs	APSR_nzcv, fpscr
 8003198:	f001 0101 	and.w	r1, r1, #1
 800319c:	bfd8      	it	le
 800319e:	2100      	movle	r1, #0
 80031a0:	2900      	cmp	r1, #0
 80031a2:	bf18      	it	ne
 80031a4:	460b      	movne	r3, r1
 80031a6:	9901      	ldr	r1, [sp, #4]
 80031a8:	bf18      	it	ne
 80031aa:	4611      	movne	r1, r2
		for(int index = 0; index < 4; index++)
 80031ac:	f102 0201 	add.w	r2, r2, #1
			if((spectrum[dtmf_column[index]] > cutoff) & (spectrum[dtmf_column[index]] > column_peak))
 80031b0:	bf18      	it	ne
 80031b2:	eeb0 7a66 	vmovne.f32	s14, s13
		for(int index = 0; index < 4; index++)
 80031b6:	2a04      	cmp	r2, #4
			if((spectrum[dtmf_column[index]] > cutoff) & (spectrum[dtmf_column[index]] > column_peak))
 80031b8:	9101      	str	r1, [sp, #4]
		for(int index = 0; index < 4; index++)
 80031ba:	d1bd      	bne.n	8003138 <load_buffer+0x110>
 80031bc:	4a25      	ldr	r2, [pc, #148]	; (8003254 <load_buffer+0x22c>)
 80031be:	b103      	cbz	r3, 80031c2 <load_buffer+0x19a>
 80031c0:	6011      	str	r1, [r2, #0]
 80031c2:	b10c      	cbz	r4, 80031c8 <load_buffer+0x1a0>
 80031c4:	9b00      	ldr	r3, [sp, #0]
 80031c6:	6003      	str	r3, [r0, #0]
		if ((row_index > 4) | (column_index > 4))
 80031c8:	6801      	ldr	r1, [r0, #0]
 80031ca:	6812      	ldr	r2, [r2, #0]
 80031cc:	2904      	cmp	r1, #4
 80031ce:	dc07      	bgt.n	80031e0 <load_buffer+0x1b8>
 80031d0:	2a04      	cmp	r2, #4
 80031d2:	dc05      	bgt.n	80031e0 <load_buffer+0x1b8>
			key=keys[row_index][column_index];
 80031d4:	4b21      	ldr	r3, [pc, #132]	; (800325c <load_buffer+0x234>)
 80031d6:	eb03 0381 	add.w	r3, r3, r1, lsl #2
 80031da:	5c99      	ldrb	r1, [r3, r2]
		if(key == 'x')
 80031dc:	2978      	cmp	r1, #120	; 0x78
 80031de:	d127      	bne.n	8003230 <load_buffer+0x208>
			printf("No key present\n");
 80031e0:	481f      	ldr	r0, [pc, #124]	; (8003260 <load_buffer+0x238>)
 80031e2:	f000 fd15 	bl	8003c10 <puts>
		sample_index = 0;
 80031e6:	2300      	movs	r3, #0
 80031e8:	602b      	str	r3, [r5, #0]
	buff[i] = sample;
 80031ea:	491e      	ldr	r1, [pc, #120]	; (8003264 <load_buffer+0x23c>)
 80031ec:	4a13      	ldr	r2, [pc, #76]	; (800323c <load_buffer+0x214>)
 80031ee:	680b      	ldr	r3, [r1, #0]
 80031f0:	8810      	ldrh	r0, [r2, #0]
 80031f2:	f828 0013 	strh.w	r0, [r8, r3, lsl #1]
	buff[i+1] =  buff[i];
 80031f6:	eb08 0243 	add.w	r2, r8, r3, lsl #1
	i = i+2;
 80031fa:	3302      	adds	r3, #2
	if( (i >= AUDIO_BUFFER_SIZE)){
 80031fc:	2bb3      	cmp	r3, #179	; 0xb3
	buff[i+1] =  buff[i];
 80031fe:	8050      	strh	r0, [r2, #2]
	i = i+2;
 8003200:	600b      	str	r3, [r1, #0]
	if( (i >= AUDIO_BUFFER_SIZE)){
 8003202:	d909      	bls.n	8003218 <load_buffer+0x1f0>
		buffer_to_send = buffer_to_fill;
 8003204:	4b18      	ldr	r3, [pc, #96]	; (8003268 <load_buffer+0x240>)
		buffer_t aux = buffer_to_send;
 8003206:	4a19      	ldr	r2, [pc, #100]	; (800326c <load_buffer+0x244>)
		buffer_to_send = buffer_to_fill;
 8003208:	781c      	ldrb	r4, [r3, #0]
		buffer_t aux = buffer_to_send;
 800320a:	7810      	ldrb	r0, [r2, #0]
		buffer_to_send = buffer_to_fill;
 800320c:	7014      	strb	r4, [r2, #0]
		flag = data_ready_to_send;
 800320e:	4a18      	ldr	r2, [pc, #96]	; (8003270 <load_buffer+0x248>)
		buffer_to_fill = aux;
 8003210:	7018      	strb	r0, [r3, #0]
		flag = data_ready_to_send;
 8003212:	2300      	movs	r3, #0
 8003214:	7013      	strb	r3, [r2, #0]
		i=0;
 8003216:	600b      	str	r3, [r1, #0]
}
 8003218:	b005      	add	sp, #20
 800321a:	ecbd 8b02 	vpop	{d8}
 800321e:	e8bd 8ff0 	ldmia.w	sp!, {r4, r5, r6, r7, r8, r9, sl, fp, pc}
			average += spectrum[i];
 8003222:	ecb6 7a01 	vldmia	r6!, {s14}
		for (int i = dtmf_row[0]; i < dtmf_column[3]; i++)
 8003226:	3301      	adds	r3, #1
			average += spectrum[i];
 8003228:	ee77 7a87 	vadd.f32	s15, s15, s14
		for (int i = dtmf_row[0]; i < dtmf_column[3]; i++)
 800322c:	2401      	movs	r4, #1
 800322e:	e75d      	b.n	80030ec <load_buffer+0xc4>
			printf("key is: %c\n", key);
 8003230:	4810      	ldr	r0, [pc, #64]	; (8003274 <load_buffer+0x24c>)
 8003232:	f000 fc87 	bl	8003b44 <iprintf>
 8003236:	e7d6      	b.n	80031e6 <load_buffer+0x1be>
 8003238:	20000510 	.word	0x20000510
 800323c:	2000050c 	.word	0x2000050c
 8003240:	20000514 	.word	0x20000514
 8003244:	200003d4 	.word	0x200003d4
 8003248:	200003bc 	.word	0x200003bc
 800324c:	200003c4 	.word	0x200003c4
 8003250:	20000048 	.word	0x20000048
 8003254:	20000020 	.word	0x20000020
 8003258:	00000000 	.word	0x00000000
 800325c:	20000025 	.word	0x20000025
 8003260:	08005c30 	.word	0x08005c30
 8003264:	20000508 	.word	0x20000508
 8003268:	200003c0 	.word	0x200003c0
 800326c:	2000000c 	.word	0x2000000c
 8003270:	20000024 	.word	0x20000024
 8003274:	08005c3f 	.word	0x08005c3f
 8003278:	20002514 	.word	0x20002514

0800327c <fill_buffers>:
void fill_buffers(){
 800327c:	b510      	push	{r4, lr}
	if((buffer_to_fill == buffer_A)){
 800327e:	4c09      	ldr	r4, [pc, #36]	; (80032a4 <fill_buffers+0x28>)
 8003280:	7823      	ldrb	r3, [r4, #0]
 8003282:	b923      	cbnz	r3, 800328e <fill_buffers+0x12>
		audioToUpdate = audioBufferA;
 8003284:	4b08      	ldr	r3, [pc, #32]	; (80032a8 <fill_buffers+0x2c>)
 8003286:	4809      	ldr	r0, [pc, #36]	; (80032ac <fill_buffers+0x30>)
 8003288:	6018      	str	r0, [r3, #0]
		load_buffer(audioToUpdate);
 800328a:	f7ff fecd 	bl	8003028 <load_buffer>
	if((buffer_to_fill == buffer_B)){
 800328e:	7823      	ldrb	r3, [r4, #0]
 8003290:	2b01      	cmp	r3, #1
 8003292:	d106      	bne.n	80032a2 <fill_buffers+0x26>
		audioToUpdate = audioBufferB;
 8003294:	4b04      	ldr	r3, [pc, #16]	; (80032a8 <fill_buffers+0x2c>)
 8003296:	4806      	ldr	r0, [pc, #24]	; (80032b0 <fill_buffers+0x34>)
 8003298:	6018      	str	r0, [r3, #0]
}
 800329a:	e8bd 4010 	ldmia.w	sp!, {r4, lr}
		load_buffer(audioToUpdate);
 800329e:	f7ff bec3 	b.w	8003028 <load_buffer>
}
 80032a2:	bd10      	pop	{r4, pc}
 80032a4:	200003c0 	.word	0x200003c0
 80032a8:	200003b8 	.word	0x200003b8
 80032ac:	200000e2 	.word	0x200000e2
 80032b0:	2000024a 	.word	0x2000024a
 80032b4:	00000000 	.word	0x00000000

080032b8 <main>:
{
 80032b8:	e92d 4ff0 	stmdb	sp!, {r4, r5, r6, r7, r8, r9, sl, fp, lr}
 80032bc:	ed2d 8b04 	vpush	{d8-d9}
 80032c0:	b08d      	sub	sp, #52	; 0x34
  HAL_Init();
 80032c2:	f7fd fe5b 	bl	8000f7c <HAL_Init>
  SystemClock_Config();
 80032c6:	f7ff fe1b 	bl	8002f00 <SystemClock_Config>
  GPIO_InitTypeDef GPIO_InitStruct = {0};
 80032ca:	2214      	movs	r2, #20
 80032cc:	2100      	movs	r1, #0
 80032ce:	a807      	add	r0, sp, #28
 80032d0:	f000 fd7e 	bl	8003dd0 <memset>
  __HAL_RCC_GPIOH_CLK_ENABLE();
 80032d4:	2400      	movs	r4, #0
 80032d6:	4bb8      	ldr	r3, [pc, #736]	; (80035b8 <main+0x300>)
 80032d8:	9400      	str	r4, [sp, #0]
 80032da:	6b1a      	ldr	r2, [r3, #48]	; 0x30
  HAL_GPIO_WritePin(Sampling_Check_GPIO_Port, Sampling_Check_Pin, GPIO_PIN_RESET);
 80032dc:	48b7      	ldr	r0, [pc, #732]	; (80035bc <main+0x304>)
  hadc1.Instance = ADC1;
 80032de:	4db8      	ldr	r5, [pc, #736]	; (80035c0 <main+0x308>)
		w[i].real = cos(2.0 * M_PI * (float)i / PTS);
 80032e0:	f8df 9340 	ldr.w	r9, [pc, #832]	; 8003624 <main+0x36c>
		samples[i].real = 0;
 80032e4:	ed9f 9ab7 	vldr	s18, [pc, #732]	; 80035c4 <main+0x30c>
  __HAL_RCC_GPIOH_CLK_ENABLE();
 80032e8:	f042 0280 	orr.w	r2, r2, #128	; 0x80
 80032ec:	631a      	str	r2, [r3, #48]	; 0x30
 80032ee:	6b1a      	ldr	r2, [r3, #48]	; 0x30
 80032f0:	f002 0280 	and.w	r2, r2, #128	; 0x80
 80032f4:	9200      	str	r2, [sp, #0]
 80032f6:	9a00      	ldr	r2, [sp, #0]
  __HAL_RCC_GPIOA_CLK_ENABLE();
 80032f8:	9401      	str	r4, [sp, #4]
 80032fa:	6b1a      	ldr	r2, [r3, #48]	; 0x30
 80032fc:	f042 0201 	orr.w	r2, r2, #1
 8003300:	631a      	str	r2, [r3, #48]	; 0x30
 8003302:	6b1a      	ldr	r2, [r3, #48]	; 0x30
 8003304:	f002 0201 	and.w	r2, r2, #1
 8003308:	9201      	str	r2, [sp, #4]
 800330a:	9a01      	ldr	r2, [sp, #4]
  __HAL_RCC_GPIOD_CLK_ENABLE();
 800330c:	9402      	str	r4, [sp, #8]
 800330e:	6b1a      	ldr	r2, [r3, #48]	; 0x30
 8003310:	f042 0208 	orr.w	r2, r2, #8
 8003314:	631a      	str	r2, [r3, #48]	; 0x30
 8003316:	6b1a      	ldr	r2, [r3, #48]	; 0x30
 8003318:	f002 0208 	and.w	r2, r2, #8
 800331c:	9202      	str	r2, [sp, #8]
 800331e:	9a02      	ldr	r2, [sp, #8]
  __HAL_RCC_GPIOC_CLK_ENABLE();
 8003320:	9403      	str	r4, [sp, #12]
 8003322:	6b1a      	ldr	r2, [r3, #48]	; 0x30
 8003324:	f042 0204 	orr.w	r2, r2, #4
 8003328:	631a      	str	r2, [r3, #48]	; 0x30
 800332a:	6b1a      	ldr	r2, [r3, #48]	; 0x30
 800332c:	f002 0204 	and.w	r2, r2, #4
 8003330:	9203      	str	r2, [sp, #12]
 8003332:	9a03      	ldr	r2, [sp, #12]
  __HAL_RCC_GPIOB_CLK_ENABLE();
 8003334:	9404      	str	r4, [sp, #16]
 8003336:	6b1a      	ldr	r2, [r3, #48]	; 0x30
 8003338:	f042 0202 	orr.w	r2, r2, #2
 800333c:	631a      	str	r2, [r3, #48]	; 0x30
 800333e:	6b1b      	ldr	r3, [r3, #48]	; 0x30
 8003340:	f003 0302 	and.w	r3, r3, #2
 8003344:	9304      	str	r3, [sp, #16]
  HAL_GPIO_WritePin(Sampling_Check_GPIO_Port, Sampling_Check_Pin, GPIO_PIN_RESET);
 8003346:	4622      	mov	r2, r4
 8003348:	2104      	movs	r1, #4
  __HAL_RCC_GPIOB_CLK_ENABLE();
 800334a:	9b04      	ldr	r3, [sp, #16]
  HAL_GPIO_WritePin(Sampling_Check_GPIO_Port, Sampling_Check_Pin, GPIO_PIN_RESET);
 800334c:	f7fe f9da 	bl	8001704 <HAL_GPIO_WritePin>
  HAL_GPIO_WritePin(GPIOD, LD4_Pin|LD3_Pin|LD5_Pin|LD6_Pin 
 8003350:	4622      	mov	r2, r4
 8003352:	489d      	ldr	r0, [pc, #628]	; (80035c8 <main+0x310>)
 8003354:	f24f 0110 	movw	r1, #61456	; 0xf010
 8003358:	f7fe f9d4 	bl	8001704 <HAL_GPIO_WritePin>
  GPIO_InitStruct.Pin = Button_Pin;
 800335c:	2601      	movs	r6, #1
  HAL_GPIO_Init(Button_GPIO_Port, &GPIO_InitStruct);
 800335e:	4897      	ldr	r0, [pc, #604]	; (80035bc <main+0x304>)
  GPIO_InitStruct.Pull = GPIO_NOPULL;
 8003360:	9409      	str	r4, [sp, #36]	; 0x24
  HAL_GPIO_Init(Button_GPIO_Port, &GPIO_InitStruct);
 8003362:	a907      	add	r1, sp, #28
  GPIO_InitStruct.Mode = GPIO_MODE_INPUT;
 8003364:	e9cd 6407 	strd	r6, r4, [sp, #28]
  HAL_GPIO_Init(Button_GPIO_Port, &GPIO_InitStruct);
 8003368:	f7fe f8e6 	bl	8001538 <HAL_GPIO_Init>
  GPIO_InitStruct.Pin = Sampling_Check_Pin;
 800336c:	2304      	movs	r3, #4
  HAL_GPIO_Init(Sampling_Check_GPIO_Port, &GPIO_InitStruct);
 800336e:	4893      	ldr	r0, [pc, #588]	; (80035bc <main+0x304>)
 8003370:	a907      	add	r1, sp, #28
  GPIO_InitStruct.Mode = GPIO_MODE_OUTPUT_PP;
 8003372:	e9cd 3607 	strd	r3, r6, [sp, #28]
  GPIO_InitStruct.Speed = GPIO_SPEED_FREQ_LOW;
 8003376:	e9cd 4409 	strd	r4, r4, [sp, #36]	; 0x24
  HAL_GPIO_Init(Sampling_Check_GPIO_Port, &GPIO_InitStruct);
 800337a:	f7fe f8dd 	bl	8001538 <HAL_GPIO_Init>
  GPIO_InitStruct.Pin = LD4_Pin|LD3_Pin|LD5_Pin|LD6_Pin 
 800337e:	f24f 0310 	movw	r3, #61456	; 0xf010
  HAL_GPIO_Init(GPIOD, &GPIO_InitStruct);
 8003382:	a907      	add	r1, sp, #28
 8003384:	4890      	ldr	r0, [pc, #576]	; (80035c8 <main+0x310>)
  GPIO_InitStruct.Mode = GPIO_MODE_OUTPUT_PP;
 8003386:	e9cd 3607 	strd	r3, r6, [sp, #28]
  GPIO_InitStruct.Speed = GPIO_SPEED_FREQ_LOW;
 800338a:	e9cd 4409 	strd	r4, r4, [sp, #36]	; 0x24
  HAL_GPIO_Init(GPIOD, &GPIO_InitStruct);
 800338e:	f7fe f8d3 	bl	8001538 <HAL_GPIO_Init>
  hi2c1.Instance = I2C1;
 8003392:	488e      	ldr	r0, [pc, #568]	; (80035cc <main+0x314>)
  hi2c1.Init.ClockSpeed = 100000;
 8003394:	4a8e      	ldr	r2, [pc, #568]	; (80035d0 <main+0x318>)
 8003396:	4b8f      	ldr	r3, [pc, #572]	; (80035d4 <main+0x31c>)
  hi2c1.Init.NoStretchMode = I2C_NOSTRETCH_DISABLE;
 8003398:	6204      	str	r4, [r0, #32]
  hi2c1.Init.ClockSpeed = 100000;
 800339a:	e9c0 2300 	strd	r2, r3, [r0]
  hi2c1.Init.AddressingMode = I2C_ADDRESSINGMODE_7BIT;
 800339e:	f44f 4380 	mov.w	r3, #16384	; 0x4000
  hi2c1.Init.DualAddressMode = I2C_DUALADDRESS_DISABLE;
 80033a2:	e9c0 3404 	strd	r3, r4, [r0, #16]
  hi2c1.Init.OwnAddress1 = 0;
 80033a6:	e9c0 4402 	strd	r4, r4, [r0, #8]
  hi2c1.Init.GeneralCallMode = I2C_GENERALCALL_DISABLE;
 80033aa:	e9c0 4406 	strd	r4, r4, [r0, #24]
  if (HAL_I2C_Init(&hi2c1) != HAL_OK)
 80033ae:	f7fe fab1 	bl	8001914 <HAL_I2C_Init>
  hi2s3.Instance = SPI3;
 80033b2:	4889      	ldr	r0, [pc, #548]	; (80035d8 <main+0x320>)
  hi2s3.Init.Mode = I2S_MODE_MASTER_TX;
 80033b4:	4989      	ldr	r1, [pc, #548]	; (80035dc <main+0x324>)
 80033b6:	f44f 7300 	mov.w	r3, #512	; 0x200
 80033ba:	e9c0 1300 	strd	r1, r3, [r0]
  hi2s3.Init.MCLKOutput = I2S_MCLKOUTPUT_ENABLE;
 80033be:	6103      	str	r3, [r0, #16]
  hi2s3.Init.AudioFreq = I2S_AUDIOFREQ_48K;
 80033c0:	f64b 3380 	movw	r3, #48000	; 0xbb80
  hi2s3.Init.CPOL = I2S_CPOL_LOW;
 80033c4:	e9c0 3405 	strd	r3, r4, [r0, #20]
  hi2s3.Init.DataFormat = I2S_DATAFORMAT_16B;
 80033c8:	e9c0 4402 	strd	r4, r4, [r0, #8]
  hi2s3.Init.FullDuplexMode = I2S_FULLDUPLEXMODE_DISABLE;
 80033cc:	e9c0 4407 	strd	r4, r4, [r0, #28]
  if (HAL_I2S_Init(&hi2s3) != HAL_OK)
 80033d0:	f7fe fd7c 	bl	8001ecc <HAL_I2S_Init>
  ADC_ChannelConfTypeDef sConfig = {0};
 80033d4:	2210      	movs	r2, #16
 80033d6:	4621      	mov	r1, r4
 80033d8:	a807      	add	r0, sp, #28
 80033da:	f000 fcf9 	bl	8003dd0 <memset>
  hadc1.Init.ClockPrescaler = ADC_CLOCK_SYNC_PCLK_DIV4;
 80033de:	4880      	ldr	r0, [pc, #512]	; (80035e0 <main+0x328>)
  hadc1.Init.NbrOfConversion = 1;
 80033e0:	61ee      	str	r6, [r5, #28]
  hadc1.Init.ClockPrescaler = ADC_CLOCK_SYNC_PCLK_DIV4;
 80033e2:	f44f 3380 	mov.w	r3, #65536	; 0x10000
 80033e6:	e9c5 0300 	strd	r0, r3, [r5]
  hadc1.Init.ExternalTrigConv = ADC_EXTERNALTRIGCONV_T2_TRGO;
 80033ea:	f04f 5780 	mov.w	r7, #268435456	; 0x10000000
 80033ee:	f04f 63c0 	mov.w	r3, #100663296	; 0x6000000
  if (HAL_ADC_Init(&hadc1) != HAL_OK)
 80033f2:	4628      	mov	r0, r5
  hadc1.Init.ExternalTrigConv = ADC_EXTERNALTRIGCONV_T2_TRGO;
 80033f4:	e9c5 370a 	strd	r3, r7, [r5, #40]	; 0x28
  hadc1.Init.EOCSelection = ADC_EOC_SINGLE_CONV;
 80033f8:	616e      	str	r6, [r5, #20]
  hadc1.Init.Resolution = ADC_RESOLUTION_12B;
 80033fa:	60ac      	str	r4, [r5, #8]
  hadc1.Init.ScanConvMode = DISABLE;
 80033fc:	612c      	str	r4, [r5, #16]
  hadc1.Init.ContinuousConvMode = DISABLE;
 80033fe:	762c      	strb	r4, [r5, #24]
  hadc1.Init.DiscontinuousConvMode = DISABLE;
 8003400:	f885 4020 	strb.w	r4, [r5, #32]
  hadc1.Init.DataAlign = ADC_DATAALIGN_RIGHT;
 8003404:	60ec      	str	r4, [r5, #12]
  hadc1.Init.DMAContinuousRequests = DISABLE;
 8003406:	f885 4030 	strb.w	r4, [r5, #48]	; 0x30
  if (HAL_ADC_Init(&hadc1) != HAL_OK)
 800340a:	f7fd fde3 	bl	8000fd4 <HAL_ADC_Init>
  if (HAL_ADC_ConfigChannel(&hadc1, &sConfig) != HAL_OK)
 800340e:	a907      	add	r1, sp, #28
 8003410:	4628      	mov	r0, r5
  sConfig.Rank = 1;
 8003412:	e9cd 6607 	strd	r6, r6, [sp, #28]
  sConfig.SamplingTime = ADC_SAMPLETIME_3CYCLES;
 8003416:	9409      	str	r4, [sp, #36]	; 0x24
  htim2.Instance = TIM2;
 8003418:	4e72      	ldr	r6, [pc, #456]	; (80035e4 <main+0x32c>)
	audioToSend = audioBufferB;     //asigno punteros a c/u de los buffers
 800341a:	4f73      	ldr	r7, [pc, #460]	; (80035e8 <main+0x330>)
  if (HAL_ADC_ConfigChannel(&hadc1, &sConfig) != HAL_OK)
 800341c:	f7fd ff94 	bl	8001348 <HAL_ADC_ConfigChannel>
  TIM_ClockConfigTypeDef sClockSourceConfig = {0};
 8003420:	2210      	movs	r2, #16
 8003422:	4621      	mov	r1, r4
 8003424:	a807      	add	r0, sp, #28
 8003426:	f000 fcd3 	bl	8003dd0 <memset>
  htim2.Init.Prescaler = 175;
 800342a:	f04f 4c80 	mov.w	ip, #1073741824	; 0x40000000
 800342e:	23af      	movs	r3, #175	; 0xaf
 8003430:	e9c6 c300 	strd	ip, r3, [r6]
  if (HAL_TIM_Base_Init(&htim2) != HAL_OK)
 8003434:	4630      	mov	r0, r6
  htim2.Init.Period = 9;
 8003436:	2309      	movs	r3, #9
  htim2.Init.ClockDivision = TIM_CLOCKDIVISION_DIV1;
 8003438:	e9c6 3403 	strd	r3, r4, [r6, #12]
  htim2.Init.CounterMode = TIM_COUNTERMODE_UP;
 800343c:	60b4      	str	r4, [r6, #8]
  htim2.Init.AutoReloadPreload = TIM_AUTORELOAD_PRELOAD_DISABLE;
 800343e:	61b4      	str	r4, [r6, #24]
  TIM_MasterConfigTypeDef sMasterConfig = {0};
 8003440:	e9cd 4405 	strd	r4, r4, [sp, #20]
  if (HAL_TIM_Base_Init(&htim2) != HAL_OK)
 8003444:	f7ff fb54 	bl	8002af0 <HAL_TIM_Base_Init>
  sClockSourceConfig.ClockSource = TIM_CLOCKSOURCE_INTERNAL;
 8003448:	f44f 5380 	mov.w	r3, #4096	; 0x1000
  if (HAL_TIM_ConfigClockSource(&htim2, &sClockSourceConfig) != HAL_OK)
 800344c:	a907      	add	r1, sp, #28
 800344e:	4630      	mov	r0, r6
  sClockSourceConfig.ClockSource = TIM_CLOCKSOURCE_INTERNAL;
 8003450:	9307      	str	r3, [sp, #28]
  if (HAL_TIM_ConfigClockSource(&htim2, &sClockSourceConfig) != HAL_OK)
 8003452:	f7ff fb71 	bl	8002b38 <HAL_TIM_ConfigClockSource>
  if (HAL_TIMEx_MasterConfigSynchronization(&htim2, &sMasterConfig) != HAL_OK)
 8003456:	a905      	add	r1, sp, #20
  sMasterConfig.MasterOutputTrigger = TIM_TRGO_UPDATE;
 8003458:	2320      	movs	r3, #32
  if (HAL_TIMEx_MasterConfigSynchronization(&htim2, &sMasterConfig) != HAL_OK)
 800345a:	4630      	mov	r0, r6
  sMasterConfig.MasterSlaveMode = TIM_MASTERSLAVEMODE_DISABLE;
 800345c:	e9cd 3405 	strd	r3, r4, [sp, #20]
  if (HAL_TIMEx_MasterConfigSynchronization(&htim2, &sMasterConfig) != HAL_OK)
 8003460:	f7ff fbfc 	bl	8002c5c <HAL_TIMEx_MasterConfigSynchronization>
	audioToSend = audioBufferB;     //asigno punteros a c/u de los buffers
 8003464:	4b61      	ldr	r3, [pc, #388]	; (80035ec <main+0x334>)
 8003466:	603b      	str	r3, [r7, #0]
	audioToUpdate = audioBufferA;
 8003468:	4b61      	ldr	r3, [pc, #388]	; (80035f0 <main+0x338>)
 800346a:	4a62      	ldr	r2, [pc, #392]	; (80035f4 <main+0x33c>)
 800346c:	601a      	str	r2, [r3, #0]
	CS43L22_init();   				//configuro el DAC CS43L22
 800346e:	f7ff fc1f 	bl	8002cb0 <CS43L22_init>
	audio_buffer_init();         	//inicializo los buffers con ceros
 8003472:	f7ff fdbd 	bl	8002ff0 <audio_buffer_init>
	HAL_TIM_Base_Start(&htim2); 	//activo el timer
 8003476:	4630      	mov	r0, r6
 8003478:	f7ff fac2 	bl	8002a00 <HAL_TIM_Base_Start>
	HAL_ADC_Start_IT(&hadc1); 		// y el ADC
 800347c:	4628      	mov	r0, r5
 800347e:	f7fd fe4f 	bl	8001120 <HAL_ADC_Start_IT>
		w[i].real = cos(2.0 * M_PI * (float)i / PTS);
 8003482:	f20f 1b2c 	addw	fp, pc, #300	; 0x12c
 8003486:	e9db ab00 	ldrd	sl, fp, [fp]
 800348a:	4e5b      	ldr	r6, [pc, #364]	; (80035f8 <main+0x340>)
 800348c:	4d5b      	ldr	r5, [pc, #364]	; (80035fc <main+0x344>)
 800348e:	f04f 0800 	mov.w	r8, #0
 8003492:	ee07 4a90 	vmov	s15, r4
 8003496:	eef8 7ae7 	vcvt.f32.s32	s15, s15
	for (int i = 0; i < PTS; i++)
 800349a:	3401      	adds	r4, #1
		w[i].real = cos(2.0 * M_PI * (float)i / PTS);
 800349c:	ee17 0a90 	vmov	r0, s15
 80034a0:	f7fd f84a 	bl	8000538 <__aeabi_f2d>
 80034a4:	4652      	mov	r2, sl
 80034a6:	465b      	mov	r3, fp
 80034a8:	f7fd f89e 	bl	80005e8 <__aeabi_dmul>
 80034ac:	4642      	mov	r2, r8
 80034ae:	464b      	mov	r3, r9
 80034b0:	f7fd f89a 	bl	80005e8 <__aeabi_dmul>
 80034b4:	ec41 0b10 	vmov	d0, r0, r1
 80034b8:	ec41 0b18 	vmov	d8, r0, r1
 80034bc:	f001 fa3c 	bl	8004938 <cos>
 80034c0:	ec51 0b10 	vmov	r0, r1, d0
 80034c4:	f7fd fb68 	bl	8000b98 <__aeabi_d2f>
		w[i].imag = sin(2.0 * M_PI * (float)i / PTS);
 80034c8:	eeb0 0a48 	vmov.f32	s0, s16
 80034cc:	eef0 0a68 	vmov.f32	s1, s17
		w[i].real = cos(2.0 * M_PI * (float)i / PTS);
 80034d0:	6030      	str	r0, [r6, #0]
		w[i].imag = sin(2.0 * M_PI * (float)i / PTS);
 80034d2:	f001 fa85 	bl	80049e0 <sin>
 80034d6:	ec51 0b10 	vmov	r0, r1, d0
 80034da:	f7fd fb5d 	bl	8000b98 <__aeabi_d2f>
	for (int i = 0; i < PTS; i++)
 80034de:	f5b4 6f80 	cmp.w	r4, #1024	; 0x400
		w[i].imag = sin(2.0 * M_PI * (float)i / PTS);
 80034e2:	6070      	str	r0, [r6, #4]
		samples[i].real = 0;
 80034e4:	ed85 9a00 	vstr	s18, [r5]
		samples[i].imag = 0;
 80034e8:	ed85 9a01 	vstr	s18, [r5, #4]
	for (int i = 0; i < PTS; i++)
 80034ec:	f106 0608 	add.w	r6, r6, #8
 80034f0:	f105 0508 	add.w	r5, r5, #8
 80034f4:	d1cd      	bne.n	8003492 <main+0x1da>
		dtmf_row[row] = (int)(((float)row_freq[row])/bin_size + 0.5); // round to nearest integer
 80034f6:	4b42      	ldr	r3, [pc, #264]	; (8003600 <main+0x348>)
 80034f8:	4e42      	ldr	r6, [pc, #264]	; (8003604 <main+0x34c>)
 80034fa:	ed93 8a00 	vldr	s16, [r3]
 80034fe:	4d42      	ldr	r5, [pc, #264]	; (8003608 <main+0x350>)
 8003500:	f8df 9124 	ldr.w	r9, [pc, #292]	; 8003628 <main+0x370>
	for (int row = 0; row < 4; row++)
 8003504:	2400      	movs	r4, #0
		dtmf_row[row] = (int)(((float)row_freq[row])/bin_size + 0.5); // round to nearest integer
 8003506:	f04f 0800 	mov.w	r8, #0
 800350a:	ecf6 7a01 	vldmia	r6!, {s15}
 800350e:	eef8 7ae7 	vcvt.f32.s32	s15, s15
	for (int row = 0; row < 4; row++)
 8003512:	3401      	adds	r4, #1
		dtmf_row[row] = (int)(((float)row_freq[row])/bin_size + 0.5); // round to nearest integer
 8003514:	eec7 7a88 	vdiv.f32	s15, s15, s16
 8003518:	ee17 0a90 	vmov	r0, s15
 800351c:	f7fd f80c 	bl	8000538 <__aeabi_f2d>
 8003520:	4642      	mov	r2, r8
 8003522:	464b      	mov	r3, r9
 8003524:	f7fc feaa 	bl	800027c <__adddf3>
 8003528:	f7fd fb0e 	bl	8000b48 <__aeabi_d2iz>
	for (int row = 0; row < 4; row++)
 800352c:	2c04      	cmp	r4, #4
		dtmf_row[row] = (int)(((float)row_freq[row])/bin_size + 0.5); // round to nearest integer
 800352e:	f845 0b04 	str.w	r0, [r5], #4
	for (int row = 0; row < 4; row++)
 8003532:	d1ea      	bne.n	800350a <main+0x252>
 8003534:	4e35      	ldr	r6, [pc, #212]	; (800360c <main+0x354>)
 8003536:	4d36      	ldr	r5, [pc, #216]	; (8003610 <main+0x358>)
		dtmf_column[column] = (int)(((float)column_freq[column])/bin_size + 0.5); // round to nearest integer
 8003538:	f8df 90ec 	ldr.w	r9, [pc, #236]	; 8003628 <main+0x370>
	for (int column = 0; column < 4; column++)
 800353c:	2400      	movs	r4, #0
		dtmf_column[column] = (int)(((float)column_freq[column])/bin_size + 0.5); // round to nearest integer
 800353e:	f04f 0800 	mov.w	r8, #0
 8003542:	ecf6 7a01 	vldmia	r6!, {s15}
 8003546:	eef8 7ae7 	vcvt.f32.s32	s15, s15
	for (int column = 0; column < 4; column++)
 800354a:	3401      	adds	r4, #1
		dtmf_column[column] = (int)(((float)column_freq[column])/bin_size + 0.5); // round to nearest integer
 800354c:	eec7 7a88 	vdiv.f32	s15, s15, s16
 8003550:	ee17 0a90 	vmov	r0, s15
 8003554:	f7fc fff0 	bl	8000538 <__aeabi_f2d>
 8003558:	4642      	mov	r2, r8
 800355a:	464b      	mov	r3, r9
 800355c:	f7fc fe8e 	bl	800027c <__adddf3>
 8003560:	f7fd faf2 	bl	8000b48 <__aeabi_d2iz>
	for (int column = 0; column < 4; column++)
 8003564:	2c04      	cmp	r4, #4
		dtmf_column[column] = (int)(((float)column_freq[column])/bin_size + 0.5); // round to nearest integer
 8003566:	f845 0b04 	str.w	r0, [r5], #4
	for (int column = 0; column < 4; column++)
 800356a:	d1ea      	bne.n	8003542 <main+0x28a>
	sample_index = 0;
 800356c:	4b29      	ldr	r3, [pc, #164]	; (8003614 <main+0x35c>)
	  audioToSend = select_buffer_to_transmit(buffer_to_send); //me devuelve el puntero al buffer listo para enviar
 800356e:	f8df 80bc 	ldr.w	r8, [pc, #188]	; 800362c <main+0x374>
		if(transferComplete && (flag == data_ready_to_send)){
 8003572:	4c29      	ldr	r4, [pc, #164]	; (8003618 <main+0x360>)
	sample_index = 0;
 8003574:	2200      	movs	r2, #0
 8003576:	601a      	str	r2, [r3, #0]
		if(transferComplete && (flag == data_ready_to_send)){
 8003578:	4d28      	ldr	r5, [pc, #160]	; (800361c <main+0x364>)
	  audioToSend = select_buffer_to_transmit(buffer_to_send); //me devuelve el puntero al buffer listo para enviar
 800357a:	f898 0000 	ldrb.w	r0, [r8]
 800357e:	f7ff fd27 	bl	8002fd0 <select_buffer_to_transmit>
		if(transferComplete && (flag == data_ready_to_send)){
 8003582:	782b      	ldrb	r3, [r5, #0]
	  audioToSend = select_buffer_to_transmit(buffer_to_send); //me devuelve el puntero al buffer listo para enviar
 8003584:	6038      	str	r0, [r7, #0]
		if(transferComplete && (flag == data_ready_to_send)){
 8003586:	b13b      	cbz	r3, 8003598 <main+0x2e0>
 8003588:	7826      	ldrb	r6, [r4, #0]
 800358a:	b92e      	cbnz	r6, 8003598 <main+0x2e0>
			flag = idle;
 800358c:	2302      	movs	r3, #2
			CS43L22_AudioSend(audioToSend,AUDIO_BUFFER_SIZE); //Envio el buffer por I2S al codec
 800358e:	21b4      	movs	r1, #180	; 0xb4
			flag = idle;
 8003590:	7023      	strb	r3, [r4, #0]
			CS43L22_AudioSend(audioToSend,AUDIO_BUFFER_SIZE); //Envio el buffer por I2S al codec
 8003592:	f7ff fc25 	bl	8002de0 <CS43L22_AudioSend>
			transferComplete = FALSE;
 8003596:	702e      	strb	r6, [r5, #0]
		if(adc_done){
 8003598:	4b21      	ldr	r3, [pc, #132]	; (8003620 <main+0x368>)
 800359a:	781a      	ldrb	r2, [r3, #0]
 800359c:	2a00      	cmp	r2, #0
 800359e:	d0ec      	beq.n	800357a <main+0x2c2>
			adc_done = 0;
 80035a0:	2200      	movs	r2, #0
 80035a2:	701a      	strb	r2, [r3, #0]
			fill_buffers();
 80035a4:	f7ff fe6a 	bl	800327c <fill_buffers>
 80035a8:	e7e6      	b.n	8003578 <main+0x2c0>
 80035aa:	bf00      	nop
 80035ac:	f3af 8000 	nop.w
 80035b0:	54442d18 	.word	0x54442d18
 80035b4:	401921fb 	.word	0x401921fb
 80035b8:	40023800 	.word	0x40023800
 80035bc:	40020000 	.word	0x40020000
 80035c0:	200003e4 	.word	0x200003e4
 80035c4:	00000000 	.word	0x00000000
 80035c8:	40020c00 	.word	0x40020c00
 80035cc:	2000042c 	.word	0x2000042c
 80035d0:	40005400 	.word	0x40005400
 80035d4:	000186a0 	.word	0x000186a0
 80035d8:	20000480 	.word	0x20000480
 80035dc:	40003c00 	.word	0x40003c00
 80035e0:	40012000 	.word	0x40012000
 80035e4:	200004c8 	.word	0x200004c8
 80035e8:	200003b4 	.word	0x200003b4
 80035ec:	2000024a 	.word	0x2000024a
 80035f0:	200003b8 	.word	0x200003b8
 80035f4:	200000e2 	.word	0x200000e2
 80035f8:	20003514 	.word	0x20003514
 80035fc:	20000514 	.word	0x20000514
 8003600:	20000008 	.word	0x20000008
 8003604:	20000038 	.word	0x20000038
 8003608:	200003d4 	.word	0x200003d4
 800360c:	20000010 	.word	0x20000010
 8003610:	200003c4 	.word	0x200003c4
 8003614:	20000510 	.word	0x20000510
 8003618:	20000024 	.word	0x20000024
 800361c:	2000004c 	.word	0x2000004c
 8003620:	200000e0 	.word	0x200000e0
 8003624:	3f500000 	.word	0x3f500000
 8003628:	3fe00000 	.word	0x3fe00000
 800362c:	2000000c 	.word	0x2000000c

08003630 <CS43L22_EXTERNAL_DAC_I2S_transmit>:

void CS43L22_EXTERNAL_DAC_I2S_transmit(uint16_t *buffer,uint16_t buffer_size){
 8003630:	460a      	mov	r2, r1

	HAL_I2S_Transmit_IT(&hi2s3,buffer,buffer_size);
 8003632:	4601      	mov	r1, r0
 8003634:	4801      	ldr	r0, [pc, #4]	; (800363c <CS43L22_EXTERNAL_DAC_I2S_transmit+0xc>)
 8003636:	f7fe bce9 	b.w	800200c <HAL_I2S_Transmit_IT>
 800363a:	bf00      	nop
 800363c:	20000480 	.word	0x20000480

08003640 <CS43L22_EXTERNAL_DAC_I2C_write>:

}


void CS43L22_EXTERNAL_DAC_I2C_write(uint8_t *iData, uint8_t len)
{ //maneja el periferico i2c para comunicaicon con el dac
 8003640:	b507      	push	{r0, r1, r2, lr}
 8003642:	460b      	mov	r3, r1

	HAL_I2C_Master_Transmit(&hi2c1, CS43L22_ADDRESS, iData, len, 100);
 8003644:	2164      	movs	r1, #100	; 0x64
{ //maneja el periferico i2c para comunicaicon con el dac
 8003646:	4602      	mov	r2, r0
	HAL_I2C_Master_Transmit(&hi2c1, CS43L22_ADDRESS, iData, len, 100);
 8003648:	9100      	str	r1, [sp, #0]
 800364a:	4803      	ldr	r0, [pc, #12]	; (8003658 <CS43L22_EXTERNAL_DAC_I2C_write+0x18>)
 800364c:	2194      	movs	r1, #148	; 0x94
 800364e:	f7fe fa01 	bl	8001a54 <HAL_I2C_Master_Transmit>

}
 8003652:	b003      	add	sp, #12
 8003654:	f85d fb04 	ldr.w	pc, [sp], #4
 8003658:	2000042c 	.word	0x2000042c

0800365c <CS43L22_EXTERNAL_DAC_I2C_recieve>:

void CS43L22_EXTERNAL_DAC_I2C_recieve(uint8_t *iData){
 800365c:	b507      	push	{r0, r1, r2, lr}

	HAL_I2C_Master_Receive(&hi2c1, CS43L22_ADDRESS, iData, 1, 100);
 800365e:	2364      	movs	r3, #100	; 0x64
void CS43L22_EXTERNAL_DAC_I2C_recieve(uint8_t *iData){
 8003660:	4602      	mov	r2, r0
	HAL_I2C_Master_Receive(&hi2c1, CS43L22_ADDRESS, iData, 1, 100);
 8003662:	9300      	str	r3, [sp, #0]
 8003664:	2194      	movs	r1, #148	; 0x94
 8003666:	2301      	movs	r3, #1
 8003668:	4802      	ldr	r0, [pc, #8]	; (8003674 <CS43L22_EXTERNAL_DAC_I2C_recieve+0x18>)
 800366a:	f7fe fac5 	bl	8001bf8 <HAL_I2C_Master_Receive>

}
 800366e:	b003      	add	sp, #12
 8003670:	f85d fb04 	ldr.w	pc, [sp], #4
 8003674:	2000042c 	.word	0x2000042c

08003678 <CS43L22_EXTERNAL_DAC_enable>:
void CS43L22_EXTERNAL_DAC_enable()
{
	//esta funcion se encarga de poner en alto o bajo el pin de reset del dac
	//recibe un 1 para poner el pin en alto y un 0 para ponerlo en bajo

	HAL_GPIO_WritePin(GPIOD, GPIO_PIN_4, GPIO_PIN_SET);
 8003678:	4802      	ldr	r0, [pc, #8]	; (8003684 <CS43L22_EXTERNAL_DAC_enable+0xc>)
 800367a:	2201      	movs	r2, #1
 800367c:	2110      	movs	r1, #16
 800367e:	f7fe b841 	b.w	8001704 <HAL_GPIO_WritePin>
 8003682:	bf00      	nop
 8003684:	40020c00 	.word	0x40020c00

08003688 <__io_putchar>:
  \param [in]     ch  Character to transmit.
  \returns            Character to transmit.
 */
__STATIC_INLINE uint32_t ITM_SendChar (uint32_t ch)
{
  if (((ITM->TCR & ITM_TCR_ITMENA_Msk) != 0UL) &&      /* ITM enabled */
 8003688:	f04f 4360 	mov.w	r3, #3758096384	; 0xe0000000
 800368c:	f8d3 2e80 	ldr.w	r2, [r3, #3712]	; 0xe80
 8003690:	07d1      	lsls	r1, r2, #31
 8003692:	d503      	bpl.n	800369c <__io_putchar+0x14>
      ((ITM->TER & 1UL               ) != 0UL)   )     /* ITM Port #0 enabled */
 8003694:	f8d3 2e00 	ldr.w	r2, [r3, #3584]	; 0xe00
  if (((ITM->TCR & ITM_TCR_ITMENA_Msk) != 0UL) &&      /* ITM enabled */
 8003698:	07d2      	lsls	r2, r2, #31
 800369a:	d402      	bmi.n	80036a2 <__io_putchar+0x1a>

int __io_putchar(int ch)
{
	ITM_SendChar(ch);
	return 0;
}
 800369c:	2000      	movs	r0, #0
 800369e:	4770      	bx	lr
  {
    while (ITM->PORT[0U].u32 == 0UL)
    {
      __NOP();
 80036a0:	bf00      	nop
    while (ITM->PORT[0U].u32 == 0UL)
 80036a2:	681a      	ldr	r2, [r3, #0]
 80036a4:	2a00      	cmp	r2, #0
 80036a6:	d0fb      	beq.n	80036a0 <__io_putchar+0x18>
    }
    ITM->PORT[0U].u8 = (uint8_t)ch;
 80036a8:	b2c0      	uxtb	r0, r0
 80036aa:	7018      	strb	r0, [r3, #0]
 80036ac:	e7f6      	b.n	800369c <__io_putchar+0x14>
	...

080036b0 <HAL_MspInit>:
/* USER CODE END 0 */
/**
  * Initializes the Global MSP.
  */
void HAL_MspInit(void)
{
 80036b0:	b082      	sub	sp, #8
  /* USER CODE BEGIN MspInit 0 */

  /* USER CODE END MspInit 0 */

  __HAL_RCC_SYSCFG_CLK_ENABLE();
 80036b2:	4b0c      	ldr	r3, [pc, #48]	; (80036e4 <HAL_MspInit+0x34>)
 80036b4:	2100      	movs	r1, #0
 80036b6:	9100      	str	r1, [sp, #0]
 80036b8:	6c5a      	ldr	r2, [r3, #68]	; 0x44
 80036ba:	f442 4280 	orr.w	r2, r2, #16384	; 0x4000
 80036be:	645a      	str	r2, [r3, #68]	; 0x44
 80036c0:	6c5a      	ldr	r2, [r3, #68]	; 0x44
 80036c2:	f402 4280 	and.w	r2, r2, #16384	; 0x4000
 80036c6:	9200      	str	r2, [sp, #0]
 80036c8:	9a00      	ldr	r2, [sp, #0]
  __HAL_RCC_PWR_CLK_ENABLE();
 80036ca:	9101      	str	r1, [sp, #4]
 80036cc:	6c1a      	ldr	r2, [r3, #64]	; 0x40
 80036ce:	f042 5280 	orr.w	r2, r2, #268435456	; 0x10000000
 80036d2:	641a      	str	r2, [r3, #64]	; 0x40
 80036d4:	6c1b      	ldr	r3, [r3, #64]	; 0x40
 80036d6:	f003 5380 	and.w	r3, r3, #268435456	; 0x10000000
 80036da:	9301      	str	r3, [sp, #4]
 80036dc:	9b01      	ldr	r3, [sp, #4]
  /* System interrupt init*/

  /* USER CODE BEGIN MspInit 1 */

  /* USER CODE END MspInit 1 */
}
 80036de:	b002      	add	sp, #8
 80036e0:	4770      	bx	lr
 80036e2:	bf00      	nop
 80036e4:	40023800 	.word	0x40023800

080036e8 <HAL_ADC_MspInit>:
* This function configures the hardware resources used in this example
* @param hadc: ADC handle pointer
* @retval None
*/
void HAL_ADC_MspInit(ADC_HandleTypeDef* hadc)
{
 80036e8:	b510      	push	{r4, lr}
 80036ea:	4604      	mov	r4, r0
 80036ec:	b088      	sub	sp, #32
  GPIO_InitTypeDef GPIO_InitStruct = {0};
 80036ee:	2214      	movs	r2, #20
 80036f0:	2100      	movs	r1, #0
 80036f2:	a803      	add	r0, sp, #12
 80036f4:	f000 fb6c 	bl	8003dd0 <memset>
  if(hadc->Instance==ADC1)
 80036f8:	6822      	ldr	r2, [r4, #0]
 80036fa:	4b16      	ldr	r3, [pc, #88]	; (8003754 <HAL_ADC_MspInit+0x6c>)
 80036fc:	429a      	cmp	r2, r3
 80036fe:	d126      	bne.n	800374e <HAL_ADC_MspInit+0x66>
  {
  /* USER CODE BEGIN ADC1_MspInit 0 */

  /* USER CODE END ADC1_MspInit 0 */
    /* Peripheral clock enable */
    __HAL_RCC_ADC1_CLK_ENABLE();
 8003700:	f503 338c 	add.w	r3, r3, #71680	; 0x11800
 8003704:	2400      	movs	r4, #0
 8003706:	9401      	str	r4, [sp, #4]
 8003708:	6c5a      	ldr	r2, [r3, #68]	; 0x44
    PA1     ------> ADC1_IN1 
    */
    GPIO_InitStruct.Pin = Audio_Input_Pin;
    GPIO_InitStruct.Mode = GPIO_MODE_ANALOG;
    GPIO_InitStruct.Pull = GPIO_NOPULL;
    HAL_GPIO_Init(Audio_Input_GPIO_Port, &GPIO_InitStruct);
 800370a:	4813      	ldr	r0, [pc, #76]	; (8003758 <HAL_ADC_MspInit+0x70>)
    __HAL_RCC_ADC1_CLK_ENABLE();
 800370c:	f442 7280 	orr.w	r2, r2, #256	; 0x100
 8003710:	645a      	str	r2, [r3, #68]	; 0x44
 8003712:	6c5a      	ldr	r2, [r3, #68]	; 0x44
 8003714:	f402 7280 	and.w	r2, r2, #256	; 0x100
 8003718:	9201      	str	r2, [sp, #4]
 800371a:	9a01      	ldr	r2, [sp, #4]
    __HAL_RCC_GPIOA_CLK_ENABLE();
 800371c:	9402      	str	r4, [sp, #8]
 800371e:	6b1a      	ldr	r2, [r3, #48]	; 0x30
 8003720:	f042 0201 	orr.w	r2, r2, #1
 8003724:	631a      	str	r2, [r3, #48]	; 0x30
 8003726:	6b1b      	ldr	r3, [r3, #48]	; 0x30
 8003728:	f003 0301 	and.w	r3, r3, #1
 800372c:	9302      	str	r3, [sp, #8]
    GPIO_InitStruct.Mode = GPIO_MODE_ANALOG;
 800372e:	2202      	movs	r2, #2
    __HAL_RCC_GPIOA_CLK_ENABLE();
 8003730:	9b02      	ldr	r3, [sp, #8]
    HAL_GPIO_Init(Audio_Input_GPIO_Port, &GPIO_InitStruct);
 8003732:	a903      	add	r1, sp, #12
    GPIO_InitStruct.Mode = GPIO_MODE_ANALOG;
 8003734:	2303      	movs	r3, #3
 8003736:	e9cd 2303 	strd	r2, r3, [sp, #12]
    HAL_GPIO_Init(Audio_Input_GPIO_Port, &GPIO_InitStruct);
 800373a:	f7fd fefd 	bl	8001538 <HAL_GPIO_Init>

    /* ADC1 interrupt Init */
    HAL_NVIC_SetPriority(ADC_IRQn, 0, 0);
 800373e:	2012      	movs	r0, #18
 8003740:	4622      	mov	r2, r4
 8003742:	4621      	mov	r1, r4
 8003744:	f7fd fea4 	bl	8001490 <HAL_NVIC_SetPriority>
    HAL_NVIC_EnableIRQ(ADC_IRQn);
 8003748:	2012      	movs	r0, #18
 800374a:	f7fd fed3 	bl	80014f4 <HAL_NVIC_EnableIRQ>
  /* USER CODE BEGIN ADC1_MspInit 1 */

  /* USER CODE END ADC1_MspInit 1 */
  }

}
 800374e:	b008      	add	sp, #32
 8003750:	bd10      	pop	{r4, pc}
 8003752:	bf00      	nop
 8003754:	40012000 	.word	0x40012000
 8003758:	40020000 	.word	0x40020000

0800375c <HAL_I2C_MspInit>:
* This function configures the hardware resources used in this example
* @param hi2c: I2C handle pointer
* @retval None
*/
void HAL_I2C_MspInit(I2C_HandleTypeDef* hi2c)
{
 800375c:	b530      	push	{r4, r5, lr}
 800375e:	4604      	mov	r4, r0
 8003760:	b089      	sub	sp, #36	; 0x24
  GPIO_InitTypeDef GPIO_InitStruct = {0};
 8003762:	2214      	movs	r2, #20
 8003764:	2100      	movs	r1, #0
 8003766:	a803      	add	r0, sp, #12
 8003768:	f000 fb32 	bl	8003dd0 <memset>
  if(hi2c->Instance==I2C1)
 800376c:	6822      	ldr	r2, [r4, #0]
 800376e:	4b14      	ldr	r3, [pc, #80]	; (80037c0 <HAL_I2C_MspInit+0x64>)
 8003770:	429a      	cmp	r2, r3
 8003772:	d122      	bne.n	80037ba <HAL_I2C_MspInit+0x5e>
  {
  /* USER CODE BEGIN I2C1_MspInit 0 */

  /* USER CODE END I2C1_MspInit 0 */
  
    __HAL_RCC_GPIOB_CLK_ENABLE();
 8003774:	4c13      	ldr	r4, [pc, #76]	; (80037c4 <HAL_I2C_MspInit+0x68>)
    GPIO_InitStruct.Pin = Audio_SCL_Pin|Audio_SDA_Pin;
    GPIO_InitStruct.Mode = GPIO_MODE_AF_OD;
    GPIO_InitStruct.Pull = GPIO_PULLUP;
    GPIO_InitStruct.Speed = GPIO_SPEED_FREQ_LOW;
    GPIO_InitStruct.Alternate = GPIO_AF4_I2C1;
    HAL_GPIO_Init(GPIOB, &GPIO_InitStruct);
 8003776:	4814      	ldr	r0, [pc, #80]	; (80037c8 <HAL_I2C_MspInit+0x6c>)
    __HAL_RCC_GPIOB_CLK_ENABLE();
 8003778:	2500      	movs	r5, #0
 800377a:	9501      	str	r5, [sp, #4]
 800377c:	6b23      	ldr	r3, [r4, #48]	; 0x30
 800377e:	f043 0302 	orr.w	r3, r3, #2
 8003782:	6323      	str	r3, [r4, #48]	; 0x30
 8003784:	6b23      	ldr	r3, [r4, #48]	; 0x30
 8003786:	f003 0302 	and.w	r3, r3, #2
 800378a:	9301      	str	r3, [sp, #4]
 800378c:	9b01      	ldr	r3, [sp, #4]
    GPIO_InitStruct.Mode = GPIO_MODE_AF_OD;
 800378e:	f44f 7210 	mov.w	r2, #576	; 0x240
 8003792:	2312      	movs	r3, #18
 8003794:	e9cd 2303 	strd	r2, r3, [sp, #12]
    GPIO_InitStruct.Pull = GPIO_PULLUP;
 8003798:	2301      	movs	r3, #1
 800379a:	9305      	str	r3, [sp, #20]
    HAL_GPIO_Init(GPIOB, &GPIO_InitStruct);
 800379c:	a903      	add	r1, sp, #12
    GPIO_InitStruct.Alternate = GPIO_AF4_I2C1;
 800379e:	2304      	movs	r3, #4
 80037a0:	9307      	str	r3, [sp, #28]
    HAL_GPIO_Init(GPIOB, &GPIO_InitStruct);
 80037a2:	f7fd fec9 	bl	8001538 <HAL_GPIO_Init>

    /* Peripheral clock enable */
    __HAL_RCC_I2C1_CLK_ENABLE();
 80037a6:	9502      	str	r5, [sp, #8]
 80037a8:	6c23      	ldr	r3, [r4, #64]	; 0x40
 80037aa:	f443 1300 	orr.w	r3, r3, #2097152	; 0x200000
 80037ae:	6423      	str	r3, [r4, #64]	; 0x40
 80037b0:	6c23      	ldr	r3, [r4, #64]	; 0x40
 80037b2:	f403 1300 	and.w	r3, r3, #2097152	; 0x200000
 80037b6:	9302      	str	r3, [sp, #8]
 80037b8:	9b02      	ldr	r3, [sp, #8]
  /* USER CODE BEGIN I2C1_MspInit 1 */

  /* USER CODE END I2C1_MspInit 1 */
  }

}
 80037ba:	b009      	add	sp, #36	; 0x24
 80037bc:	bd30      	pop	{r4, r5, pc}
 80037be:	bf00      	nop
 80037c0:	40005400 	.word	0x40005400
 80037c4:	40023800 	.word	0x40023800
 80037c8:	40020400 	.word	0x40020400

080037cc <HAL_I2S_MspInit>:
* This function configures the hardware resources used in this example
* @param hi2s: I2S handle pointer
* @retval None
*/
void HAL_I2S_MspInit(I2S_HandleTypeDef* hi2s)
{
 80037cc:	b5f0      	push	{r4, r5, r6, r7, lr}
 80037ce:	4604      	mov	r4, r0
 80037d0:	b089      	sub	sp, #36	; 0x24
  GPIO_InitTypeDef GPIO_InitStruct = {0};
 80037d2:	2214      	movs	r2, #20
 80037d4:	2100      	movs	r1, #0
 80037d6:	a803      	add	r0, sp, #12
 80037d8:	f000 fafa 	bl	8003dd0 <memset>
  if(hi2s->Instance==SPI3)
 80037dc:	6822      	ldr	r2, [r4, #0]
 80037de:	4b22      	ldr	r3, [pc, #136]	; (8003868 <HAL_I2S_MspInit+0x9c>)
 80037e0:	429a      	cmp	r2, r3
 80037e2:	d13f      	bne.n	8003864 <HAL_I2S_MspInit+0x98>
  {
  /* USER CODE BEGIN SPI3_MspInit 0 */

  /* USER CODE END SPI3_MspInit 0 */
    /* Peripheral clock enable */
    __HAL_RCC_SPI3_CLK_ENABLE();
 80037e4:	f503 33fe 	add.w	r3, r3, #130048	; 0x1fc00
 80037e8:	2400      	movs	r4, #0
 80037ea:	9400      	str	r4, [sp, #0]
 80037ec:	6c1a      	ldr	r2, [r3, #64]	; 0x40
    GPIO_InitStruct.Pin = I2S3_WS_Pin;
    GPIO_InitStruct.Mode = GPIO_MODE_AF_PP;
    GPIO_InitStruct.Pull = GPIO_NOPULL;
    GPIO_InitStruct.Speed = GPIO_SPEED_FREQ_MEDIUM;
    GPIO_InitStruct.Alternate = GPIO_AF6_SPI3;
    HAL_GPIO_Init(I2S3_WS_GPIO_Port, &GPIO_InitStruct);
 80037ee:	481f      	ldr	r0, [pc, #124]	; (800386c <HAL_I2S_MspInit+0xa0>)
    __HAL_RCC_SPI3_CLK_ENABLE();
 80037f0:	f442 4200 	orr.w	r2, r2, #32768	; 0x8000
 80037f4:	641a      	str	r2, [r3, #64]	; 0x40
 80037f6:	6c1a      	ldr	r2, [r3, #64]	; 0x40
 80037f8:	f402 4200 	and.w	r2, r2, #32768	; 0x8000
 80037fc:	9200      	str	r2, [sp, #0]
 80037fe:	9a00      	ldr	r2, [sp, #0]
    __HAL_RCC_GPIOA_CLK_ENABLE();
 8003800:	9401      	str	r4, [sp, #4]
 8003802:	6b1a      	ldr	r2, [r3, #48]	; 0x30
 8003804:	f042 0201 	orr.w	r2, r2, #1
 8003808:	631a      	str	r2, [r3, #48]	; 0x30
 800380a:	6b1a      	ldr	r2, [r3, #48]	; 0x30
 800380c:	f002 0201 	and.w	r2, r2, #1
 8003810:	9201      	str	r2, [sp, #4]
 8003812:	9a01      	ldr	r2, [sp, #4]
    __HAL_RCC_GPIOC_CLK_ENABLE();
 8003814:	9402      	str	r4, [sp, #8]
 8003816:	6b1a      	ldr	r2, [r3, #48]	; 0x30
 8003818:	f042 0204 	orr.w	r2, r2, #4
 800381c:	631a      	str	r2, [r3, #48]	; 0x30
 800381e:	6b1b      	ldr	r3, [r3, #48]	; 0x30
 8003820:	f003 0304 	and.w	r3, r3, #4
 8003824:	9302      	str	r3, [sp, #8]
 8003826:	9b02      	ldr	r3, [sp, #8]
    GPIO_InitStruct.Mode = GPIO_MODE_AF_PP;
 8003828:	2702      	movs	r7, #2
 800382a:	2310      	movs	r3, #16
    GPIO_InitStruct.Alternate = GPIO_AF6_SPI3;
 800382c:	2601      	movs	r6, #1
 800382e:	2506      	movs	r5, #6
    HAL_GPIO_Init(I2S3_WS_GPIO_Port, &GPIO_InitStruct);
 8003830:	a903      	add	r1, sp, #12
    GPIO_InitStruct.Mode = GPIO_MODE_AF_PP;
 8003832:	e9cd 3703 	strd	r3, r7, [sp, #12]
    GPIO_InitStruct.Alternate = GPIO_AF6_SPI3;
 8003836:	e9cd 6506 	strd	r6, r5, [sp, #24]
    HAL_GPIO_Init(I2S3_WS_GPIO_Port, &GPIO_InitStruct);
 800383a:	f7fd fe7d 	bl	8001538 <HAL_GPIO_Init>

    GPIO_InitStruct.Pin = I2S3_MCK_Pin|I2S3_SCK_Pin|I2S3_SD_Pin;
 800383e:	f44f 53a4 	mov.w	r3, #5248	; 0x1480
    GPIO_InitStruct.Mode = GPIO_MODE_AF_PP;
    GPIO_InitStruct.Pull = GPIO_NOPULL;
    GPIO_InitStruct.Speed = GPIO_SPEED_FREQ_MEDIUM;
    GPIO_InitStruct.Alternate = GPIO_AF6_SPI3;
    HAL_GPIO_Init(GPIOC, &GPIO_InitStruct);
 8003842:	480b      	ldr	r0, [pc, #44]	; (8003870 <HAL_I2S_MspInit+0xa4>)
    GPIO_InitStruct.Alternate = GPIO_AF6_SPI3;
 8003844:	9507      	str	r5, [sp, #28]
    HAL_GPIO_Init(GPIOC, &GPIO_InitStruct);
 8003846:	a903      	add	r1, sp, #12
    GPIO_InitStruct.Mode = GPIO_MODE_AF_PP;
 8003848:	e9cd 3703 	strd	r3, r7, [sp, #12]
    GPIO_InitStruct.Speed = GPIO_SPEED_FREQ_MEDIUM;
 800384c:	e9cd 4605 	strd	r4, r6, [sp, #20]
    HAL_GPIO_Init(GPIOC, &GPIO_InitStruct);
 8003850:	f7fd fe72 	bl	8001538 <HAL_GPIO_Init>

    /* I2S3 interrupt Init */
    HAL_NVIC_SetPriority(SPI3_IRQn, 0, 0);
 8003854:	2033      	movs	r0, #51	; 0x33
 8003856:	4622      	mov	r2, r4
 8003858:	4621      	mov	r1, r4
 800385a:	f7fd fe19 	bl	8001490 <HAL_NVIC_SetPriority>
    HAL_NVIC_EnableIRQ(SPI3_IRQn);
 800385e:	2033      	movs	r0, #51	; 0x33
 8003860:	f7fd fe48 	bl	80014f4 <HAL_NVIC_EnableIRQ>
  /* USER CODE BEGIN SPI3_MspInit 1 */

  /* USER CODE END SPI3_MspInit 1 */
  }

}
 8003864:	b009      	add	sp, #36	; 0x24
 8003866:	bdf0      	pop	{r4, r5, r6, r7, pc}
 8003868:	40003c00 	.word	0x40003c00
 800386c:	40020000 	.word	0x40020000
 8003870:	40020800 	.word	0x40020800

08003874 <HAL_TIM_Base_MspInit>:
* @param htim_base: TIM_Base handle pointer
* @retval None
*/
void HAL_TIM_Base_MspInit(TIM_HandleTypeDef* htim_base)
{
  if(htim_base->Instance==TIM2)
 8003874:	6803      	ldr	r3, [r0, #0]
 8003876:	f1b3 4f80 	cmp.w	r3, #1073741824	; 0x40000000
{
 800387a:	b082      	sub	sp, #8
  if(htim_base->Instance==TIM2)
 800387c:	d10b      	bne.n	8003896 <HAL_TIM_Base_MspInit+0x22>
  {
  /* USER CODE BEGIN TIM2_MspInit 0 */

  /* USER CODE END TIM2_MspInit 0 */
    /* Peripheral clock enable */
    __HAL_RCC_TIM2_CLK_ENABLE();
 800387e:	2300      	movs	r3, #0
 8003880:	9301      	str	r3, [sp, #4]
 8003882:	4b06      	ldr	r3, [pc, #24]	; (800389c <HAL_TIM_Base_MspInit+0x28>)
 8003884:	6c1a      	ldr	r2, [r3, #64]	; 0x40
 8003886:	f042 0201 	orr.w	r2, r2, #1
 800388a:	641a      	str	r2, [r3, #64]	; 0x40
 800388c:	6c1b      	ldr	r3, [r3, #64]	; 0x40
 800388e:	f003 0301 	and.w	r3, r3, #1
 8003892:	9301      	str	r3, [sp, #4]
 8003894:	9b01      	ldr	r3, [sp, #4]
  /* USER CODE BEGIN TIM2_MspInit 1 */

  /* USER CODE END TIM2_MspInit 1 */
  }

}
 8003896:	b002      	add	sp, #8
 8003898:	4770      	bx	lr
 800389a:	bf00      	nop
 800389c:	40023800 	.word	0x40023800

080038a0 <SVC_Handler>:

  /* USER CODE END SVCall_IRQn 0 */
  /* USER CODE BEGIN SVCall_IRQn 1 */

  /* USER CODE END SVCall_IRQn 1 */
}
 80038a0:	4770      	bx	lr

080038a2 <PendSV_Handler>:
 80038a2:	4770      	bx	lr

080038a4 <SysTick_Handler>:
void SysTick_Handler(void)
{
  /* USER CODE BEGIN SysTick_IRQn 0 */

  /* USER CODE END SysTick_IRQn 0 */
  HAL_IncTick();
 80038a4:	f7fd bb84 	b.w	8000fb0 <HAL_IncTick>

080038a8 <ADC_IRQHandler>:
void ADC_IRQHandler(void)
{
  /* USER CODE BEGIN ADC_IRQn 0 */

  /* USER CODE END ADC_IRQn 0 */
  HAL_ADC_IRQHandler(&hadc1);
 80038a8:	4801      	ldr	r0, [pc, #4]	; (80038b0 <ADC_IRQHandler+0x8>)
 80038aa:	f7fd bcb8 	b.w	800121e <HAL_ADC_IRQHandler>
 80038ae:	bf00      	nop
 80038b0:	200003e4 	.word	0x200003e4

080038b4 <SPI3_IRQHandler>:
void SPI3_IRQHandler(void)
{
  /* USER CODE BEGIN SPI3_IRQn 0 */

  /* USER CODE END SPI3_IRQn 0 */
  HAL_I2S_IRQHandler(&hi2s3);
 80038b4:	4801      	ldr	r0, [pc, #4]	; (80038bc <SPI3_IRQHandler+0x8>)
 80038b6:	f7fe bbe2 	b.w	800207e <HAL_I2S_IRQHandler>
 80038ba:	bf00      	nop
 80038bc:	20000480 	.word	0x20000480

080038c0 <_read>:
	_kill(status, -1);
	while (1) {}		/* Make sure we hang here */
}

__attribute__((weak)) int _read(int file, char *ptr, int len)
{
 80038c0:	b570      	push	{r4, r5, r6, lr}
 80038c2:	460d      	mov	r5, r1
 80038c4:	4614      	mov	r4, r2
	int DataIdx;

	for (DataIdx = 0; DataIdx < len; DataIdx++)
 80038c6:	460e      	mov	r6, r1
 80038c8:	1b73      	subs	r3, r6, r5
 80038ca:	429c      	cmp	r4, r3
 80038cc:	dc01      	bgt.n	80038d2 <_read+0x12>
	{
		*ptr++ = __io_getchar();
	}

return len;
}
 80038ce:	4620      	mov	r0, r4
 80038d0:	bd70      	pop	{r4, r5, r6, pc}
		*ptr++ = __io_getchar();
 80038d2:	f3af 8000 	nop.w
 80038d6:	f806 0b01 	strb.w	r0, [r6], #1
	for (DataIdx = 0; DataIdx < len; DataIdx++)
 80038da:	e7f5      	b.n	80038c8 <_read+0x8>

080038dc <_write>:

__attribute__((weak)) int _write(int file, char *ptr, int len)
{
 80038dc:	b570      	push	{r4, r5, r6, lr}
 80038de:	460d      	mov	r5, r1
 80038e0:	4614      	mov	r4, r2
	int DataIdx;

	for (DataIdx = 0; DataIdx < len; DataIdx++)
 80038e2:	460e      	mov	r6, r1
 80038e4:	1b73      	subs	r3, r6, r5
 80038e6:	429c      	cmp	r4, r3
 80038e8:	dc01      	bgt.n	80038ee <_write+0x12>
	{
		__io_putchar(*ptr++);
	}
	return len;
}
 80038ea:	4620      	mov	r0, r4
 80038ec:	bd70      	pop	{r4, r5, r6, pc}
		__io_putchar(*ptr++);
 80038ee:	f816 0b01 	ldrb.w	r0, [r6], #1
 80038f2:	f7ff fec9 	bl	8003688 <__io_putchar>
	for (DataIdx = 0; DataIdx < len; DataIdx++)
 80038f6:	e7f5      	b.n	80038e4 <_write+0x8>

080038f8 <_sbrk>:
{
	extern char end asm("end");
	static char *heap_end;
	char *prev_heap_end;

	if (heap_end == 0)
 80038f8:	4a0a      	ldr	r2, [pc, #40]	; (8003924 <_sbrk+0x2c>)
 80038fa:	6811      	ldr	r1, [r2, #0]
{
 80038fc:	b508      	push	{r3, lr}
 80038fe:	4603      	mov	r3, r0
	if (heap_end == 0)
 8003900:	b909      	cbnz	r1, 8003906 <_sbrk+0xe>
		heap_end = &end;
 8003902:	4909      	ldr	r1, [pc, #36]	; (8003928 <_sbrk+0x30>)
 8003904:	6011      	str	r1, [r2, #0]

	prev_heap_end = heap_end;
 8003906:	6810      	ldr	r0, [r2, #0]
	if (heap_end + incr > stack_ptr)
 8003908:	4669      	mov	r1, sp
 800390a:	4403      	add	r3, r0
 800390c:	428b      	cmp	r3, r1
 800390e:	d906      	bls.n	800391e <_sbrk+0x26>
	{
//		write(1, "Heap and stack collision\n", 25);
//		abort();
		errno = ENOMEM;
 8003910:	f000 faac 	bl	8003e6c <__errno>
 8003914:	230c      	movs	r3, #12
 8003916:	6003      	str	r3, [r0, #0]
		return (caddr_t) -1;
 8003918:	f04f 30ff 	mov.w	r0, #4294967295
	}

	heap_end += incr;

	return (caddr_t) prev_heap_end;
}
 800391c:	bd08      	pop	{r3, pc}
	heap_end += incr;
 800391e:	6013      	str	r3, [r2, #0]
	return (caddr_t) prev_heap_end;
 8003920:	e7fc      	b.n	800391c <_sbrk+0x24>
 8003922:	bf00      	nop
 8003924:	20005514 	.word	0x20005514
 8003928:	20005664 	.word	0x20005664

0800392c <_close>:

int _close(int file)
{
	return -1;
}
 800392c:	f04f 30ff 	mov.w	r0, #4294967295
 8003930:	4770      	bx	lr

08003932 <_fstat>:


int _fstat(int file, struct stat *st)
{
	st->st_mode = S_IFCHR;
 8003932:	f44f 5300 	mov.w	r3, #8192	; 0x2000
 8003936:	604b      	str	r3, [r1, #4]
	return 0;
}
 8003938:	2000      	movs	r0, #0
 800393a:	4770      	bx	lr

0800393c <_isatty>:

int _isatty(int file)
{
	return 1;
}
 800393c:	2001      	movs	r0, #1
 800393e:	4770      	bx	lr

08003940 <_lseek>:

int _lseek(int file, int ptr, int dir)
{
	return 0;
}
 8003940:	2000      	movs	r0, #0
 8003942:	4770      	bx	lr

08003944 <SystemInit>:
  */
void SystemInit(void)
{
  /* FPU settings ------------------------------------------------------------*/
  #if (__FPU_PRESENT == 1) && (__FPU_USED == 1)
    SCB->CPACR |= ((3UL << 10*2)|(3UL << 11*2));  /* set CP10 and CP11 Full Access */
 8003944:	490f      	ldr	r1, [pc, #60]	; (8003984 <SystemInit+0x40>)
 8003946:	f8d1 3088 	ldr.w	r3, [r1, #136]	; 0x88
 800394a:	f443 0370 	orr.w	r3, r3, #15728640	; 0xf00000
 800394e:	f8c1 3088 	str.w	r3, [r1, #136]	; 0x88
  #endif
  /* Reset the RCC clock configuration to the default reset state ------------*/
  /* Set HSION bit */
  RCC->CR |= (uint32_t)0x00000001;
 8003952:	4b0d      	ldr	r3, [pc, #52]	; (8003988 <SystemInit+0x44>)
 8003954:	681a      	ldr	r2, [r3, #0]

  /* Reset CFGR register */
  RCC->CFGR = 0x00000000;
 8003956:	2000      	movs	r0, #0
  RCC->CR |= (uint32_t)0x00000001;
 8003958:	f042 0201 	orr.w	r2, r2, #1
 800395c:	601a      	str	r2, [r3, #0]
  RCC->CFGR = 0x00000000;
 800395e:	6098      	str	r0, [r3, #8]

  /* Reset HSEON, CSSON and PLLON bits */
  RCC->CR &= (uint32_t)0xFEF6FFFF;
 8003960:	681a      	ldr	r2, [r3, #0]
 8003962:	f022 7284 	bic.w	r2, r2, #17301504	; 0x1080000
 8003966:	f422 3280 	bic.w	r2, r2, #65536	; 0x10000
 800396a:	601a      	str	r2, [r3, #0]

  /* Reset PLLCFGR register */
  RCC->PLLCFGR = 0x24003010;
 800396c:	4a07      	ldr	r2, [pc, #28]	; (800398c <SystemInit+0x48>)
 800396e:	605a      	str	r2, [r3, #4]

  /* Reset HSEBYP bit */
  RCC->CR &= (uint32_t)0xFFFBFFFF;
 8003970:	681a      	ldr	r2, [r3, #0]
 8003972:	f422 2280 	bic.w	r2, r2, #262144	; 0x40000
 8003976:	601a      	str	r2, [r3, #0]

  /* Disable all interrupts */
  RCC->CIR = 0x00000000;
 8003978:	60d8      	str	r0, [r3, #12]

  /* Configure the Vector Table location add offset address ------------------*/
#ifdef VECT_TAB_SRAM
  SCB->VTOR = SRAM_BASE | VECT_TAB_OFFSET; /* Vector Table Relocation in Internal SRAM */
#else
  SCB->VTOR = FLASH_BASE | VECT_TAB_OFFSET; /* Vector Table Relocation in Internal FLASH */
 800397a:	f04f 6300 	mov.w	r3, #134217728	; 0x8000000
 800397e:	608b      	str	r3, [r1, #8]
#endif
}
 8003980:	4770      	bx	lr
 8003982:	bf00      	nop
 8003984:	e000ed00 	.word	0xe000ed00
 8003988:	40023800 	.word	0x40023800
 800398c:	24003010 	.word	0x24003010

08003990 <Reset_Handler>:

    .section  .text.Reset_Handler
  .weak  Reset_Handler
  .type  Reset_Handler, %function
Reset_Handler:  
  ldr   sp, =_estack     /* set stack pointer */
 8003990:	f8df d034 	ldr.w	sp, [pc, #52]	; 80039c8 <LoopFillZerobss+0x14>

/* Copy the data segment initializers from flash to SRAM */  
  movs  r1, #0
 8003994:	2100      	movs	r1, #0
  b  LoopCopyDataInit
 8003996:	e003      	b.n	80039a0 <LoopCopyDataInit>

08003998 <CopyDataInit>:

CopyDataInit:
  ldr  r3, =_sidata
 8003998:	4b0c      	ldr	r3, [pc, #48]	; (80039cc <LoopFillZerobss+0x18>)
  ldr  r3, [r3, r1]
 800399a:	585b      	ldr	r3, [r3, r1]
  str  r3, [r0, r1]
 800399c:	5043      	str	r3, [r0, r1]
  adds  r1, r1, #4
 800399e:	3104      	adds	r1, #4

080039a0 <LoopCopyDataInit>:
    
LoopCopyDataInit:
  ldr  r0, =_sdata
 80039a0:	480b      	ldr	r0, [pc, #44]	; (80039d0 <LoopFillZerobss+0x1c>)
  ldr  r3, =_edata
 80039a2:	4b0c      	ldr	r3, [pc, #48]	; (80039d4 <LoopFillZerobss+0x20>)
  adds  r2, r0, r1
 80039a4:	1842      	adds	r2, r0, r1
  cmp  r2, r3
 80039a6:	429a      	cmp	r2, r3
  bcc  CopyDataInit
 80039a8:	d3f6      	bcc.n	8003998 <CopyDataInit>
  ldr  r2, =_sbss
 80039aa:	4a0b      	ldr	r2, [pc, #44]	; (80039d8 <LoopFillZerobss+0x24>)
  b  LoopFillZerobss
 80039ac:	e002      	b.n	80039b4 <LoopFillZerobss>

080039ae <FillZerobss>:
/* Zero fill the bss segment. */  
FillZerobss:
  movs  r3, #0
 80039ae:	2300      	movs	r3, #0
  str  r3, [r2], #4
 80039b0:	f842 3b04 	str.w	r3, [r2], #4

080039b4 <LoopFillZerobss>:
    
LoopFillZerobss:
  ldr  r3, = _ebss
 80039b4:	4b09      	ldr	r3, [pc, #36]	; (80039dc <LoopFillZerobss+0x28>)
  cmp  r2, r3
 80039b6:	429a      	cmp	r2, r3
  bcc  FillZerobss
 80039b8:	d3f9      	bcc.n	80039ae <FillZerobss>

/* Call the clock system intitialization function.*/
  bl  SystemInit   
 80039ba:	f7ff ffc3 	bl	8003944 <SystemInit>
/* Call static constructors */
    bl __libc_init_array
 80039be:	f000 fa5b 	bl	8003e78 <__libc_init_array>
/* Call the application's entry point.*/
  bl  main
 80039c2:	f7ff fc79 	bl	80032b8 <main>
  bx  lr    
 80039c6:	4770      	bx	lr
  ldr   sp, =_estack     /* set stack pointer */
 80039c8:	20020000 	.word	0x20020000
  ldr  r3, =_sidata
 80039cc:	08005e80 	.word	0x08005e80
  ldr  r0, =_sdata
 80039d0:	20000000 	.word	0x20000000
  ldr  r3, =_edata
 80039d4:	200000c0 	.word	0x200000c0
  ldr  r2, =_sbss
 80039d8:	200000c0 	.word	0x200000c0
  ldr  r3, = _ebss
 80039dc:	20005664 	.word	0x20005664

080039e0 <BusFault_Handler>:
 * @retval None       
*/
    .section  .text.Default_Handler,"ax",%progbits
Default_Handler:
Infinite_Loop:
  b  Infinite_Loop
 80039e0:	e7fe      	b.n	80039e0 <BusFault_Handler>
	...

080039e4 <std>:
 80039e4:	2300      	movs	r3, #0
 80039e6:	b510      	push	{r4, lr}
 80039e8:	4604      	mov	r4, r0
 80039ea:	e9c0 3300 	strd	r3, r3, [r0]
 80039ee:	e9c0 3304 	strd	r3, r3, [r0, #16]
 80039f2:	6083      	str	r3, [r0, #8]
 80039f4:	8181      	strh	r1, [r0, #12]
 80039f6:	6643      	str	r3, [r0, #100]	; 0x64
 80039f8:	81c2      	strh	r2, [r0, #14]
 80039fa:	6183      	str	r3, [r0, #24]
 80039fc:	4619      	mov	r1, r3
 80039fe:	2208      	movs	r2, #8
 8003a00:	305c      	adds	r0, #92	; 0x5c
 8003a02:	f000 f9e5 	bl	8003dd0 <memset>
 8003a06:	4b05      	ldr	r3, [pc, #20]	; (8003a1c <std+0x38>)
 8003a08:	6263      	str	r3, [r4, #36]	; 0x24
 8003a0a:	4b05      	ldr	r3, [pc, #20]	; (8003a20 <std+0x3c>)
 8003a0c:	62a3      	str	r3, [r4, #40]	; 0x28
 8003a0e:	4b05      	ldr	r3, [pc, #20]	; (8003a24 <std+0x40>)
 8003a10:	62e3      	str	r3, [r4, #44]	; 0x2c
 8003a12:	4b05      	ldr	r3, [pc, #20]	; (8003a28 <std+0x44>)
 8003a14:	6224      	str	r4, [r4, #32]
 8003a16:	6323      	str	r3, [r4, #48]	; 0x30
 8003a18:	bd10      	pop	{r4, pc}
 8003a1a:	bf00      	nop
 8003a1c:	08003c21 	.word	0x08003c21
 8003a20:	08003c43 	.word	0x08003c43
 8003a24:	08003c7b 	.word	0x08003c7b
 8003a28:	08003c9f 	.word	0x08003c9f

08003a2c <stdio_exit_handler>:
 8003a2c:	4a02      	ldr	r2, [pc, #8]	; (8003a38 <stdio_exit_handler+0xc>)
 8003a2e:	4903      	ldr	r1, [pc, #12]	; (8003a3c <stdio_exit_handler+0x10>)
 8003a30:	4803      	ldr	r0, [pc, #12]	; (8003a40 <stdio_exit_handler+0x14>)
 8003a32:	f000 b869 	b.w	8003b08 <_fwalk_sglue>
 8003a36:	bf00      	nop
 8003a38:	20000054 	.word	0x20000054
 8003a3c:	08004769 	.word	0x08004769
 8003a40:	20000060 	.word	0x20000060

08003a44 <cleanup_stdio>:
 8003a44:	6841      	ldr	r1, [r0, #4]
 8003a46:	4b0c      	ldr	r3, [pc, #48]	; (8003a78 <cleanup_stdio+0x34>)
 8003a48:	4299      	cmp	r1, r3
 8003a4a:	b510      	push	{r4, lr}
 8003a4c:	4604      	mov	r4, r0
 8003a4e:	d001      	beq.n	8003a54 <cleanup_stdio+0x10>
 8003a50:	f000 fe8a 	bl	8004768 <_fflush_r>
 8003a54:	68a1      	ldr	r1, [r4, #8]
 8003a56:	4b09      	ldr	r3, [pc, #36]	; (8003a7c <cleanup_stdio+0x38>)
 8003a58:	4299      	cmp	r1, r3
 8003a5a:	d002      	beq.n	8003a62 <cleanup_stdio+0x1e>
 8003a5c:	4620      	mov	r0, r4
 8003a5e:	f000 fe83 	bl	8004768 <_fflush_r>
 8003a62:	68e1      	ldr	r1, [r4, #12]
 8003a64:	4b06      	ldr	r3, [pc, #24]	; (8003a80 <cleanup_stdio+0x3c>)
 8003a66:	4299      	cmp	r1, r3
 8003a68:	d004      	beq.n	8003a74 <cleanup_stdio+0x30>
 8003a6a:	4620      	mov	r0, r4
 8003a6c:	e8bd 4010 	ldmia.w	sp!, {r4, lr}
 8003a70:	f000 be7a 	b.w	8004768 <_fflush_r>
 8003a74:	bd10      	pop	{r4, pc}
 8003a76:	bf00      	nop
 8003a78:	20005518 	.word	0x20005518
 8003a7c:	20005580 	.word	0x20005580
 8003a80:	200055e8 	.word	0x200055e8

08003a84 <global_stdio_init.part.0>:
 8003a84:	b510      	push	{r4, lr}
 8003a86:	4b0b      	ldr	r3, [pc, #44]	; (8003ab4 <global_stdio_init.part.0+0x30>)
 8003a88:	4c0b      	ldr	r4, [pc, #44]	; (8003ab8 <global_stdio_init.part.0+0x34>)
 8003a8a:	4a0c      	ldr	r2, [pc, #48]	; (8003abc <global_stdio_init.part.0+0x38>)
 8003a8c:	601a      	str	r2, [r3, #0]
 8003a8e:	4620      	mov	r0, r4
 8003a90:	2200      	movs	r2, #0
 8003a92:	2104      	movs	r1, #4
 8003a94:	f7ff ffa6 	bl	80039e4 <std>
 8003a98:	f104 0068 	add.w	r0, r4, #104	; 0x68
 8003a9c:	2201      	movs	r2, #1
 8003a9e:	2109      	movs	r1, #9
 8003aa0:	f7ff ffa0 	bl	80039e4 <std>
 8003aa4:	f104 00d0 	add.w	r0, r4, #208	; 0xd0
 8003aa8:	2202      	movs	r2, #2
 8003aaa:	e8bd 4010 	ldmia.w	sp!, {r4, lr}
 8003aae:	2112      	movs	r1, #18
 8003ab0:	f7ff bf98 	b.w	80039e4 <std>
 8003ab4:	20005650 	.word	0x20005650
 8003ab8:	20005518 	.word	0x20005518
 8003abc:	08003a2d 	.word	0x08003a2d

08003ac0 <__sfp_lock_acquire>:
 8003ac0:	4801      	ldr	r0, [pc, #4]	; (8003ac8 <__sfp_lock_acquire+0x8>)
 8003ac2:	f000 b9fd 	b.w	8003ec0 <__retarget_lock_acquire_recursive>
 8003ac6:	bf00      	nop
 8003ac8:	20005659 	.word	0x20005659

08003acc <__sfp_lock_release>:
 8003acc:	4801      	ldr	r0, [pc, #4]	; (8003ad4 <__sfp_lock_release+0x8>)
 8003ace:	f000 b9f8 	b.w	8003ec2 <__retarget_lock_release_recursive>
 8003ad2:	bf00      	nop
 8003ad4:	20005659 	.word	0x20005659

08003ad8 <__sinit>:
 8003ad8:	b510      	push	{r4, lr}
 8003ada:	4604      	mov	r4, r0
 8003adc:	f7ff fff0 	bl	8003ac0 <__sfp_lock_acquire>
 8003ae0:	6a23      	ldr	r3, [r4, #32]
 8003ae2:	b11b      	cbz	r3, 8003aec <__sinit+0x14>
 8003ae4:	e8bd 4010 	ldmia.w	sp!, {r4, lr}
 8003ae8:	f7ff bff0 	b.w	8003acc <__sfp_lock_release>
 8003aec:	4b04      	ldr	r3, [pc, #16]	; (8003b00 <__sinit+0x28>)
 8003aee:	6223      	str	r3, [r4, #32]
 8003af0:	4b04      	ldr	r3, [pc, #16]	; (8003b04 <__sinit+0x2c>)
 8003af2:	681b      	ldr	r3, [r3, #0]
 8003af4:	2b00      	cmp	r3, #0
 8003af6:	d1f5      	bne.n	8003ae4 <__sinit+0xc>
 8003af8:	f7ff ffc4 	bl	8003a84 <global_stdio_init.part.0>
 8003afc:	e7f2      	b.n	8003ae4 <__sinit+0xc>
 8003afe:	bf00      	nop
 8003b00:	08003a45 	.word	0x08003a45
 8003b04:	20005650 	.word	0x20005650

08003b08 <_fwalk_sglue>:
 8003b08:	e92d 43f8 	stmdb	sp!, {r3, r4, r5, r6, r7, r8, r9, lr}
 8003b0c:	4607      	mov	r7, r0
 8003b0e:	4688      	mov	r8, r1
 8003b10:	4614      	mov	r4, r2
 8003b12:	2600      	movs	r6, #0
 8003b14:	e9d4 9501 	ldrd	r9, r5, [r4, #4]
 8003b18:	f1b9 0901 	subs.w	r9, r9, #1
 8003b1c:	d505      	bpl.n	8003b2a <_fwalk_sglue+0x22>
 8003b1e:	6824      	ldr	r4, [r4, #0]
 8003b20:	2c00      	cmp	r4, #0
 8003b22:	d1f7      	bne.n	8003b14 <_fwalk_sglue+0xc>
 8003b24:	4630      	mov	r0, r6
 8003b26:	e8bd 83f8 	ldmia.w	sp!, {r3, r4, r5, r6, r7, r8, r9, pc}
 8003b2a:	89ab      	ldrh	r3, [r5, #12]
 8003b2c:	2b01      	cmp	r3, #1
 8003b2e:	d907      	bls.n	8003b40 <_fwalk_sglue+0x38>
 8003b30:	f9b5 300e 	ldrsh.w	r3, [r5, #14]
 8003b34:	3301      	adds	r3, #1
 8003b36:	d003      	beq.n	8003b40 <_fwalk_sglue+0x38>
 8003b38:	4629      	mov	r1, r5
 8003b3a:	4638      	mov	r0, r7
 8003b3c:	47c0      	blx	r8
 8003b3e:	4306      	orrs	r6, r0
 8003b40:	3568      	adds	r5, #104	; 0x68
 8003b42:	e7e9      	b.n	8003b18 <_fwalk_sglue+0x10>

08003b44 <iprintf>:
 8003b44:	b40f      	push	{r0, r1, r2, r3}
 8003b46:	b507      	push	{r0, r1, r2, lr}
 8003b48:	4906      	ldr	r1, [pc, #24]	; (8003b64 <iprintf+0x20>)
 8003b4a:	ab04      	add	r3, sp, #16
 8003b4c:	6808      	ldr	r0, [r1, #0]
 8003b4e:	f853 2b04 	ldr.w	r2, [r3], #4
 8003b52:	6881      	ldr	r1, [r0, #8]
 8003b54:	9301      	str	r3, [sp, #4]
 8003b56:	f000 fad7 	bl	8004108 <_vfiprintf_r>
 8003b5a:	b003      	add	sp, #12
 8003b5c:	f85d eb04 	ldr.w	lr, [sp], #4
 8003b60:	b004      	add	sp, #16
 8003b62:	4770      	bx	lr
 8003b64:	200000ac 	.word	0x200000ac

08003b68 <_puts_r>:
 8003b68:	6a03      	ldr	r3, [r0, #32]
 8003b6a:	b570      	push	{r4, r5, r6, lr}
 8003b6c:	6884      	ldr	r4, [r0, #8]
 8003b6e:	4605      	mov	r5, r0
 8003b70:	460e      	mov	r6, r1
 8003b72:	b90b      	cbnz	r3, 8003b78 <_puts_r+0x10>
 8003b74:	f7ff ffb0 	bl	8003ad8 <__sinit>
 8003b78:	6e63      	ldr	r3, [r4, #100]	; 0x64
 8003b7a:	07db      	lsls	r3, r3, #31
 8003b7c:	d405      	bmi.n	8003b8a <_puts_r+0x22>
 8003b7e:	89a3      	ldrh	r3, [r4, #12]
 8003b80:	0598      	lsls	r0, r3, #22
 8003b82:	d402      	bmi.n	8003b8a <_puts_r+0x22>
 8003b84:	6da0      	ldr	r0, [r4, #88]	; 0x58
 8003b86:	f000 f99b 	bl	8003ec0 <__retarget_lock_acquire_recursive>
 8003b8a:	89a3      	ldrh	r3, [r4, #12]
 8003b8c:	0719      	lsls	r1, r3, #28
 8003b8e:	d513      	bpl.n	8003bb8 <_puts_r+0x50>
 8003b90:	6923      	ldr	r3, [r4, #16]
 8003b92:	b18b      	cbz	r3, 8003bb8 <_puts_r+0x50>
 8003b94:	3e01      	subs	r6, #1
 8003b96:	68a3      	ldr	r3, [r4, #8]
 8003b98:	f816 1f01 	ldrb.w	r1, [r6, #1]!
 8003b9c:	3b01      	subs	r3, #1
 8003b9e:	60a3      	str	r3, [r4, #8]
 8003ba0:	b9e9      	cbnz	r1, 8003bde <_puts_r+0x76>
 8003ba2:	2b00      	cmp	r3, #0
 8003ba4:	da2e      	bge.n	8003c04 <_puts_r+0x9c>
 8003ba6:	4622      	mov	r2, r4
 8003ba8:	210a      	movs	r1, #10
 8003baa:	4628      	mov	r0, r5
 8003bac:	f000 f87b 	bl	8003ca6 <__swbuf_r>
 8003bb0:	3001      	adds	r0, #1
 8003bb2:	d007      	beq.n	8003bc4 <_puts_r+0x5c>
 8003bb4:	250a      	movs	r5, #10
 8003bb6:	e007      	b.n	8003bc8 <_puts_r+0x60>
 8003bb8:	4621      	mov	r1, r4
 8003bba:	4628      	mov	r0, r5
 8003bbc:	f000 f8b0 	bl	8003d20 <__swsetup_r>
 8003bc0:	2800      	cmp	r0, #0
 8003bc2:	d0e7      	beq.n	8003b94 <_puts_r+0x2c>
 8003bc4:	f04f 35ff 	mov.w	r5, #4294967295
 8003bc8:	6e63      	ldr	r3, [r4, #100]	; 0x64
 8003bca:	07da      	lsls	r2, r3, #31
 8003bcc:	d405      	bmi.n	8003bda <_puts_r+0x72>
 8003bce:	89a3      	ldrh	r3, [r4, #12]
 8003bd0:	059b      	lsls	r3, r3, #22
 8003bd2:	d402      	bmi.n	8003bda <_puts_r+0x72>
 8003bd4:	6da0      	ldr	r0, [r4, #88]	; 0x58
 8003bd6:	f000 f974 	bl	8003ec2 <__retarget_lock_release_recursive>
 8003bda:	4628      	mov	r0, r5
 8003bdc:	bd70      	pop	{r4, r5, r6, pc}
 8003bde:	2b00      	cmp	r3, #0
 8003be0:	da04      	bge.n	8003bec <_puts_r+0x84>
 8003be2:	69a2      	ldr	r2, [r4, #24]
 8003be4:	429a      	cmp	r2, r3
 8003be6:	dc06      	bgt.n	8003bf6 <_puts_r+0x8e>
 8003be8:	290a      	cmp	r1, #10
 8003bea:	d004      	beq.n	8003bf6 <_puts_r+0x8e>
 8003bec:	6823      	ldr	r3, [r4, #0]
 8003bee:	1c5a      	adds	r2, r3, #1
 8003bf0:	6022      	str	r2, [r4, #0]
 8003bf2:	7019      	strb	r1, [r3, #0]
 8003bf4:	e7cf      	b.n	8003b96 <_puts_r+0x2e>
 8003bf6:	4622      	mov	r2, r4
 8003bf8:	4628      	mov	r0, r5
 8003bfa:	f000 f854 	bl	8003ca6 <__swbuf_r>
 8003bfe:	3001      	adds	r0, #1
 8003c00:	d1c9      	bne.n	8003b96 <_puts_r+0x2e>
 8003c02:	e7df      	b.n	8003bc4 <_puts_r+0x5c>
 8003c04:	6823      	ldr	r3, [r4, #0]
 8003c06:	250a      	movs	r5, #10
 8003c08:	1c5a      	adds	r2, r3, #1
 8003c0a:	6022      	str	r2, [r4, #0]
 8003c0c:	701d      	strb	r5, [r3, #0]
 8003c0e:	e7db      	b.n	8003bc8 <_puts_r+0x60>

08003c10 <puts>:
 8003c10:	4b02      	ldr	r3, [pc, #8]	; (8003c1c <puts+0xc>)
 8003c12:	4601      	mov	r1, r0
 8003c14:	6818      	ldr	r0, [r3, #0]
 8003c16:	f7ff bfa7 	b.w	8003b68 <_puts_r>
 8003c1a:	bf00      	nop
 8003c1c:	200000ac 	.word	0x200000ac

08003c20 <__sread>:
 8003c20:	b510      	push	{r4, lr}
 8003c22:	460c      	mov	r4, r1
 8003c24:	f9b1 100e 	ldrsh.w	r1, [r1, #14]
 8003c28:	f000 f8fc 	bl	8003e24 <_read_r>
 8003c2c:	2800      	cmp	r0, #0
 8003c2e:	bfab      	itete	ge
 8003c30:	6d63      	ldrge	r3, [r4, #84]	; 0x54
 8003c32:	89a3      	ldrhlt	r3, [r4, #12]
 8003c34:	181b      	addge	r3, r3, r0
 8003c36:	f423 5380 	biclt.w	r3, r3, #4096	; 0x1000
 8003c3a:	bfac      	ite	ge
 8003c3c:	6563      	strge	r3, [r4, #84]	; 0x54
 8003c3e:	81a3      	strhlt	r3, [r4, #12]
 8003c40:	bd10      	pop	{r4, pc}

08003c42 <__swrite>:
 8003c42:	e92d 41f0 	stmdb	sp!, {r4, r5, r6, r7, r8, lr}
 8003c46:	461f      	mov	r7, r3
 8003c48:	898b      	ldrh	r3, [r1, #12]
 8003c4a:	05db      	lsls	r3, r3, #23
 8003c4c:	4605      	mov	r5, r0
 8003c4e:	460c      	mov	r4, r1
 8003c50:	4616      	mov	r6, r2
 8003c52:	d505      	bpl.n	8003c60 <__swrite+0x1e>
 8003c54:	f9b1 100e 	ldrsh.w	r1, [r1, #14]
 8003c58:	2302      	movs	r3, #2
 8003c5a:	2200      	movs	r2, #0
 8003c5c:	f000 f8d0 	bl	8003e00 <_lseek_r>
 8003c60:	89a3      	ldrh	r3, [r4, #12]
 8003c62:	f9b4 100e 	ldrsh.w	r1, [r4, #14]
 8003c66:	f423 5380 	bic.w	r3, r3, #4096	; 0x1000
 8003c6a:	81a3      	strh	r3, [r4, #12]
 8003c6c:	4632      	mov	r2, r6
 8003c6e:	463b      	mov	r3, r7
 8003c70:	4628      	mov	r0, r5
 8003c72:	e8bd 41f0 	ldmia.w	sp!, {r4, r5, r6, r7, r8, lr}
 8003c76:	f000 b8e7 	b.w	8003e48 <_write_r>

08003c7a <__sseek>:
 8003c7a:	b510      	push	{r4, lr}
 8003c7c:	460c      	mov	r4, r1
 8003c7e:	f9b1 100e 	ldrsh.w	r1, [r1, #14]
 8003c82:	f000 f8bd 	bl	8003e00 <_lseek_r>
 8003c86:	1c43      	adds	r3, r0, #1
 8003c88:	89a3      	ldrh	r3, [r4, #12]
 8003c8a:	bf15      	itete	ne
 8003c8c:	6560      	strne	r0, [r4, #84]	; 0x54
 8003c8e:	f423 5380 	biceq.w	r3, r3, #4096	; 0x1000
 8003c92:	f443 5380 	orrne.w	r3, r3, #4096	; 0x1000
 8003c96:	81a3      	strheq	r3, [r4, #12]
 8003c98:	bf18      	it	ne
 8003c9a:	81a3      	strhne	r3, [r4, #12]
 8003c9c:	bd10      	pop	{r4, pc}

08003c9e <__sclose>:
 8003c9e:	f9b1 100e 	ldrsh.w	r1, [r1, #14]
 8003ca2:	f000 b89d 	b.w	8003de0 <_close_r>

08003ca6 <__swbuf_r>:
 8003ca6:	b5f8      	push	{r3, r4, r5, r6, r7, lr}
 8003ca8:	460e      	mov	r6, r1
 8003caa:	4614      	mov	r4, r2
 8003cac:	4605      	mov	r5, r0
 8003cae:	b118      	cbz	r0, 8003cb8 <__swbuf_r+0x12>
 8003cb0:	6a03      	ldr	r3, [r0, #32]
 8003cb2:	b90b      	cbnz	r3, 8003cb8 <__swbuf_r+0x12>
 8003cb4:	f7ff ff10 	bl	8003ad8 <__sinit>
 8003cb8:	69a3      	ldr	r3, [r4, #24]
 8003cba:	60a3      	str	r3, [r4, #8]
 8003cbc:	89a3      	ldrh	r3, [r4, #12]
 8003cbe:	071a      	lsls	r2, r3, #28
 8003cc0:	d525      	bpl.n	8003d0e <__swbuf_r+0x68>
 8003cc2:	6923      	ldr	r3, [r4, #16]
 8003cc4:	b31b      	cbz	r3, 8003d0e <__swbuf_r+0x68>
 8003cc6:	6823      	ldr	r3, [r4, #0]
 8003cc8:	6922      	ldr	r2, [r4, #16]
 8003cca:	1a98      	subs	r0, r3, r2
 8003ccc:	6963      	ldr	r3, [r4, #20]
 8003cce:	b2f6      	uxtb	r6, r6
 8003cd0:	4283      	cmp	r3, r0
 8003cd2:	4637      	mov	r7, r6
 8003cd4:	dc04      	bgt.n	8003ce0 <__swbuf_r+0x3a>
 8003cd6:	4621      	mov	r1, r4
 8003cd8:	4628      	mov	r0, r5
 8003cda:	f000 fd45 	bl	8004768 <_fflush_r>
 8003cde:	b9e0      	cbnz	r0, 8003d1a <__swbuf_r+0x74>
 8003ce0:	68a3      	ldr	r3, [r4, #8]
 8003ce2:	3b01      	subs	r3, #1
 8003ce4:	60a3      	str	r3, [r4, #8]
 8003ce6:	6823      	ldr	r3, [r4, #0]
 8003ce8:	1c5a      	adds	r2, r3, #1
 8003cea:	6022      	str	r2, [r4, #0]
 8003cec:	701e      	strb	r6, [r3, #0]
 8003cee:	6962      	ldr	r2, [r4, #20]
 8003cf0:	1c43      	adds	r3, r0, #1
 8003cf2:	429a      	cmp	r2, r3
 8003cf4:	d004      	beq.n	8003d00 <__swbuf_r+0x5a>
 8003cf6:	89a3      	ldrh	r3, [r4, #12]
 8003cf8:	07db      	lsls	r3, r3, #31
 8003cfa:	d506      	bpl.n	8003d0a <__swbuf_r+0x64>
 8003cfc:	2e0a      	cmp	r6, #10
 8003cfe:	d104      	bne.n	8003d0a <__swbuf_r+0x64>
 8003d00:	4621      	mov	r1, r4
 8003d02:	4628      	mov	r0, r5
 8003d04:	f000 fd30 	bl	8004768 <_fflush_r>
 8003d08:	b938      	cbnz	r0, 8003d1a <__swbuf_r+0x74>
 8003d0a:	4638      	mov	r0, r7
 8003d0c:	bdf8      	pop	{r3, r4, r5, r6, r7, pc}
 8003d0e:	4621      	mov	r1, r4
 8003d10:	4628      	mov	r0, r5
 8003d12:	f000 f805 	bl	8003d20 <__swsetup_r>
 8003d16:	2800      	cmp	r0, #0
 8003d18:	d0d5      	beq.n	8003cc6 <__swbuf_r+0x20>
 8003d1a:	f04f 37ff 	mov.w	r7, #4294967295
 8003d1e:	e7f4      	b.n	8003d0a <__swbuf_r+0x64>

08003d20 <__swsetup_r>:
 8003d20:	b538      	push	{r3, r4, r5, lr}
 8003d22:	4b2a      	ldr	r3, [pc, #168]	; (8003dcc <__swsetup_r+0xac>)
 8003d24:	4605      	mov	r5, r0
 8003d26:	6818      	ldr	r0, [r3, #0]
 8003d28:	460c      	mov	r4, r1
 8003d2a:	b118      	cbz	r0, 8003d34 <__swsetup_r+0x14>
 8003d2c:	6a03      	ldr	r3, [r0, #32]
 8003d2e:	b90b      	cbnz	r3, 8003d34 <__swsetup_r+0x14>
 8003d30:	f7ff fed2 	bl	8003ad8 <__sinit>
 8003d34:	89a3      	ldrh	r3, [r4, #12]
 8003d36:	f9b4 200c 	ldrsh.w	r2, [r4, #12]
 8003d3a:	0718      	lsls	r0, r3, #28
 8003d3c:	d422      	bmi.n	8003d84 <__swsetup_r+0x64>
 8003d3e:	06d9      	lsls	r1, r3, #27
 8003d40:	d407      	bmi.n	8003d52 <__swsetup_r+0x32>
 8003d42:	2309      	movs	r3, #9
 8003d44:	602b      	str	r3, [r5, #0]
 8003d46:	f042 0340 	orr.w	r3, r2, #64	; 0x40
 8003d4a:	81a3      	strh	r3, [r4, #12]
 8003d4c:	f04f 30ff 	mov.w	r0, #4294967295
 8003d50:	e034      	b.n	8003dbc <__swsetup_r+0x9c>
 8003d52:	0758      	lsls	r0, r3, #29
 8003d54:	d512      	bpl.n	8003d7c <__swsetup_r+0x5c>
 8003d56:	6b61      	ldr	r1, [r4, #52]	; 0x34
 8003d58:	b141      	cbz	r1, 8003d6c <__swsetup_r+0x4c>
 8003d5a:	f104 0344 	add.w	r3, r4, #68	; 0x44
 8003d5e:	4299      	cmp	r1, r3
 8003d60:	d002      	beq.n	8003d68 <__swsetup_r+0x48>
 8003d62:	4628      	mov	r0, r5
 8003d64:	f000 f8ae 	bl	8003ec4 <_free_r>
 8003d68:	2300      	movs	r3, #0
 8003d6a:	6363      	str	r3, [r4, #52]	; 0x34
 8003d6c:	89a3      	ldrh	r3, [r4, #12]
 8003d6e:	f023 0324 	bic.w	r3, r3, #36	; 0x24
 8003d72:	81a3      	strh	r3, [r4, #12]
 8003d74:	2300      	movs	r3, #0
 8003d76:	6063      	str	r3, [r4, #4]
 8003d78:	6923      	ldr	r3, [r4, #16]
 8003d7a:	6023      	str	r3, [r4, #0]
 8003d7c:	89a3      	ldrh	r3, [r4, #12]
 8003d7e:	f043 0308 	orr.w	r3, r3, #8
 8003d82:	81a3      	strh	r3, [r4, #12]
 8003d84:	6923      	ldr	r3, [r4, #16]
 8003d86:	b94b      	cbnz	r3, 8003d9c <__swsetup_r+0x7c>
 8003d88:	89a3      	ldrh	r3, [r4, #12]
 8003d8a:	f403 7320 	and.w	r3, r3, #640	; 0x280
 8003d8e:	f5b3 7f00 	cmp.w	r3, #512	; 0x200
 8003d92:	d003      	beq.n	8003d9c <__swsetup_r+0x7c>
 8003d94:	4621      	mov	r1, r4
 8003d96:	4628      	mov	r0, r5
 8003d98:	f000 fd34 	bl	8004804 <__smakebuf_r>
 8003d9c:	89a0      	ldrh	r0, [r4, #12]
 8003d9e:	f9b4 200c 	ldrsh.w	r2, [r4, #12]
 8003da2:	f010 0301 	ands.w	r3, r0, #1
 8003da6:	d00a      	beq.n	8003dbe <__swsetup_r+0x9e>
 8003da8:	2300      	movs	r3, #0
 8003daa:	60a3      	str	r3, [r4, #8]
 8003dac:	6963      	ldr	r3, [r4, #20]
 8003dae:	425b      	negs	r3, r3
 8003db0:	61a3      	str	r3, [r4, #24]
 8003db2:	6923      	ldr	r3, [r4, #16]
 8003db4:	b943      	cbnz	r3, 8003dc8 <__swsetup_r+0xa8>
 8003db6:	f010 0080 	ands.w	r0, r0, #128	; 0x80
 8003dba:	d1c4      	bne.n	8003d46 <__swsetup_r+0x26>
 8003dbc:	bd38      	pop	{r3, r4, r5, pc}
 8003dbe:	0781      	lsls	r1, r0, #30
 8003dc0:	bf58      	it	pl
 8003dc2:	6963      	ldrpl	r3, [r4, #20]
 8003dc4:	60a3      	str	r3, [r4, #8]
 8003dc6:	e7f4      	b.n	8003db2 <__swsetup_r+0x92>
 8003dc8:	2000      	movs	r0, #0
 8003dca:	e7f7      	b.n	8003dbc <__swsetup_r+0x9c>
 8003dcc:	200000ac 	.word	0x200000ac

08003dd0 <memset>:
 8003dd0:	4402      	add	r2, r0
 8003dd2:	4603      	mov	r3, r0
 8003dd4:	4293      	cmp	r3, r2
 8003dd6:	d100      	bne.n	8003dda <memset+0xa>
 8003dd8:	4770      	bx	lr
 8003dda:	f803 1b01 	strb.w	r1, [r3], #1
 8003dde:	e7f9      	b.n	8003dd4 <memset+0x4>

08003de0 <_close_r>:
 8003de0:	b538      	push	{r3, r4, r5, lr}
 8003de2:	4d06      	ldr	r5, [pc, #24]	; (8003dfc <_close_r+0x1c>)
 8003de4:	2300      	movs	r3, #0
 8003de6:	4604      	mov	r4, r0
 8003de8:	4608      	mov	r0, r1
 8003dea:	602b      	str	r3, [r5, #0]
 8003dec:	f7ff fd9e 	bl	800392c <_close>
 8003df0:	1c43      	adds	r3, r0, #1
 8003df2:	d102      	bne.n	8003dfa <_close_r+0x1a>
 8003df4:	682b      	ldr	r3, [r5, #0]
 8003df6:	b103      	cbz	r3, 8003dfa <_close_r+0x1a>
 8003df8:	6023      	str	r3, [r4, #0]
 8003dfa:	bd38      	pop	{r3, r4, r5, pc}
 8003dfc:	20005654 	.word	0x20005654

08003e00 <_lseek_r>:
 8003e00:	b538      	push	{r3, r4, r5, lr}
 8003e02:	4d07      	ldr	r5, [pc, #28]	; (8003e20 <_lseek_r+0x20>)
 8003e04:	4604      	mov	r4, r0
 8003e06:	4608      	mov	r0, r1
 8003e08:	4611      	mov	r1, r2
 8003e0a:	2200      	movs	r2, #0
 8003e0c:	602a      	str	r2, [r5, #0]
 8003e0e:	461a      	mov	r2, r3
 8003e10:	f7ff fd96 	bl	8003940 <_lseek>
 8003e14:	1c43      	adds	r3, r0, #1
 8003e16:	d102      	bne.n	8003e1e <_lseek_r+0x1e>
 8003e18:	682b      	ldr	r3, [r5, #0]
 8003e1a:	b103      	cbz	r3, 8003e1e <_lseek_r+0x1e>
 8003e1c:	6023      	str	r3, [r4, #0]
 8003e1e:	bd38      	pop	{r3, r4, r5, pc}
 8003e20:	20005654 	.word	0x20005654

08003e24 <_read_r>:
 8003e24:	b538      	push	{r3, r4, r5, lr}
 8003e26:	4d07      	ldr	r5, [pc, #28]	; (8003e44 <_read_r+0x20>)
 8003e28:	4604      	mov	r4, r0
 8003e2a:	4608      	mov	r0, r1
 8003e2c:	4611      	mov	r1, r2
 8003e2e:	2200      	movs	r2, #0
 8003e30:	602a      	str	r2, [r5, #0]
 8003e32:	461a      	mov	r2, r3
 8003e34:	f7ff fd44 	bl	80038c0 <_read>
 8003e38:	1c43      	adds	r3, r0, #1
 8003e3a:	d102      	bne.n	8003e42 <_read_r+0x1e>
 8003e3c:	682b      	ldr	r3, [r5, #0]
 8003e3e:	b103      	cbz	r3, 8003e42 <_read_r+0x1e>
 8003e40:	6023      	str	r3, [r4, #0]
 8003e42:	bd38      	pop	{r3, r4, r5, pc}
 8003e44:	20005654 	.word	0x20005654

08003e48 <_write_r>:
 8003e48:	b538      	push	{r3, r4, r5, lr}
 8003e4a:	4d07      	ldr	r5, [pc, #28]	; (8003e68 <_write_r+0x20>)
 8003e4c:	4604      	mov	r4, r0
 8003e4e:	4608      	mov	r0, r1
 8003e50:	4611      	mov	r1, r2
 8003e52:	2200      	movs	r2, #0
 8003e54:	602a      	str	r2, [r5, #0]
 8003e56:	461a      	mov	r2, r3
 8003e58:	f7ff fd40 	bl	80038dc <_write>
 8003e5c:	1c43      	adds	r3, r0, #1
 8003e5e:	d102      	bne.n	8003e66 <_write_r+0x1e>
 8003e60:	682b      	ldr	r3, [r5, #0]
 8003e62:	b103      	cbz	r3, 8003e66 <_write_r+0x1e>
 8003e64:	6023      	str	r3, [r4, #0]
 8003e66:	bd38      	pop	{r3, r4, r5, pc}
 8003e68:	20005654 	.word	0x20005654

08003e6c <__errno>:
 8003e6c:	4b01      	ldr	r3, [pc, #4]	; (8003e74 <__errno+0x8>)
 8003e6e:	6818      	ldr	r0, [r3, #0]
 8003e70:	4770      	bx	lr
 8003e72:	bf00      	nop
 8003e74:	200000ac 	.word	0x200000ac

08003e78 <__libc_init_array>:
 8003e78:	b570      	push	{r4, r5, r6, lr}
 8003e7a:	4d0d      	ldr	r5, [pc, #52]	; (8003eb0 <__libc_init_array+0x38>)
 8003e7c:	4c0d      	ldr	r4, [pc, #52]	; (8003eb4 <__libc_init_array+0x3c>)
 8003e7e:	1b64      	subs	r4, r4, r5
 8003e80:	10a4      	asrs	r4, r4, #2
 8003e82:	2600      	movs	r6, #0
 8003e84:	42a6      	cmp	r6, r4
 8003e86:	d109      	bne.n	8003e9c <__libc_init_array+0x24>
 8003e88:	4d0b      	ldr	r5, [pc, #44]	; (8003eb8 <__libc_init_array+0x40>)
 8003e8a:	4c0c      	ldr	r4, [pc, #48]	; (8003ebc <__libc_init_array+0x44>)
 8003e8c:	f001 fec4 	bl	8005c18 <_init>
 8003e90:	1b64      	subs	r4, r4, r5
 8003e92:	10a4      	asrs	r4, r4, #2
 8003e94:	2600      	movs	r6, #0
 8003e96:	42a6      	cmp	r6, r4
 8003e98:	d105      	bne.n	8003ea6 <__libc_init_array+0x2e>
 8003e9a:	bd70      	pop	{r4, r5, r6, pc}
 8003e9c:	f855 3b04 	ldr.w	r3, [r5], #4
 8003ea0:	4798      	blx	r3
 8003ea2:	3601      	adds	r6, #1
 8003ea4:	e7ee      	b.n	8003e84 <__libc_init_array+0xc>
 8003ea6:	f855 3b04 	ldr.w	r3, [r5], #4
 8003eaa:	4798      	blx	r3
 8003eac:	3601      	adds	r6, #1
 8003eae:	e7f2      	b.n	8003e96 <__libc_init_array+0x1e>
 8003eb0:	08005e78 	.word	0x08005e78
 8003eb4:	08005e78 	.word	0x08005e78
 8003eb8:	08005e78 	.word	0x08005e78
 8003ebc:	08005e7c 	.word	0x08005e7c

08003ec0 <__retarget_lock_acquire_recursive>:
 8003ec0:	4770      	bx	lr

08003ec2 <__retarget_lock_release_recursive>:
 8003ec2:	4770      	bx	lr

08003ec4 <_free_r>:
 8003ec4:	b537      	push	{r0, r1, r2, r4, r5, lr}
 8003ec6:	2900      	cmp	r1, #0
 8003ec8:	d044      	beq.n	8003f54 <_free_r+0x90>
 8003eca:	f851 3c04 	ldr.w	r3, [r1, #-4]
 8003ece:	9001      	str	r0, [sp, #4]
 8003ed0:	2b00      	cmp	r3, #0
 8003ed2:	f1a1 0404 	sub.w	r4, r1, #4
 8003ed6:	bfb8      	it	lt
 8003ed8:	18e4      	addlt	r4, r4, r3
 8003eda:	f000 f8df 	bl	800409c <__malloc_lock>
 8003ede:	4a1e      	ldr	r2, [pc, #120]	; (8003f58 <_free_r+0x94>)
 8003ee0:	9801      	ldr	r0, [sp, #4]
 8003ee2:	6813      	ldr	r3, [r2, #0]
 8003ee4:	b933      	cbnz	r3, 8003ef4 <_free_r+0x30>
 8003ee6:	6063      	str	r3, [r4, #4]
 8003ee8:	6014      	str	r4, [r2, #0]
 8003eea:	b003      	add	sp, #12
 8003eec:	e8bd 4030 	ldmia.w	sp!, {r4, r5, lr}
 8003ef0:	f000 b8da 	b.w	80040a8 <__malloc_unlock>
 8003ef4:	42a3      	cmp	r3, r4
 8003ef6:	d908      	bls.n	8003f0a <_free_r+0x46>
 8003ef8:	6825      	ldr	r5, [r4, #0]
 8003efa:	1961      	adds	r1, r4, r5
 8003efc:	428b      	cmp	r3, r1
 8003efe:	bf01      	itttt	eq
 8003f00:	6819      	ldreq	r1, [r3, #0]
 8003f02:	685b      	ldreq	r3, [r3, #4]
 8003f04:	1949      	addeq	r1, r1, r5
 8003f06:	6021      	streq	r1, [r4, #0]
 8003f08:	e7ed      	b.n	8003ee6 <_free_r+0x22>
 8003f0a:	461a      	mov	r2, r3
 8003f0c:	685b      	ldr	r3, [r3, #4]
 8003f0e:	b10b      	cbz	r3, 8003f14 <_free_r+0x50>
 8003f10:	42a3      	cmp	r3, r4
 8003f12:	d9fa      	bls.n	8003f0a <_free_r+0x46>
 8003f14:	6811      	ldr	r1, [r2, #0]
 8003f16:	1855      	adds	r5, r2, r1
 8003f18:	42a5      	cmp	r5, r4
 8003f1a:	d10b      	bne.n	8003f34 <_free_r+0x70>
 8003f1c:	6824      	ldr	r4, [r4, #0]
 8003f1e:	4421      	add	r1, r4
 8003f20:	1854      	adds	r4, r2, r1
 8003f22:	42a3      	cmp	r3, r4
 8003f24:	6011      	str	r1, [r2, #0]
 8003f26:	d1e0      	bne.n	8003eea <_free_r+0x26>
 8003f28:	681c      	ldr	r4, [r3, #0]
 8003f2a:	685b      	ldr	r3, [r3, #4]
 8003f2c:	6053      	str	r3, [r2, #4]
 8003f2e:	440c      	add	r4, r1
 8003f30:	6014      	str	r4, [r2, #0]
 8003f32:	e7da      	b.n	8003eea <_free_r+0x26>
 8003f34:	d902      	bls.n	8003f3c <_free_r+0x78>
 8003f36:	230c      	movs	r3, #12
 8003f38:	6003      	str	r3, [r0, #0]
 8003f3a:	e7d6      	b.n	8003eea <_free_r+0x26>
 8003f3c:	6825      	ldr	r5, [r4, #0]
 8003f3e:	1961      	adds	r1, r4, r5
 8003f40:	428b      	cmp	r3, r1
 8003f42:	bf04      	itt	eq
 8003f44:	6819      	ldreq	r1, [r3, #0]
 8003f46:	685b      	ldreq	r3, [r3, #4]
 8003f48:	6063      	str	r3, [r4, #4]
 8003f4a:	bf04      	itt	eq
 8003f4c:	1949      	addeq	r1, r1, r5
 8003f4e:	6021      	streq	r1, [r4, #0]
 8003f50:	6054      	str	r4, [r2, #4]
 8003f52:	e7ca      	b.n	8003eea <_free_r+0x26>
 8003f54:	b003      	add	sp, #12
 8003f56:	bd30      	pop	{r4, r5, pc}
 8003f58:	2000565c 	.word	0x2000565c

08003f5c <sbrk_aligned>:
 8003f5c:	b570      	push	{r4, r5, r6, lr}
 8003f5e:	4e0e      	ldr	r6, [pc, #56]	; (8003f98 <sbrk_aligned+0x3c>)
 8003f60:	460c      	mov	r4, r1
 8003f62:	6831      	ldr	r1, [r6, #0]
 8003f64:	4605      	mov	r5, r0
 8003f66:	b911      	cbnz	r1, 8003f6e <sbrk_aligned+0x12>
 8003f68:	f000 fcaa 	bl	80048c0 <_sbrk_r>
 8003f6c:	6030      	str	r0, [r6, #0]
 8003f6e:	4621      	mov	r1, r4
 8003f70:	4628      	mov	r0, r5
 8003f72:	f000 fca5 	bl	80048c0 <_sbrk_r>
 8003f76:	1c43      	adds	r3, r0, #1
 8003f78:	d00a      	beq.n	8003f90 <sbrk_aligned+0x34>
 8003f7a:	1cc4      	adds	r4, r0, #3
 8003f7c:	f024 0403 	bic.w	r4, r4, #3
 8003f80:	42a0      	cmp	r0, r4
 8003f82:	d007      	beq.n	8003f94 <sbrk_aligned+0x38>
 8003f84:	1a21      	subs	r1, r4, r0
 8003f86:	4628      	mov	r0, r5
 8003f88:	f000 fc9a 	bl	80048c0 <_sbrk_r>
 8003f8c:	3001      	adds	r0, #1
 8003f8e:	d101      	bne.n	8003f94 <sbrk_aligned+0x38>
 8003f90:	f04f 34ff 	mov.w	r4, #4294967295
 8003f94:	4620      	mov	r0, r4
 8003f96:	bd70      	pop	{r4, r5, r6, pc}
 8003f98:	20005660 	.word	0x20005660

08003f9c <_malloc_r>:
 8003f9c:	e92d 43f8 	stmdb	sp!, {r3, r4, r5, r6, r7, r8, r9, lr}
 8003fa0:	1ccd      	adds	r5, r1, #3
 8003fa2:	f025 0503 	bic.w	r5, r5, #3
 8003fa6:	3508      	adds	r5, #8
 8003fa8:	2d0c      	cmp	r5, #12
 8003faa:	bf38      	it	cc
 8003fac:	250c      	movcc	r5, #12
 8003fae:	2d00      	cmp	r5, #0
 8003fb0:	4607      	mov	r7, r0
 8003fb2:	db01      	blt.n	8003fb8 <_malloc_r+0x1c>
 8003fb4:	42a9      	cmp	r1, r5
 8003fb6:	d905      	bls.n	8003fc4 <_malloc_r+0x28>
 8003fb8:	230c      	movs	r3, #12
 8003fba:	603b      	str	r3, [r7, #0]
 8003fbc:	2600      	movs	r6, #0
 8003fbe:	4630      	mov	r0, r6
 8003fc0:	e8bd 83f8 	ldmia.w	sp!, {r3, r4, r5, r6, r7, r8, r9, pc}
 8003fc4:	f8df 80d0 	ldr.w	r8, [pc, #208]	; 8004098 <_malloc_r+0xfc>
 8003fc8:	f000 f868 	bl	800409c <__malloc_lock>
 8003fcc:	f8d8 3000 	ldr.w	r3, [r8]
 8003fd0:	461c      	mov	r4, r3
 8003fd2:	bb5c      	cbnz	r4, 800402c <_malloc_r+0x90>
 8003fd4:	4629      	mov	r1, r5
 8003fd6:	4638      	mov	r0, r7
 8003fd8:	f7ff ffc0 	bl	8003f5c <sbrk_aligned>
 8003fdc:	1c43      	adds	r3, r0, #1
 8003fde:	4604      	mov	r4, r0
 8003fe0:	d155      	bne.n	800408e <_malloc_r+0xf2>
 8003fe2:	f8d8 4000 	ldr.w	r4, [r8]
 8003fe6:	4626      	mov	r6, r4
 8003fe8:	2e00      	cmp	r6, #0
 8003fea:	d145      	bne.n	8004078 <_malloc_r+0xdc>
 8003fec:	2c00      	cmp	r4, #0
 8003fee:	d048      	beq.n	8004082 <_malloc_r+0xe6>
 8003ff0:	6823      	ldr	r3, [r4, #0]
 8003ff2:	4631      	mov	r1, r6
 8003ff4:	4638      	mov	r0, r7
 8003ff6:	eb04 0903 	add.w	r9, r4, r3
 8003ffa:	f000 fc61 	bl	80048c0 <_sbrk_r>
 8003ffe:	4581      	cmp	r9, r0
 8004000:	d13f      	bne.n	8004082 <_malloc_r+0xe6>
 8004002:	6821      	ldr	r1, [r4, #0]
 8004004:	1a6d      	subs	r5, r5, r1
 8004006:	4629      	mov	r1, r5
 8004008:	4638      	mov	r0, r7
 800400a:	f7ff ffa7 	bl	8003f5c <sbrk_aligned>
 800400e:	3001      	adds	r0, #1
 8004010:	d037      	beq.n	8004082 <_malloc_r+0xe6>
 8004012:	6823      	ldr	r3, [r4, #0]
 8004014:	442b      	add	r3, r5
 8004016:	6023      	str	r3, [r4, #0]
 8004018:	f8d8 3000 	ldr.w	r3, [r8]
 800401c:	2b00      	cmp	r3, #0
 800401e:	d038      	beq.n	8004092 <_malloc_r+0xf6>
 8004020:	685a      	ldr	r2, [r3, #4]
 8004022:	42a2      	cmp	r2, r4
 8004024:	d12b      	bne.n	800407e <_malloc_r+0xe2>
 8004026:	2200      	movs	r2, #0
 8004028:	605a      	str	r2, [r3, #4]
 800402a:	e00f      	b.n	800404c <_malloc_r+0xb0>
 800402c:	6822      	ldr	r2, [r4, #0]
 800402e:	1b52      	subs	r2, r2, r5
 8004030:	d41f      	bmi.n	8004072 <_malloc_r+0xd6>
 8004032:	2a0b      	cmp	r2, #11
 8004034:	d917      	bls.n	8004066 <_malloc_r+0xca>
 8004036:	1961      	adds	r1, r4, r5
 8004038:	42a3      	cmp	r3, r4
 800403a:	6025      	str	r5, [r4, #0]
 800403c:	bf18      	it	ne
 800403e:	6059      	strne	r1, [r3, #4]
 8004040:	6863      	ldr	r3, [r4, #4]
 8004042:	bf08      	it	eq
 8004044:	f8c8 1000 	streq.w	r1, [r8]
 8004048:	5162      	str	r2, [r4, r5]
 800404a:	604b      	str	r3, [r1, #4]
 800404c:	4638      	mov	r0, r7
 800404e:	f104 060b 	add.w	r6, r4, #11
 8004052:	f000 f829 	bl	80040a8 <__malloc_unlock>
 8004056:	f026 0607 	bic.w	r6, r6, #7
 800405a:	1d23      	adds	r3, r4, #4
 800405c:	1af2      	subs	r2, r6, r3
 800405e:	d0ae      	beq.n	8003fbe <_malloc_r+0x22>
 8004060:	1b9b      	subs	r3, r3, r6
 8004062:	50a3      	str	r3, [r4, r2]
 8004064:	e7ab      	b.n	8003fbe <_malloc_r+0x22>
 8004066:	42a3      	cmp	r3, r4
 8004068:	6862      	ldr	r2, [r4, #4]
 800406a:	d1dd      	bne.n	8004028 <_malloc_r+0x8c>
 800406c:	f8c8 2000 	str.w	r2, [r8]
 8004070:	e7ec      	b.n	800404c <_malloc_r+0xb0>
 8004072:	4623      	mov	r3, r4
 8004074:	6864      	ldr	r4, [r4, #4]
 8004076:	e7ac      	b.n	8003fd2 <_malloc_r+0x36>
 8004078:	4634      	mov	r4, r6
 800407a:	6876      	ldr	r6, [r6, #4]
 800407c:	e7b4      	b.n	8003fe8 <_malloc_r+0x4c>
 800407e:	4613      	mov	r3, r2
 8004080:	e7cc      	b.n	800401c <_malloc_r+0x80>
 8004082:	230c      	movs	r3, #12
 8004084:	603b      	str	r3, [r7, #0]
 8004086:	4638      	mov	r0, r7
 8004088:	f000 f80e 	bl	80040a8 <__malloc_unlock>
 800408c:	e797      	b.n	8003fbe <_malloc_r+0x22>
 800408e:	6025      	str	r5, [r4, #0]
 8004090:	e7dc      	b.n	800404c <_malloc_r+0xb0>
 8004092:	605b      	str	r3, [r3, #4]
 8004094:	deff      	udf	#255	; 0xff
 8004096:	bf00      	nop
 8004098:	2000565c 	.word	0x2000565c

0800409c <__malloc_lock>:
 800409c:	4801      	ldr	r0, [pc, #4]	; (80040a4 <__malloc_lock+0x8>)
 800409e:	f7ff bf0f 	b.w	8003ec0 <__retarget_lock_acquire_recursive>
 80040a2:	bf00      	nop
 80040a4:	20005658 	.word	0x20005658

080040a8 <__malloc_unlock>:
 80040a8:	4801      	ldr	r0, [pc, #4]	; (80040b0 <__malloc_unlock+0x8>)
 80040aa:	f7ff bf0a 	b.w	8003ec2 <__retarget_lock_release_recursive>
 80040ae:	bf00      	nop
 80040b0:	20005658 	.word	0x20005658

080040b4 <__sfputc_r>:
 80040b4:	6893      	ldr	r3, [r2, #8]
 80040b6:	3b01      	subs	r3, #1
 80040b8:	2b00      	cmp	r3, #0
 80040ba:	b410      	push	{r4}
 80040bc:	6093      	str	r3, [r2, #8]
 80040be:	da08      	bge.n	80040d2 <__sfputc_r+0x1e>
 80040c0:	6994      	ldr	r4, [r2, #24]
 80040c2:	42a3      	cmp	r3, r4
 80040c4:	db01      	blt.n	80040ca <__sfputc_r+0x16>
 80040c6:	290a      	cmp	r1, #10
 80040c8:	d103      	bne.n	80040d2 <__sfputc_r+0x1e>
 80040ca:	f85d 4b04 	ldr.w	r4, [sp], #4
 80040ce:	f7ff bdea 	b.w	8003ca6 <__swbuf_r>
 80040d2:	6813      	ldr	r3, [r2, #0]
 80040d4:	1c58      	adds	r0, r3, #1
 80040d6:	6010      	str	r0, [r2, #0]
 80040d8:	7019      	strb	r1, [r3, #0]
 80040da:	4608      	mov	r0, r1
 80040dc:	f85d 4b04 	ldr.w	r4, [sp], #4
 80040e0:	4770      	bx	lr

080040e2 <__sfputs_r>:
 80040e2:	b5f8      	push	{r3, r4, r5, r6, r7, lr}
 80040e4:	4606      	mov	r6, r0
 80040e6:	460f      	mov	r7, r1
 80040e8:	4614      	mov	r4, r2
 80040ea:	18d5      	adds	r5, r2, r3
 80040ec:	42ac      	cmp	r4, r5
 80040ee:	d101      	bne.n	80040f4 <__sfputs_r+0x12>
 80040f0:	2000      	movs	r0, #0
 80040f2:	e007      	b.n	8004104 <__sfputs_r+0x22>
 80040f4:	f814 1b01 	ldrb.w	r1, [r4], #1
 80040f8:	463a      	mov	r2, r7
 80040fa:	4630      	mov	r0, r6
 80040fc:	f7ff ffda 	bl	80040b4 <__sfputc_r>
 8004100:	1c43      	adds	r3, r0, #1
 8004102:	d1f3      	bne.n	80040ec <__sfputs_r+0xa>
 8004104:	bdf8      	pop	{r3, r4, r5, r6, r7, pc}
	...

08004108 <_vfiprintf_r>:
 8004108:	e92d 4ff0 	stmdb	sp!, {r4, r5, r6, r7, r8, r9, sl, fp, lr}
 800410c:	460d      	mov	r5, r1
 800410e:	b09d      	sub	sp, #116	; 0x74
 8004110:	4614      	mov	r4, r2
 8004112:	4698      	mov	r8, r3
 8004114:	4606      	mov	r6, r0
 8004116:	b118      	cbz	r0, 8004120 <_vfiprintf_r+0x18>
 8004118:	6a03      	ldr	r3, [r0, #32]
 800411a:	b90b      	cbnz	r3, 8004120 <_vfiprintf_r+0x18>
 800411c:	f7ff fcdc 	bl	8003ad8 <__sinit>
 8004120:	6e6b      	ldr	r3, [r5, #100]	; 0x64
 8004122:	07d9      	lsls	r1, r3, #31
 8004124:	d405      	bmi.n	8004132 <_vfiprintf_r+0x2a>
 8004126:	89ab      	ldrh	r3, [r5, #12]
 8004128:	059a      	lsls	r2, r3, #22
 800412a:	d402      	bmi.n	8004132 <_vfiprintf_r+0x2a>
 800412c:	6da8      	ldr	r0, [r5, #88]	; 0x58
 800412e:	f7ff fec7 	bl	8003ec0 <__retarget_lock_acquire_recursive>
 8004132:	89ab      	ldrh	r3, [r5, #12]
 8004134:	071b      	lsls	r3, r3, #28
 8004136:	d501      	bpl.n	800413c <_vfiprintf_r+0x34>
 8004138:	692b      	ldr	r3, [r5, #16]
 800413a:	b99b      	cbnz	r3, 8004164 <_vfiprintf_r+0x5c>
 800413c:	4629      	mov	r1, r5
 800413e:	4630      	mov	r0, r6
 8004140:	f7ff fdee 	bl	8003d20 <__swsetup_r>
 8004144:	b170      	cbz	r0, 8004164 <_vfiprintf_r+0x5c>
 8004146:	6e6b      	ldr	r3, [r5, #100]	; 0x64
 8004148:	07dc      	lsls	r4, r3, #31
 800414a:	d504      	bpl.n	8004156 <_vfiprintf_r+0x4e>
 800414c:	f04f 30ff 	mov.w	r0, #4294967295
 8004150:	b01d      	add	sp, #116	; 0x74
 8004152:	e8bd 8ff0 	ldmia.w	sp!, {r4, r5, r6, r7, r8, r9, sl, fp, pc}
 8004156:	89ab      	ldrh	r3, [r5, #12]
 8004158:	0598      	lsls	r0, r3, #22
 800415a:	d4f7      	bmi.n	800414c <_vfiprintf_r+0x44>
 800415c:	6da8      	ldr	r0, [r5, #88]	; 0x58
 800415e:	f7ff feb0 	bl	8003ec2 <__retarget_lock_release_recursive>
 8004162:	e7f3      	b.n	800414c <_vfiprintf_r+0x44>
 8004164:	2300      	movs	r3, #0
 8004166:	9309      	str	r3, [sp, #36]	; 0x24
 8004168:	2320      	movs	r3, #32
 800416a:	f88d 3029 	strb.w	r3, [sp, #41]	; 0x29
 800416e:	f8cd 800c 	str.w	r8, [sp, #12]
 8004172:	2330      	movs	r3, #48	; 0x30
 8004174:	f8df 81b0 	ldr.w	r8, [pc, #432]	; 8004328 <_vfiprintf_r+0x220>
 8004178:	f88d 302a 	strb.w	r3, [sp, #42]	; 0x2a
 800417c:	f04f 0901 	mov.w	r9, #1
 8004180:	4623      	mov	r3, r4
 8004182:	469a      	mov	sl, r3
 8004184:	f813 2b01 	ldrb.w	r2, [r3], #1
 8004188:	b10a      	cbz	r2, 800418e <_vfiprintf_r+0x86>
 800418a:	2a25      	cmp	r2, #37	; 0x25
 800418c:	d1f9      	bne.n	8004182 <_vfiprintf_r+0x7a>
 800418e:	ebba 0b04 	subs.w	fp, sl, r4
 8004192:	d00b      	beq.n	80041ac <_vfiprintf_r+0xa4>
 8004194:	465b      	mov	r3, fp
 8004196:	4622      	mov	r2, r4
 8004198:	4629      	mov	r1, r5
 800419a:	4630      	mov	r0, r6
 800419c:	f7ff ffa1 	bl	80040e2 <__sfputs_r>
 80041a0:	3001      	adds	r0, #1
 80041a2:	f000 80a9 	beq.w	80042f8 <_vfiprintf_r+0x1f0>
 80041a6:	9a09      	ldr	r2, [sp, #36]	; 0x24
 80041a8:	445a      	add	r2, fp
 80041aa:	9209      	str	r2, [sp, #36]	; 0x24
 80041ac:	f89a 3000 	ldrb.w	r3, [sl]
 80041b0:	2b00      	cmp	r3, #0
 80041b2:	f000 80a1 	beq.w	80042f8 <_vfiprintf_r+0x1f0>
 80041b6:	2300      	movs	r3, #0
 80041b8:	f04f 32ff 	mov.w	r2, #4294967295
 80041bc:	e9cd 2305 	strd	r2, r3, [sp, #20]
 80041c0:	f10a 0a01 	add.w	sl, sl, #1
 80041c4:	9304      	str	r3, [sp, #16]
 80041c6:	9307      	str	r3, [sp, #28]
 80041c8:	f88d 3053 	strb.w	r3, [sp, #83]	; 0x53
 80041cc:	931a      	str	r3, [sp, #104]	; 0x68
 80041ce:	4654      	mov	r4, sl
 80041d0:	2205      	movs	r2, #5
 80041d2:	f814 1b01 	ldrb.w	r1, [r4], #1
 80041d6:	4854      	ldr	r0, [pc, #336]	; (8004328 <_vfiprintf_r+0x220>)
 80041d8:	f7fb fffa 	bl	80001d0 <memchr>
 80041dc:	9a04      	ldr	r2, [sp, #16]
 80041de:	b9d8      	cbnz	r0, 8004218 <_vfiprintf_r+0x110>
 80041e0:	06d1      	lsls	r1, r2, #27
 80041e2:	bf44      	itt	mi
 80041e4:	2320      	movmi	r3, #32
 80041e6:	f88d 3053 	strbmi.w	r3, [sp, #83]	; 0x53
 80041ea:	0713      	lsls	r3, r2, #28
 80041ec:	bf44      	itt	mi
 80041ee:	232b      	movmi	r3, #43	; 0x2b
 80041f0:	f88d 3053 	strbmi.w	r3, [sp, #83]	; 0x53
 80041f4:	f89a 3000 	ldrb.w	r3, [sl]
 80041f8:	2b2a      	cmp	r3, #42	; 0x2a
 80041fa:	d015      	beq.n	8004228 <_vfiprintf_r+0x120>
 80041fc:	9a07      	ldr	r2, [sp, #28]
 80041fe:	4654      	mov	r4, sl
 8004200:	2000      	movs	r0, #0
 8004202:	f04f 0c0a 	mov.w	ip, #10
 8004206:	4621      	mov	r1, r4
 8004208:	f811 3b01 	ldrb.w	r3, [r1], #1
 800420c:	3b30      	subs	r3, #48	; 0x30
 800420e:	2b09      	cmp	r3, #9
 8004210:	d94d      	bls.n	80042ae <_vfiprintf_r+0x1a6>
 8004212:	b1b0      	cbz	r0, 8004242 <_vfiprintf_r+0x13a>
 8004214:	9207      	str	r2, [sp, #28]
 8004216:	e014      	b.n	8004242 <_vfiprintf_r+0x13a>
 8004218:	eba0 0308 	sub.w	r3, r0, r8
 800421c:	fa09 f303 	lsl.w	r3, r9, r3
 8004220:	4313      	orrs	r3, r2
 8004222:	9304      	str	r3, [sp, #16]
 8004224:	46a2      	mov	sl, r4
 8004226:	e7d2      	b.n	80041ce <_vfiprintf_r+0xc6>
 8004228:	9b03      	ldr	r3, [sp, #12]
 800422a:	1d19      	adds	r1, r3, #4
 800422c:	681b      	ldr	r3, [r3, #0]
 800422e:	9103      	str	r1, [sp, #12]
 8004230:	2b00      	cmp	r3, #0
 8004232:	bfbb      	ittet	lt
 8004234:	425b      	neglt	r3, r3
 8004236:	f042 0202 	orrlt.w	r2, r2, #2
 800423a:	9307      	strge	r3, [sp, #28]
 800423c:	9307      	strlt	r3, [sp, #28]
 800423e:	bfb8      	it	lt
 8004240:	9204      	strlt	r2, [sp, #16]
 8004242:	7823      	ldrb	r3, [r4, #0]
 8004244:	2b2e      	cmp	r3, #46	; 0x2e
 8004246:	d10c      	bne.n	8004262 <_vfiprintf_r+0x15a>
 8004248:	7863      	ldrb	r3, [r4, #1]
 800424a:	2b2a      	cmp	r3, #42	; 0x2a
 800424c:	d134      	bne.n	80042b8 <_vfiprintf_r+0x1b0>
 800424e:	9b03      	ldr	r3, [sp, #12]
 8004250:	1d1a      	adds	r2, r3, #4
 8004252:	681b      	ldr	r3, [r3, #0]
 8004254:	9203      	str	r2, [sp, #12]
 8004256:	2b00      	cmp	r3, #0
 8004258:	bfb8      	it	lt
 800425a:	f04f 33ff 	movlt.w	r3, #4294967295
 800425e:	3402      	adds	r4, #2
 8004260:	9305      	str	r3, [sp, #20]
 8004262:	f8df a0d4 	ldr.w	sl, [pc, #212]	; 8004338 <_vfiprintf_r+0x230>
 8004266:	7821      	ldrb	r1, [r4, #0]
 8004268:	2203      	movs	r2, #3
 800426a:	4650      	mov	r0, sl
 800426c:	f7fb ffb0 	bl	80001d0 <memchr>
 8004270:	b138      	cbz	r0, 8004282 <_vfiprintf_r+0x17a>
 8004272:	9b04      	ldr	r3, [sp, #16]
 8004274:	eba0 000a 	sub.w	r0, r0, sl
 8004278:	2240      	movs	r2, #64	; 0x40
 800427a:	4082      	lsls	r2, r0
 800427c:	4313      	orrs	r3, r2
 800427e:	3401      	adds	r4, #1
 8004280:	9304      	str	r3, [sp, #16]
 8004282:	f814 1b01 	ldrb.w	r1, [r4], #1
 8004286:	4829      	ldr	r0, [pc, #164]	; (800432c <_vfiprintf_r+0x224>)
 8004288:	f88d 1028 	strb.w	r1, [sp, #40]	; 0x28
 800428c:	2206      	movs	r2, #6
 800428e:	f7fb ff9f 	bl	80001d0 <memchr>
 8004292:	2800      	cmp	r0, #0
 8004294:	d03f      	beq.n	8004316 <_vfiprintf_r+0x20e>
 8004296:	4b26      	ldr	r3, [pc, #152]	; (8004330 <_vfiprintf_r+0x228>)
 8004298:	bb1b      	cbnz	r3, 80042e2 <_vfiprintf_r+0x1da>
 800429a:	9b03      	ldr	r3, [sp, #12]
 800429c:	3307      	adds	r3, #7
 800429e:	f023 0307 	bic.w	r3, r3, #7
 80042a2:	3308      	adds	r3, #8
 80042a4:	9303      	str	r3, [sp, #12]
 80042a6:	9b09      	ldr	r3, [sp, #36]	; 0x24
 80042a8:	443b      	add	r3, r7
 80042aa:	9309      	str	r3, [sp, #36]	; 0x24
 80042ac:	e768      	b.n	8004180 <_vfiprintf_r+0x78>
 80042ae:	fb0c 3202 	mla	r2, ip, r2, r3
 80042b2:	460c      	mov	r4, r1
 80042b4:	2001      	movs	r0, #1
 80042b6:	e7a6      	b.n	8004206 <_vfiprintf_r+0xfe>
 80042b8:	2300      	movs	r3, #0
 80042ba:	3401      	adds	r4, #1
 80042bc:	9305      	str	r3, [sp, #20]
 80042be:	4619      	mov	r1, r3
 80042c0:	f04f 0c0a 	mov.w	ip, #10
 80042c4:	4620      	mov	r0, r4
 80042c6:	f810 2b01 	ldrb.w	r2, [r0], #1
 80042ca:	3a30      	subs	r2, #48	; 0x30
 80042cc:	2a09      	cmp	r2, #9
 80042ce:	d903      	bls.n	80042d8 <_vfiprintf_r+0x1d0>
 80042d0:	2b00      	cmp	r3, #0
 80042d2:	d0c6      	beq.n	8004262 <_vfiprintf_r+0x15a>
 80042d4:	9105      	str	r1, [sp, #20]
 80042d6:	e7c4      	b.n	8004262 <_vfiprintf_r+0x15a>
 80042d8:	fb0c 2101 	mla	r1, ip, r1, r2
 80042dc:	4604      	mov	r4, r0
 80042de:	2301      	movs	r3, #1
 80042e0:	e7f0      	b.n	80042c4 <_vfiprintf_r+0x1bc>
 80042e2:	ab03      	add	r3, sp, #12
 80042e4:	9300      	str	r3, [sp, #0]
 80042e6:	462a      	mov	r2, r5
 80042e8:	4b12      	ldr	r3, [pc, #72]	; (8004334 <_vfiprintf_r+0x22c>)
 80042ea:	a904      	add	r1, sp, #16
 80042ec:	4630      	mov	r0, r6
 80042ee:	f3af 8000 	nop.w
 80042f2:	4607      	mov	r7, r0
 80042f4:	1c78      	adds	r0, r7, #1
 80042f6:	d1d6      	bne.n	80042a6 <_vfiprintf_r+0x19e>
 80042f8:	6e6b      	ldr	r3, [r5, #100]	; 0x64
 80042fa:	07d9      	lsls	r1, r3, #31
 80042fc:	d405      	bmi.n	800430a <_vfiprintf_r+0x202>
 80042fe:	89ab      	ldrh	r3, [r5, #12]
 8004300:	059a      	lsls	r2, r3, #22
 8004302:	d402      	bmi.n	800430a <_vfiprintf_r+0x202>
 8004304:	6da8      	ldr	r0, [r5, #88]	; 0x58
 8004306:	f7ff fddc 	bl	8003ec2 <__retarget_lock_release_recursive>
 800430a:	89ab      	ldrh	r3, [r5, #12]
 800430c:	065b      	lsls	r3, r3, #25
 800430e:	f53f af1d 	bmi.w	800414c <_vfiprintf_r+0x44>
 8004312:	9809      	ldr	r0, [sp, #36]	; 0x24
 8004314:	e71c      	b.n	8004150 <_vfiprintf_r+0x48>
 8004316:	ab03      	add	r3, sp, #12
 8004318:	9300      	str	r3, [sp, #0]
 800431a:	462a      	mov	r2, r5
 800431c:	4b05      	ldr	r3, [pc, #20]	; (8004334 <_vfiprintf_r+0x22c>)
 800431e:	a904      	add	r1, sp, #16
 8004320:	4630      	mov	r0, r6
 8004322:	f000 f879 	bl	8004418 <_printf_i>
 8004326:	e7e4      	b.n	80042f2 <_vfiprintf_r+0x1ea>
 8004328:	08005c63 	.word	0x08005c63
 800432c:	08005c6d 	.word	0x08005c6d
 8004330:	00000000 	.word	0x00000000
 8004334:	080040e3 	.word	0x080040e3
 8004338:	08005c69 	.word	0x08005c69

0800433c <_printf_common>:
 800433c:	e92d 47f0 	stmdb	sp!, {r4, r5, r6, r7, r8, r9, sl, lr}
 8004340:	4616      	mov	r6, r2
 8004342:	4699      	mov	r9, r3
 8004344:	688a      	ldr	r2, [r1, #8]
 8004346:	690b      	ldr	r3, [r1, #16]
 8004348:	f8dd 8020 	ldr.w	r8, [sp, #32]
 800434c:	4293      	cmp	r3, r2
 800434e:	bfb8      	it	lt
 8004350:	4613      	movlt	r3, r2
 8004352:	6033      	str	r3, [r6, #0]
 8004354:	f891 2043 	ldrb.w	r2, [r1, #67]	; 0x43
 8004358:	4607      	mov	r7, r0
 800435a:	460c      	mov	r4, r1
 800435c:	b10a      	cbz	r2, 8004362 <_printf_common+0x26>
 800435e:	3301      	adds	r3, #1
 8004360:	6033      	str	r3, [r6, #0]
 8004362:	6823      	ldr	r3, [r4, #0]
 8004364:	0699      	lsls	r1, r3, #26
 8004366:	bf42      	ittt	mi
 8004368:	6833      	ldrmi	r3, [r6, #0]
 800436a:	3302      	addmi	r3, #2
 800436c:	6033      	strmi	r3, [r6, #0]
 800436e:	6825      	ldr	r5, [r4, #0]
 8004370:	f015 0506 	ands.w	r5, r5, #6
 8004374:	d106      	bne.n	8004384 <_printf_common+0x48>
 8004376:	f104 0a19 	add.w	sl, r4, #25
 800437a:	68e3      	ldr	r3, [r4, #12]
 800437c:	6832      	ldr	r2, [r6, #0]
 800437e:	1a9b      	subs	r3, r3, r2
 8004380:	42ab      	cmp	r3, r5
 8004382:	dc26      	bgt.n	80043d2 <_printf_common+0x96>
 8004384:	f894 2043 	ldrb.w	r2, [r4, #67]	; 0x43
 8004388:	1e13      	subs	r3, r2, #0
 800438a:	6822      	ldr	r2, [r4, #0]
 800438c:	bf18      	it	ne
 800438e:	2301      	movne	r3, #1
 8004390:	0692      	lsls	r2, r2, #26
 8004392:	d42b      	bmi.n	80043ec <_printf_common+0xb0>
 8004394:	f104 0243 	add.w	r2, r4, #67	; 0x43
 8004398:	4649      	mov	r1, r9
 800439a:	4638      	mov	r0, r7
 800439c:	47c0      	blx	r8
 800439e:	3001      	adds	r0, #1
 80043a0:	d01e      	beq.n	80043e0 <_printf_common+0xa4>
 80043a2:	6823      	ldr	r3, [r4, #0]
 80043a4:	6922      	ldr	r2, [r4, #16]
 80043a6:	f003 0306 	and.w	r3, r3, #6
 80043aa:	2b04      	cmp	r3, #4
 80043ac:	bf02      	ittt	eq
 80043ae:	68e5      	ldreq	r5, [r4, #12]
 80043b0:	6833      	ldreq	r3, [r6, #0]
 80043b2:	1aed      	subeq	r5, r5, r3
 80043b4:	68a3      	ldr	r3, [r4, #8]
 80043b6:	bf0c      	ite	eq
 80043b8:	ea25 75e5 	biceq.w	r5, r5, r5, asr #31
 80043bc:	2500      	movne	r5, #0
 80043be:	4293      	cmp	r3, r2
 80043c0:	bfc4      	itt	gt
 80043c2:	1a9b      	subgt	r3, r3, r2
 80043c4:	18ed      	addgt	r5, r5, r3
 80043c6:	2600      	movs	r6, #0
 80043c8:	341a      	adds	r4, #26
 80043ca:	42b5      	cmp	r5, r6
 80043cc:	d11a      	bne.n	8004404 <_printf_common+0xc8>
 80043ce:	2000      	movs	r0, #0
 80043d0:	e008      	b.n	80043e4 <_printf_common+0xa8>
 80043d2:	2301      	movs	r3, #1
 80043d4:	4652      	mov	r2, sl
 80043d6:	4649      	mov	r1, r9
 80043d8:	4638      	mov	r0, r7
 80043da:	47c0      	blx	r8
 80043dc:	3001      	adds	r0, #1
 80043de:	d103      	bne.n	80043e8 <_printf_common+0xac>
 80043e0:	f04f 30ff 	mov.w	r0, #4294967295
 80043e4:	e8bd 87f0 	ldmia.w	sp!, {r4, r5, r6, r7, r8, r9, sl, pc}
 80043e8:	3501      	adds	r5, #1
 80043ea:	e7c6      	b.n	800437a <_printf_common+0x3e>
 80043ec:	18e1      	adds	r1, r4, r3
 80043ee:	1c5a      	adds	r2, r3, #1
 80043f0:	2030      	movs	r0, #48	; 0x30
 80043f2:	f881 0043 	strb.w	r0, [r1, #67]	; 0x43
 80043f6:	4422      	add	r2, r4
 80043f8:	f894 1045 	ldrb.w	r1, [r4, #69]	; 0x45
 80043fc:	f882 1043 	strb.w	r1, [r2, #67]	; 0x43
 8004400:	3302      	adds	r3, #2
 8004402:	e7c7      	b.n	8004394 <_printf_common+0x58>
 8004404:	2301      	movs	r3, #1
 8004406:	4622      	mov	r2, r4
 8004408:	4649      	mov	r1, r9
 800440a:	4638      	mov	r0, r7
 800440c:	47c0      	blx	r8
 800440e:	3001      	adds	r0, #1
 8004410:	d0e6      	beq.n	80043e0 <_printf_common+0xa4>
 8004412:	3601      	adds	r6, #1
 8004414:	e7d9      	b.n	80043ca <_printf_common+0x8e>
	...

08004418 <_printf_i>:
 8004418:	e92d 47ff 	stmdb	sp!, {r0, r1, r2, r3, r4, r5, r6, r7, r8, r9, sl, lr}
 800441c:	7e0f      	ldrb	r7, [r1, #24]
 800441e:	9d0c      	ldr	r5, [sp, #48]	; 0x30
 8004420:	2f78      	cmp	r7, #120	; 0x78
 8004422:	4691      	mov	r9, r2
 8004424:	4680      	mov	r8, r0
 8004426:	460c      	mov	r4, r1
 8004428:	469a      	mov	sl, r3
 800442a:	f101 0243 	add.w	r2, r1, #67	; 0x43
 800442e:	d807      	bhi.n	8004440 <_printf_i+0x28>
 8004430:	2f62      	cmp	r7, #98	; 0x62
 8004432:	d80a      	bhi.n	800444a <_printf_i+0x32>
 8004434:	2f00      	cmp	r7, #0
 8004436:	f000 80d4 	beq.w	80045e2 <_printf_i+0x1ca>
 800443a:	2f58      	cmp	r7, #88	; 0x58
 800443c:	f000 80c0 	beq.w	80045c0 <_printf_i+0x1a8>
 8004440:	f104 0542 	add.w	r5, r4, #66	; 0x42
 8004444:	f884 7042 	strb.w	r7, [r4, #66]	; 0x42
 8004448:	e03a      	b.n	80044c0 <_printf_i+0xa8>
 800444a:	f1a7 0363 	sub.w	r3, r7, #99	; 0x63
 800444e:	2b15      	cmp	r3, #21
 8004450:	d8f6      	bhi.n	8004440 <_printf_i+0x28>
 8004452:	a101      	add	r1, pc, #4	; (adr r1, 8004458 <_printf_i+0x40>)
 8004454:	f851 f023 	ldr.w	pc, [r1, r3, lsl #2]
 8004458:	080044b1 	.word	0x080044b1
 800445c:	080044c5 	.word	0x080044c5
 8004460:	08004441 	.word	0x08004441
 8004464:	08004441 	.word	0x08004441
 8004468:	08004441 	.word	0x08004441
 800446c:	08004441 	.word	0x08004441
 8004470:	080044c5 	.word	0x080044c5
 8004474:	08004441 	.word	0x08004441
 8004478:	08004441 	.word	0x08004441
 800447c:	08004441 	.word	0x08004441
 8004480:	08004441 	.word	0x08004441
 8004484:	080045c9 	.word	0x080045c9
 8004488:	080044f1 	.word	0x080044f1
 800448c:	08004583 	.word	0x08004583
 8004490:	08004441 	.word	0x08004441
 8004494:	08004441 	.word	0x08004441
 8004498:	080045eb 	.word	0x080045eb
 800449c:	08004441 	.word	0x08004441
 80044a0:	080044f1 	.word	0x080044f1
 80044a4:	08004441 	.word	0x08004441
 80044a8:	08004441 	.word	0x08004441
 80044ac:	0800458b 	.word	0x0800458b
 80044b0:	682b      	ldr	r3, [r5, #0]
 80044b2:	1d1a      	adds	r2, r3, #4
 80044b4:	681b      	ldr	r3, [r3, #0]
 80044b6:	602a      	str	r2, [r5, #0]
 80044b8:	f104 0542 	add.w	r5, r4, #66	; 0x42
 80044bc:	f884 3042 	strb.w	r3, [r4, #66]	; 0x42
 80044c0:	2301      	movs	r3, #1
 80044c2:	e09f      	b.n	8004604 <_printf_i+0x1ec>
 80044c4:	6820      	ldr	r0, [r4, #0]
 80044c6:	682b      	ldr	r3, [r5, #0]
 80044c8:	0607      	lsls	r7, r0, #24
 80044ca:	f103 0104 	add.w	r1, r3, #4
 80044ce:	6029      	str	r1, [r5, #0]
 80044d0:	d501      	bpl.n	80044d6 <_printf_i+0xbe>
 80044d2:	681e      	ldr	r6, [r3, #0]
 80044d4:	e003      	b.n	80044de <_printf_i+0xc6>
 80044d6:	0646      	lsls	r6, r0, #25
 80044d8:	d5fb      	bpl.n	80044d2 <_printf_i+0xba>
 80044da:	f9b3 6000 	ldrsh.w	r6, [r3]
 80044de:	2e00      	cmp	r6, #0
 80044e0:	da03      	bge.n	80044ea <_printf_i+0xd2>
 80044e2:	232d      	movs	r3, #45	; 0x2d
 80044e4:	4276      	negs	r6, r6
 80044e6:	f884 3043 	strb.w	r3, [r4, #67]	; 0x43
 80044ea:	485a      	ldr	r0, [pc, #360]	; (8004654 <_printf_i+0x23c>)
 80044ec:	230a      	movs	r3, #10
 80044ee:	e012      	b.n	8004516 <_printf_i+0xfe>
 80044f0:	682b      	ldr	r3, [r5, #0]
 80044f2:	6820      	ldr	r0, [r4, #0]
 80044f4:	1d19      	adds	r1, r3, #4
 80044f6:	6029      	str	r1, [r5, #0]
 80044f8:	0605      	lsls	r5, r0, #24
 80044fa:	d501      	bpl.n	8004500 <_printf_i+0xe8>
 80044fc:	681e      	ldr	r6, [r3, #0]
 80044fe:	e002      	b.n	8004506 <_printf_i+0xee>
 8004500:	0641      	lsls	r1, r0, #25
 8004502:	d5fb      	bpl.n	80044fc <_printf_i+0xe4>
 8004504:	881e      	ldrh	r6, [r3, #0]
 8004506:	4853      	ldr	r0, [pc, #332]	; (8004654 <_printf_i+0x23c>)
 8004508:	2f6f      	cmp	r7, #111	; 0x6f
 800450a:	bf0c      	ite	eq
 800450c:	2308      	moveq	r3, #8
 800450e:	230a      	movne	r3, #10
 8004510:	2100      	movs	r1, #0
 8004512:	f884 1043 	strb.w	r1, [r4, #67]	; 0x43
 8004516:	6865      	ldr	r5, [r4, #4]
 8004518:	60a5      	str	r5, [r4, #8]
 800451a:	2d00      	cmp	r5, #0
 800451c:	bfa2      	ittt	ge
 800451e:	6821      	ldrge	r1, [r4, #0]
 8004520:	f021 0104 	bicge.w	r1, r1, #4
 8004524:	6021      	strge	r1, [r4, #0]
 8004526:	b90e      	cbnz	r6, 800452c <_printf_i+0x114>
 8004528:	2d00      	cmp	r5, #0
 800452a:	d04b      	beq.n	80045c4 <_printf_i+0x1ac>
 800452c:	4615      	mov	r5, r2
 800452e:	fbb6 f1f3 	udiv	r1, r6, r3
 8004532:	fb03 6711 	mls	r7, r3, r1, r6
 8004536:	5dc7      	ldrb	r7, [r0, r7]
 8004538:	f805 7d01 	strb.w	r7, [r5, #-1]!
 800453c:	4637      	mov	r7, r6
 800453e:	42bb      	cmp	r3, r7
 8004540:	460e      	mov	r6, r1
 8004542:	d9f4      	bls.n	800452e <_printf_i+0x116>
 8004544:	2b08      	cmp	r3, #8
 8004546:	d10b      	bne.n	8004560 <_printf_i+0x148>
 8004548:	6823      	ldr	r3, [r4, #0]
 800454a:	07de      	lsls	r6, r3, #31
 800454c:	d508      	bpl.n	8004560 <_printf_i+0x148>
 800454e:	6923      	ldr	r3, [r4, #16]
 8004550:	6861      	ldr	r1, [r4, #4]
 8004552:	4299      	cmp	r1, r3
 8004554:	bfde      	ittt	le
 8004556:	2330      	movle	r3, #48	; 0x30
 8004558:	f805 3c01 	strble.w	r3, [r5, #-1]
 800455c:	f105 35ff 	addle.w	r5, r5, #4294967295
 8004560:	1b52      	subs	r2, r2, r5
 8004562:	6122      	str	r2, [r4, #16]
 8004564:	f8cd a000 	str.w	sl, [sp]
 8004568:	464b      	mov	r3, r9
 800456a:	aa03      	add	r2, sp, #12
 800456c:	4621      	mov	r1, r4
 800456e:	4640      	mov	r0, r8
 8004570:	f7ff fee4 	bl	800433c <_printf_common>
 8004574:	3001      	adds	r0, #1
 8004576:	d14a      	bne.n	800460e <_printf_i+0x1f6>
 8004578:	f04f 30ff 	mov.w	r0, #4294967295
 800457c:	b004      	add	sp, #16
 800457e:	e8bd 87f0 	ldmia.w	sp!, {r4, r5, r6, r7, r8, r9, sl, pc}
 8004582:	6823      	ldr	r3, [r4, #0]
 8004584:	f043 0320 	orr.w	r3, r3, #32
 8004588:	6023      	str	r3, [r4, #0]
 800458a:	4833      	ldr	r0, [pc, #204]	; (8004658 <_printf_i+0x240>)
 800458c:	2778      	movs	r7, #120	; 0x78
 800458e:	f884 7045 	strb.w	r7, [r4, #69]	; 0x45
 8004592:	6823      	ldr	r3, [r4, #0]
 8004594:	6829      	ldr	r1, [r5, #0]
 8004596:	061f      	lsls	r7, r3, #24
 8004598:	f851 6b04 	ldr.w	r6, [r1], #4
 800459c:	d402      	bmi.n	80045a4 <_printf_i+0x18c>
 800459e:	065f      	lsls	r7, r3, #25
 80045a0:	bf48      	it	mi
 80045a2:	b2b6      	uxthmi	r6, r6
 80045a4:	07df      	lsls	r7, r3, #31
 80045a6:	bf48      	it	mi
 80045a8:	f043 0320 	orrmi.w	r3, r3, #32
 80045ac:	6029      	str	r1, [r5, #0]
 80045ae:	bf48      	it	mi
 80045b0:	6023      	strmi	r3, [r4, #0]
 80045b2:	b91e      	cbnz	r6, 80045bc <_printf_i+0x1a4>
 80045b4:	6823      	ldr	r3, [r4, #0]
 80045b6:	f023 0320 	bic.w	r3, r3, #32
 80045ba:	6023      	str	r3, [r4, #0]
 80045bc:	2310      	movs	r3, #16
 80045be:	e7a7      	b.n	8004510 <_printf_i+0xf8>
 80045c0:	4824      	ldr	r0, [pc, #144]	; (8004654 <_printf_i+0x23c>)
 80045c2:	e7e4      	b.n	800458e <_printf_i+0x176>
 80045c4:	4615      	mov	r5, r2
 80045c6:	e7bd      	b.n	8004544 <_printf_i+0x12c>
 80045c8:	682b      	ldr	r3, [r5, #0]
 80045ca:	6826      	ldr	r6, [r4, #0]
 80045cc:	6961      	ldr	r1, [r4, #20]
 80045ce:	1d18      	adds	r0, r3, #4
 80045d0:	6028      	str	r0, [r5, #0]
 80045d2:	0635      	lsls	r5, r6, #24
 80045d4:	681b      	ldr	r3, [r3, #0]
 80045d6:	d501      	bpl.n	80045dc <_printf_i+0x1c4>
 80045d8:	6019      	str	r1, [r3, #0]
 80045da:	e002      	b.n	80045e2 <_printf_i+0x1ca>
 80045dc:	0670      	lsls	r0, r6, #25
 80045de:	d5fb      	bpl.n	80045d8 <_printf_i+0x1c0>
 80045e0:	8019      	strh	r1, [r3, #0]
 80045e2:	2300      	movs	r3, #0
 80045e4:	6123      	str	r3, [r4, #16]
 80045e6:	4615      	mov	r5, r2
 80045e8:	e7bc      	b.n	8004564 <_printf_i+0x14c>
 80045ea:	682b      	ldr	r3, [r5, #0]
 80045ec:	1d1a      	adds	r2, r3, #4
 80045ee:	602a      	str	r2, [r5, #0]
 80045f0:	681d      	ldr	r5, [r3, #0]
 80045f2:	6862      	ldr	r2, [r4, #4]
 80045f4:	2100      	movs	r1, #0
 80045f6:	4628      	mov	r0, r5
 80045f8:	f7fb fdea 	bl	80001d0 <memchr>
 80045fc:	b108      	cbz	r0, 8004602 <_printf_i+0x1ea>
 80045fe:	1b40      	subs	r0, r0, r5
 8004600:	6060      	str	r0, [r4, #4]
 8004602:	6863      	ldr	r3, [r4, #4]
 8004604:	6123      	str	r3, [r4, #16]
 8004606:	2300      	movs	r3, #0
 8004608:	f884 3043 	strb.w	r3, [r4, #67]	; 0x43
 800460c:	e7aa      	b.n	8004564 <_printf_i+0x14c>
 800460e:	6923      	ldr	r3, [r4, #16]
 8004610:	462a      	mov	r2, r5
 8004612:	4649      	mov	r1, r9
 8004614:	4640      	mov	r0, r8
 8004616:	47d0      	blx	sl
 8004618:	3001      	adds	r0, #1
 800461a:	d0ad      	beq.n	8004578 <_printf_i+0x160>
 800461c:	6823      	ldr	r3, [r4, #0]
 800461e:	079b      	lsls	r3, r3, #30
 8004620:	d413      	bmi.n	800464a <_printf_i+0x232>
 8004622:	68e0      	ldr	r0, [r4, #12]
 8004624:	9b03      	ldr	r3, [sp, #12]
 8004626:	4298      	cmp	r0, r3
 8004628:	bfb8      	it	lt
 800462a:	4618      	movlt	r0, r3
 800462c:	e7a6      	b.n	800457c <_printf_i+0x164>
 800462e:	2301      	movs	r3, #1
 8004630:	4632      	mov	r2, r6
 8004632:	4649      	mov	r1, r9
 8004634:	4640      	mov	r0, r8
 8004636:	47d0      	blx	sl
 8004638:	3001      	adds	r0, #1
 800463a:	d09d      	beq.n	8004578 <_printf_i+0x160>
 800463c:	3501      	adds	r5, #1
 800463e:	68e3      	ldr	r3, [r4, #12]
 8004640:	9903      	ldr	r1, [sp, #12]
 8004642:	1a5b      	subs	r3, r3, r1
 8004644:	42ab      	cmp	r3, r5
 8004646:	dcf2      	bgt.n	800462e <_printf_i+0x216>
 8004648:	e7eb      	b.n	8004622 <_printf_i+0x20a>
 800464a:	2500      	movs	r5, #0
 800464c:	f104 0619 	add.w	r6, r4, #25
 8004650:	e7f5      	b.n	800463e <_printf_i+0x226>
 8004652:	bf00      	nop
 8004654:	08005c74 	.word	0x08005c74
 8004658:	08005c85 	.word	0x08005c85

0800465c <__sflush_r>:
 800465c:	898a      	ldrh	r2, [r1, #12]
 800465e:	e92d 41f0 	stmdb	sp!, {r4, r5, r6, r7, r8, lr}
 8004662:	4605      	mov	r5, r0
 8004664:	0710      	lsls	r0, r2, #28
 8004666:	460c      	mov	r4, r1
 8004668:	d458      	bmi.n	800471c <__sflush_r+0xc0>
 800466a:	684b      	ldr	r3, [r1, #4]
 800466c:	2b00      	cmp	r3, #0
 800466e:	dc05      	bgt.n	800467c <__sflush_r+0x20>
 8004670:	6c0b      	ldr	r3, [r1, #64]	; 0x40
 8004672:	2b00      	cmp	r3, #0
 8004674:	dc02      	bgt.n	800467c <__sflush_r+0x20>
 8004676:	2000      	movs	r0, #0
 8004678:	e8bd 81f0 	ldmia.w	sp!, {r4, r5, r6, r7, r8, pc}
 800467c:	6ae6      	ldr	r6, [r4, #44]	; 0x2c
 800467e:	2e00      	cmp	r6, #0
 8004680:	d0f9      	beq.n	8004676 <__sflush_r+0x1a>
 8004682:	2300      	movs	r3, #0
 8004684:	f412 5280 	ands.w	r2, r2, #4096	; 0x1000
 8004688:	682f      	ldr	r7, [r5, #0]
 800468a:	6a21      	ldr	r1, [r4, #32]
 800468c:	602b      	str	r3, [r5, #0]
 800468e:	d032      	beq.n	80046f6 <__sflush_r+0x9a>
 8004690:	6d60      	ldr	r0, [r4, #84]	; 0x54
 8004692:	89a3      	ldrh	r3, [r4, #12]
 8004694:	075a      	lsls	r2, r3, #29
 8004696:	d505      	bpl.n	80046a4 <__sflush_r+0x48>
 8004698:	6863      	ldr	r3, [r4, #4]
 800469a:	1ac0      	subs	r0, r0, r3
 800469c:	6b63      	ldr	r3, [r4, #52]	; 0x34
 800469e:	b10b      	cbz	r3, 80046a4 <__sflush_r+0x48>
 80046a0:	6c23      	ldr	r3, [r4, #64]	; 0x40
 80046a2:	1ac0      	subs	r0, r0, r3
 80046a4:	2300      	movs	r3, #0
 80046a6:	4602      	mov	r2, r0
 80046a8:	6ae6      	ldr	r6, [r4, #44]	; 0x2c
 80046aa:	6a21      	ldr	r1, [r4, #32]
 80046ac:	4628      	mov	r0, r5
 80046ae:	47b0      	blx	r6
 80046b0:	1c43      	adds	r3, r0, #1
 80046b2:	89a3      	ldrh	r3, [r4, #12]
 80046b4:	d106      	bne.n	80046c4 <__sflush_r+0x68>
 80046b6:	6829      	ldr	r1, [r5, #0]
 80046b8:	291d      	cmp	r1, #29
 80046ba:	d82b      	bhi.n	8004714 <__sflush_r+0xb8>
 80046bc:	4a29      	ldr	r2, [pc, #164]	; (8004764 <__sflush_r+0x108>)
 80046be:	410a      	asrs	r2, r1
 80046c0:	07d6      	lsls	r6, r2, #31
 80046c2:	d427      	bmi.n	8004714 <__sflush_r+0xb8>
 80046c4:	2200      	movs	r2, #0
 80046c6:	6062      	str	r2, [r4, #4]
 80046c8:	04d9      	lsls	r1, r3, #19
 80046ca:	6922      	ldr	r2, [r4, #16]
 80046cc:	6022      	str	r2, [r4, #0]
 80046ce:	d504      	bpl.n	80046da <__sflush_r+0x7e>
 80046d0:	1c42      	adds	r2, r0, #1
 80046d2:	d101      	bne.n	80046d8 <__sflush_r+0x7c>
 80046d4:	682b      	ldr	r3, [r5, #0]
 80046d6:	b903      	cbnz	r3, 80046da <__sflush_r+0x7e>
 80046d8:	6560      	str	r0, [r4, #84]	; 0x54
 80046da:	6b61      	ldr	r1, [r4, #52]	; 0x34
 80046dc:	602f      	str	r7, [r5, #0]
 80046de:	2900      	cmp	r1, #0
 80046e0:	d0c9      	beq.n	8004676 <__sflush_r+0x1a>
 80046e2:	f104 0344 	add.w	r3, r4, #68	; 0x44
 80046e6:	4299      	cmp	r1, r3
 80046e8:	d002      	beq.n	80046f0 <__sflush_r+0x94>
 80046ea:	4628      	mov	r0, r5
 80046ec:	f7ff fbea 	bl	8003ec4 <_free_r>
 80046f0:	2000      	movs	r0, #0
 80046f2:	6360      	str	r0, [r4, #52]	; 0x34
 80046f4:	e7c0      	b.n	8004678 <__sflush_r+0x1c>
 80046f6:	2301      	movs	r3, #1
 80046f8:	4628      	mov	r0, r5
 80046fa:	47b0      	blx	r6
 80046fc:	1c41      	adds	r1, r0, #1
 80046fe:	d1c8      	bne.n	8004692 <__sflush_r+0x36>
 8004700:	682b      	ldr	r3, [r5, #0]
 8004702:	2b00      	cmp	r3, #0
 8004704:	d0c5      	beq.n	8004692 <__sflush_r+0x36>
 8004706:	2b1d      	cmp	r3, #29
 8004708:	d001      	beq.n	800470e <__sflush_r+0xb2>
 800470a:	2b16      	cmp	r3, #22
 800470c:	d101      	bne.n	8004712 <__sflush_r+0xb6>
 800470e:	602f      	str	r7, [r5, #0]
 8004710:	e7b1      	b.n	8004676 <__sflush_r+0x1a>
 8004712:	89a3      	ldrh	r3, [r4, #12]
 8004714:	f043 0340 	orr.w	r3, r3, #64	; 0x40
 8004718:	81a3      	strh	r3, [r4, #12]
 800471a:	e7ad      	b.n	8004678 <__sflush_r+0x1c>
 800471c:	690f      	ldr	r7, [r1, #16]
 800471e:	2f00      	cmp	r7, #0
 8004720:	d0a9      	beq.n	8004676 <__sflush_r+0x1a>
 8004722:	0793      	lsls	r3, r2, #30
 8004724:	680e      	ldr	r6, [r1, #0]
 8004726:	bf08      	it	eq
 8004728:	694b      	ldreq	r3, [r1, #20]
 800472a:	600f      	str	r7, [r1, #0]
 800472c:	bf18      	it	ne
 800472e:	2300      	movne	r3, #0
 8004730:	eba6 0807 	sub.w	r8, r6, r7
 8004734:	608b      	str	r3, [r1, #8]
 8004736:	f1b8 0f00 	cmp.w	r8, #0
 800473a:	dd9c      	ble.n	8004676 <__sflush_r+0x1a>
 800473c:	6a21      	ldr	r1, [r4, #32]
 800473e:	6aa6      	ldr	r6, [r4, #40]	; 0x28
 8004740:	4643      	mov	r3, r8
 8004742:	463a      	mov	r2, r7
 8004744:	4628      	mov	r0, r5
 8004746:	47b0      	blx	r6
 8004748:	2800      	cmp	r0, #0
 800474a:	dc06      	bgt.n	800475a <__sflush_r+0xfe>
 800474c:	89a3      	ldrh	r3, [r4, #12]
 800474e:	f043 0340 	orr.w	r3, r3, #64	; 0x40
 8004752:	81a3      	strh	r3, [r4, #12]
 8004754:	f04f 30ff 	mov.w	r0, #4294967295
 8004758:	e78e      	b.n	8004678 <__sflush_r+0x1c>
 800475a:	4407      	add	r7, r0
 800475c:	eba8 0800 	sub.w	r8, r8, r0
 8004760:	e7e9      	b.n	8004736 <__sflush_r+0xda>
 8004762:	bf00      	nop
 8004764:	dfbffffe 	.word	0xdfbffffe

08004768 <_fflush_r>:
 8004768:	b538      	push	{r3, r4, r5, lr}
 800476a:	690b      	ldr	r3, [r1, #16]
 800476c:	4605      	mov	r5, r0
 800476e:	460c      	mov	r4, r1
 8004770:	b913      	cbnz	r3, 8004778 <_fflush_r+0x10>
 8004772:	2500      	movs	r5, #0
 8004774:	4628      	mov	r0, r5
 8004776:	bd38      	pop	{r3, r4, r5, pc}
 8004778:	b118      	cbz	r0, 8004782 <_fflush_r+0x1a>
 800477a:	6a03      	ldr	r3, [r0, #32]
 800477c:	b90b      	cbnz	r3, 8004782 <_fflush_r+0x1a>
 800477e:	f7ff f9ab 	bl	8003ad8 <__sinit>
 8004782:	f9b4 300c 	ldrsh.w	r3, [r4, #12]
 8004786:	2b00      	cmp	r3, #0
 8004788:	d0f3      	beq.n	8004772 <_fflush_r+0xa>
 800478a:	6e62      	ldr	r2, [r4, #100]	; 0x64
 800478c:	07d0      	lsls	r0, r2, #31
 800478e:	d404      	bmi.n	800479a <_fflush_r+0x32>
 8004790:	0599      	lsls	r1, r3, #22
 8004792:	d402      	bmi.n	800479a <_fflush_r+0x32>
 8004794:	6da0      	ldr	r0, [r4, #88]	; 0x58
 8004796:	f7ff fb93 	bl	8003ec0 <__retarget_lock_acquire_recursive>
 800479a:	4628      	mov	r0, r5
 800479c:	4621      	mov	r1, r4
 800479e:	f7ff ff5d 	bl	800465c <__sflush_r>
 80047a2:	6e63      	ldr	r3, [r4, #100]	; 0x64
 80047a4:	07da      	lsls	r2, r3, #31
 80047a6:	4605      	mov	r5, r0
 80047a8:	d4e4      	bmi.n	8004774 <_fflush_r+0xc>
 80047aa:	89a3      	ldrh	r3, [r4, #12]
 80047ac:	059b      	lsls	r3, r3, #22
 80047ae:	d4e1      	bmi.n	8004774 <_fflush_r+0xc>
 80047b0:	6da0      	ldr	r0, [r4, #88]	; 0x58
 80047b2:	f7ff fb86 	bl	8003ec2 <__retarget_lock_release_recursive>
 80047b6:	e7dd      	b.n	8004774 <_fflush_r+0xc>

080047b8 <__swhatbuf_r>:
 80047b8:	b570      	push	{r4, r5, r6, lr}
 80047ba:	460c      	mov	r4, r1
 80047bc:	f9b1 100e 	ldrsh.w	r1, [r1, #14]
 80047c0:	2900      	cmp	r1, #0
 80047c2:	b096      	sub	sp, #88	; 0x58
 80047c4:	4615      	mov	r5, r2
 80047c6:	461e      	mov	r6, r3
 80047c8:	da0d      	bge.n	80047e6 <__swhatbuf_r+0x2e>
 80047ca:	89a3      	ldrh	r3, [r4, #12]
 80047cc:	f013 0f80 	tst.w	r3, #128	; 0x80
 80047d0:	f04f 0100 	mov.w	r1, #0
 80047d4:	bf0c      	ite	eq
 80047d6:	f44f 6380 	moveq.w	r3, #1024	; 0x400
 80047da:	2340      	movne	r3, #64	; 0x40
 80047dc:	2000      	movs	r0, #0
 80047de:	6031      	str	r1, [r6, #0]
 80047e0:	602b      	str	r3, [r5, #0]
 80047e2:	b016      	add	sp, #88	; 0x58
 80047e4:	bd70      	pop	{r4, r5, r6, pc}
 80047e6:	466a      	mov	r2, sp
 80047e8:	f000 f848 	bl	800487c <_fstat_r>
 80047ec:	2800      	cmp	r0, #0
 80047ee:	dbec      	blt.n	80047ca <__swhatbuf_r+0x12>
 80047f0:	9901      	ldr	r1, [sp, #4]
 80047f2:	f401 4170 	and.w	r1, r1, #61440	; 0xf000
 80047f6:	f5a1 5300 	sub.w	r3, r1, #8192	; 0x2000
 80047fa:	4259      	negs	r1, r3
 80047fc:	4159      	adcs	r1, r3
 80047fe:	f44f 6380 	mov.w	r3, #1024	; 0x400
 8004802:	e7eb      	b.n	80047dc <__swhatbuf_r+0x24>

08004804 <__smakebuf_r>:
 8004804:	898b      	ldrh	r3, [r1, #12]
 8004806:	b573      	push	{r0, r1, r4, r5, r6, lr}
 8004808:	079d      	lsls	r5, r3, #30
 800480a:	4606      	mov	r6, r0
 800480c:	460c      	mov	r4, r1
 800480e:	d507      	bpl.n	8004820 <__smakebuf_r+0x1c>
 8004810:	f104 0347 	add.w	r3, r4, #71	; 0x47
 8004814:	6023      	str	r3, [r4, #0]
 8004816:	6123      	str	r3, [r4, #16]
 8004818:	2301      	movs	r3, #1
 800481a:	6163      	str	r3, [r4, #20]
 800481c:	b002      	add	sp, #8
 800481e:	bd70      	pop	{r4, r5, r6, pc}
 8004820:	ab01      	add	r3, sp, #4
 8004822:	466a      	mov	r2, sp
 8004824:	f7ff ffc8 	bl	80047b8 <__swhatbuf_r>
 8004828:	9900      	ldr	r1, [sp, #0]
 800482a:	4605      	mov	r5, r0
 800482c:	4630      	mov	r0, r6
 800482e:	f7ff fbb5 	bl	8003f9c <_malloc_r>
 8004832:	b948      	cbnz	r0, 8004848 <__smakebuf_r+0x44>
 8004834:	f9b4 300c 	ldrsh.w	r3, [r4, #12]
 8004838:	059a      	lsls	r2, r3, #22
 800483a:	d4ef      	bmi.n	800481c <__smakebuf_r+0x18>
 800483c:	f023 0303 	bic.w	r3, r3, #3
 8004840:	f043 0302 	orr.w	r3, r3, #2
 8004844:	81a3      	strh	r3, [r4, #12]
 8004846:	e7e3      	b.n	8004810 <__smakebuf_r+0xc>
 8004848:	89a3      	ldrh	r3, [r4, #12]
 800484a:	6020      	str	r0, [r4, #0]
 800484c:	f043 0380 	orr.w	r3, r3, #128	; 0x80
 8004850:	81a3      	strh	r3, [r4, #12]
 8004852:	9b00      	ldr	r3, [sp, #0]
 8004854:	6163      	str	r3, [r4, #20]
 8004856:	9b01      	ldr	r3, [sp, #4]
 8004858:	6120      	str	r0, [r4, #16]
 800485a:	b15b      	cbz	r3, 8004874 <__smakebuf_r+0x70>
 800485c:	f9b4 100e 	ldrsh.w	r1, [r4, #14]
 8004860:	4630      	mov	r0, r6
 8004862:	f000 f81d 	bl	80048a0 <_isatty_r>
 8004866:	b128      	cbz	r0, 8004874 <__smakebuf_r+0x70>
 8004868:	89a3      	ldrh	r3, [r4, #12]
 800486a:	f023 0303 	bic.w	r3, r3, #3
 800486e:	f043 0301 	orr.w	r3, r3, #1
 8004872:	81a3      	strh	r3, [r4, #12]
 8004874:	89a3      	ldrh	r3, [r4, #12]
 8004876:	431d      	orrs	r5, r3
 8004878:	81a5      	strh	r5, [r4, #12]
 800487a:	e7cf      	b.n	800481c <__smakebuf_r+0x18>

0800487c <_fstat_r>:
 800487c:	b538      	push	{r3, r4, r5, lr}
 800487e:	4d07      	ldr	r5, [pc, #28]	; (800489c <_fstat_r+0x20>)
 8004880:	2300      	movs	r3, #0
 8004882:	4604      	mov	r4, r0
 8004884:	4608      	mov	r0, r1
 8004886:	4611      	mov	r1, r2
 8004888:	602b      	str	r3, [r5, #0]
 800488a:	f7ff f852 	bl	8003932 <_fstat>
 800488e:	1c43      	adds	r3, r0, #1
 8004890:	d102      	bne.n	8004898 <_fstat_r+0x1c>
 8004892:	682b      	ldr	r3, [r5, #0]
 8004894:	b103      	cbz	r3, 8004898 <_fstat_r+0x1c>
 8004896:	6023      	str	r3, [r4, #0]
 8004898:	bd38      	pop	{r3, r4, r5, pc}
 800489a:	bf00      	nop
 800489c:	20005654 	.word	0x20005654

080048a0 <_isatty_r>:
 80048a0:	b538      	push	{r3, r4, r5, lr}
 80048a2:	4d06      	ldr	r5, [pc, #24]	; (80048bc <_isatty_r+0x1c>)
 80048a4:	2300      	movs	r3, #0
 80048a6:	4604      	mov	r4, r0
 80048a8:	4608      	mov	r0, r1
 80048aa:	602b      	str	r3, [r5, #0]
 80048ac:	f7ff f846 	bl	800393c <_isatty>
 80048b0:	1c43      	adds	r3, r0, #1
 80048b2:	d102      	bne.n	80048ba <_isatty_r+0x1a>
 80048b4:	682b      	ldr	r3, [r5, #0]
 80048b6:	b103      	cbz	r3, 80048ba <_isatty_r+0x1a>
 80048b8:	6023      	str	r3, [r4, #0]
 80048ba:	bd38      	pop	{r3, r4, r5, pc}
 80048bc:	20005654 	.word	0x20005654

080048c0 <_sbrk_r>:
 80048c0:	b538      	push	{r3, r4, r5, lr}
 80048c2:	4d06      	ldr	r5, [pc, #24]	; (80048dc <_sbrk_r+0x1c>)
 80048c4:	2300      	movs	r3, #0
 80048c6:	4604      	mov	r4, r0
 80048c8:	4608      	mov	r0, r1
 80048ca:	602b      	str	r3, [r5, #0]
 80048cc:	f7ff f814 	bl	80038f8 <_sbrk>
 80048d0:	1c43      	adds	r3, r0, #1
 80048d2:	d102      	bne.n	80048da <_sbrk_r+0x1a>
 80048d4:	682b      	ldr	r3, [r5, #0]
 80048d6:	b103      	cbz	r3, 80048da <_sbrk_r+0x1a>
 80048d8:	6023      	str	r3, [r4, #0]
 80048da:	bd38      	pop	{r3, r4, r5, pc}
 80048dc:	20005654 	.word	0x20005654

080048e0 <sqrt>:
 80048e0:	b538      	push	{r3, r4, r5, lr}
 80048e2:	ed2d 8b02 	vpush	{d8}
 80048e6:	ec55 4b10 	vmov	r4, r5, d0
 80048ea:	f000 f8d1 	bl	8004a90 <__ieee754_sqrt>
 80048ee:	4622      	mov	r2, r4
 80048f0:	462b      	mov	r3, r5
 80048f2:	4620      	mov	r0, r4
 80048f4:	4629      	mov	r1, r5
 80048f6:	eeb0 8a40 	vmov.f32	s16, s0
 80048fa:	eef0 8a60 	vmov.f32	s17, s1
 80048fe:	f7fc f90d 	bl	8000b1c <__aeabi_dcmpun>
 8004902:	b990      	cbnz	r0, 800492a <sqrt+0x4a>
 8004904:	2200      	movs	r2, #0
 8004906:	2300      	movs	r3, #0
 8004908:	4620      	mov	r0, r4
 800490a:	4629      	mov	r1, r5
 800490c:	f7fc f8de 	bl	8000acc <__aeabi_dcmplt>
 8004910:	b158      	cbz	r0, 800492a <sqrt+0x4a>
 8004912:	f7ff faab 	bl	8003e6c <__errno>
 8004916:	2321      	movs	r3, #33	; 0x21
 8004918:	6003      	str	r3, [r0, #0]
 800491a:	2200      	movs	r2, #0
 800491c:	2300      	movs	r3, #0
 800491e:	4610      	mov	r0, r2
 8004920:	4619      	mov	r1, r3
 8004922:	f7fb ff8b 	bl	800083c <__aeabi_ddiv>
 8004926:	ec41 0b18 	vmov	d8, r0, r1
 800492a:	eeb0 0a48 	vmov.f32	s0, s16
 800492e:	eef0 0a68 	vmov.f32	s1, s17
 8004932:	ecbd 8b02 	vpop	{d8}
 8004936:	bd38      	pop	{r3, r4, r5, pc}

08004938 <cos>:
 8004938:	b51f      	push	{r0, r1, r2, r3, r4, lr}
 800493a:	ec53 2b10 	vmov	r2, r3, d0
 800493e:	4826      	ldr	r0, [pc, #152]	; (80049d8 <cos+0xa0>)
 8004940:	f023 4100 	bic.w	r1, r3, #2147483648	; 0x80000000
 8004944:	4281      	cmp	r1, r0
 8004946:	dc06      	bgt.n	8004956 <cos+0x1e>
 8004948:	ed9f 1b21 	vldr	d1, [pc, #132]	; 80049d0 <cos+0x98>
 800494c:	b005      	add	sp, #20
 800494e:	f85d eb04 	ldr.w	lr, [sp], #4
 8004952:	f000 b979 	b.w	8004c48 <__kernel_cos>
 8004956:	4821      	ldr	r0, [pc, #132]	; (80049dc <cos+0xa4>)
 8004958:	4281      	cmp	r1, r0
 800495a:	dd09      	ble.n	8004970 <cos+0x38>
 800495c:	ee10 0a10 	vmov	r0, s0
 8004960:	4619      	mov	r1, r3
 8004962:	f7fb fc89 	bl	8000278 <__aeabi_dsub>
 8004966:	ec41 0b10 	vmov	d0, r0, r1
 800496a:	b005      	add	sp, #20
 800496c:	f85d fb04 	ldr.w	pc, [sp], #4
 8004970:	4668      	mov	r0, sp
 8004972:	f000 faf1 	bl	8004f58 <__ieee754_rem_pio2>
 8004976:	f000 0003 	and.w	r0, r0, #3
 800497a:	2801      	cmp	r0, #1
 800497c:	d00b      	beq.n	8004996 <cos+0x5e>
 800497e:	2802      	cmp	r0, #2
 8004980:	d016      	beq.n	80049b0 <cos+0x78>
 8004982:	b9e0      	cbnz	r0, 80049be <cos+0x86>
 8004984:	ed9d 1b02 	vldr	d1, [sp, #8]
 8004988:	ed9d 0b00 	vldr	d0, [sp]
 800498c:	f000 f95c 	bl	8004c48 <__kernel_cos>
 8004990:	ec51 0b10 	vmov	r0, r1, d0
 8004994:	e7e7      	b.n	8004966 <cos+0x2e>
 8004996:	ed9d 1b02 	vldr	d1, [sp, #8]
 800499a:	ed9d 0b00 	vldr	d0, [sp]
 800499e:	f000 fa1b 	bl	8004dd8 <__kernel_sin>
 80049a2:	ec53 2b10 	vmov	r2, r3, d0
 80049a6:	ee10 0a10 	vmov	r0, s0
 80049aa:	f103 4100 	add.w	r1, r3, #2147483648	; 0x80000000
 80049ae:	e7da      	b.n	8004966 <cos+0x2e>
 80049b0:	ed9d 1b02 	vldr	d1, [sp, #8]
 80049b4:	ed9d 0b00 	vldr	d0, [sp]
 80049b8:	f000 f946 	bl	8004c48 <__kernel_cos>
 80049bc:	e7f1      	b.n	80049a2 <cos+0x6a>
 80049be:	ed9d 1b02 	vldr	d1, [sp, #8]
 80049c2:	ed9d 0b00 	vldr	d0, [sp]
 80049c6:	2001      	movs	r0, #1
 80049c8:	f000 fa06 	bl	8004dd8 <__kernel_sin>
 80049cc:	e7e0      	b.n	8004990 <cos+0x58>
 80049ce:	bf00      	nop
	...
 80049d8:	3fe921fb 	.word	0x3fe921fb
 80049dc:	7fefffff 	.word	0x7fefffff

080049e0 <sin>:
 80049e0:	b51f      	push	{r0, r1, r2, r3, r4, lr}
 80049e2:	ec53 2b10 	vmov	r2, r3, d0
 80049e6:	4828      	ldr	r0, [pc, #160]	; (8004a88 <sin+0xa8>)
 80049e8:	f023 4100 	bic.w	r1, r3, #2147483648	; 0x80000000
 80049ec:	4281      	cmp	r1, r0
 80049ee:	dc07      	bgt.n	8004a00 <sin+0x20>
 80049f0:	ed9f 1b23 	vldr	d1, [pc, #140]	; 8004a80 <sin+0xa0>
 80049f4:	2000      	movs	r0, #0
 80049f6:	b005      	add	sp, #20
 80049f8:	f85d eb04 	ldr.w	lr, [sp], #4
 80049fc:	f000 b9ec 	b.w	8004dd8 <__kernel_sin>
 8004a00:	4822      	ldr	r0, [pc, #136]	; (8004a8c <sin+0xac>)
 8004a02:	4281      	cmp	r1, r0
 8004a04:	dd09      	ble.n	8004a1a <sin+0x3a>
 8004a06:	ee10 0a10 	vmov	r0, s0
 8004a0a:	4619      	mov	r1, r3
 8004a0c:	f7fb fc34 	bl	8000278 <__aeabi_dsub>
 8004a10:	ec41 0b10 	vmov	d0, r0, r1
 8004a14:	b005      	add	sp, #20
 8004a16:	f85d fb04 	ldr.w	pc, [sp], #4
 8004a1a:	4668      	mov	r0, sp
 8004a1c:	f000 fa9c 	bl	8004f58 <__ieee754_rem_pio2>
 8004a20:	f000 0003 	and.w	r0, r0, #3
 8004a24:	2801      	cmp	r0, #1
 8004a26:	d00c      	beq.n	8004a42 <sin+0x62>
 8004a28:	2802      	cmp	r0, #2
 8004a2a:	d011      	beq.n	8004a50 <sin+0x70>
 8004a2c:	b9f0      	cbnz	r0, 8004a6c <sin+0x8c>
 8004a2e:	ed9d 1b02 	vldr	d1, [sp, #8]
 8004a32:	ed9d 0b00 	vldr	d0, [sp]
 8004a36:	2001      	movs	r0, #1
 8004a38:	f000 f9ce 	bl	8004dd8 <__kernel_sin>
 8004a3c:	ec51 0b10 	vmov	r0, r1, d0
 8004a40:	e7e6      	b.n	8004a10 <sin+0x30>
 8004a42:	ed9d 1b02 	vldr	d1, [sp, #8]
 8004a46:	ed9d 0b00 	vldr	d0, [sp]
 8004a4a:	f000 f8fd 	bl	8004c48 <__kernel_cos>
 8004a4e:	e7f5      	b.n	8004a3c <sin+0x5c>
 8004a50:	ed9d 1b02 	vldr	d1, [sp, #8]
 8004a54:	ed9d 0b00 	vldr	d0, [sp]
 8004a58:	2001      	movs	r0, #1
 8004a5a:	f000 f9bd 	bl	8004dd8 <__kernel_sin>
 8004a5e:	ec53 2b10 	vmov	r2, r3, d0
 8004a62:	ee10 0a10 	vmov	r0, s0
 8004a66:	f103 4100 	add.w	r1, r3, #2147483648	; 0x80000000
 8004a6a:	e7d1      	b.n	8004a10 <sin+0x30>
 8004a6c:	ed9d 1b02 	vldr	d1, [sp, #8]
 8004a70:	ed9d 0b00 	vldr	d0, [sp]
 8004a74:	f000 f8e8 	bl	8004c48 <__kernel_cos>
 8004a78:	e7f1      	b.n	8004a5e <sin+0x7e>
 8004a7a:	bf00      	nop
 8004a7c:	f3af 8000 	nop.w
	...
 8004a88:	3fe921fb 	.word	0x3fe921fb
 8004a8c:	7fefffff 	.word	0x7fefffff

08004a90 <__ieee754_sqrt>:
 8004a90:	e92d 4ff8 	stmdb	sp!, {r3, r4, r5, r6, r7, r8, r9, sl, fp, lr}
 8004a94:	ec55 4b10 	vmov	r4, r5, d0
 8004a98:	4e67      	ldr	r6, [pc, #412]	; (8004c38 <__ieee754_sqrt+0x1a8>)
 8004a9a:	43ae      	bics	r6, r5
 8004a9c:	ee10 0a10 	vmov	r0, s0
 8004aa0:	ee10 2a10 	vmov	r2, s0
 8004aa4:	4629      	mov	r1, r5
 8004aa6:	462b      	mov	r3, r5
 8004aa8:	d10d      	bne.n	8004ac6 <__ieee754_sqrt+0x36>
 8004aaa:	f7fb fd9d 	bl	80005e8 <__aeabi_dmul>
 8004aae:	4602      	mov	r2, r0
 8004ab0:	460b      	mov	r3, r1
 8004ab2:	4620      	mov	r0, r4
 8004ab4:	4629      	mov	r1, r5
 8004ab6:	f7fb fbe1 	bl	800027c <__adddf3>
 8004aba:	4604      	mov	r4, r0
 8004abc:	460d      	mov	r5, r1
 8004abe:	ec45 4b10 	vmov	d0, r4, r5
 8004ac2:	e8bd 8ff8 	ldmia.w	sp!, {r3, r4, r5, r6, r7, r8, r9, sl, fp, pc}
 8004ac6:	2d00      	cmp	r5, #0
 8004ac8:	dc0b      	bgt.n	8004ae2 <__ieee754_sqrt+0x52>
 8004aca:	f025 4600 	bic.w	r6, r5, #2147483648	; 0x80000000
 8004ace:	4326      	orrs	r6, r4
 8004ad0:	d0f5      	beq.n	8004abe <__ieee754_sqrt+0x2e>
 8004ad2:	b135      	cbz	r5, 8004ae2 <__ieee754_sqrt+0x52>
 8004ad4:	f7fb fbd0 	bl	8000278 <__aeabi_dsub>
 8004ad8:	4602      	mov	r2, r0
 8004ada:	460b      	mov	r3, r1
 8004adc:	f7fb feae 	bl	800083c <__aeabi_ddiv>
 8004ae0:	e7eb      	b.n	8004aba <__ieee754_sqrt+0x2a>
 8004ae2:	1509      	asrs	r1, r1, #20
 8004ae4:	f000 808d 	beq.w	8004c02 <__ieee754_sqrt+0x172>
 8004ae8:	f3c3 0313 	ubfx	r3, r3, #0, #20
 8004aec:	f2a1 36ff 	subw	r6, r1, #1023	; 0x3ff
 8004af0:	f443 1380 	orr.w	r3, r3, #1048576	; 0x100000
 8004af4:	07c9      	lsls	r1, r1, #31
 8004af6:	bf5c      	itt	pl
 8004af8:	005b      	lslpl	r3, r3, #1
 8004afa:	eb03 73d2 	addpl.w	r3, r3, r2, lsr #31
 8004afe:	ea4f 0343 	mov.w	r3, r3, lsl #1
 8004b02:	bf58      	it	pl
 8004b04:	0052      	lslpl	r2, r2, #1
 8004b06:	2500      	movs	r5, #0
 8004b08:	eb03 73d2 	add.w	r3, r3, r2, lsr #31
 8004b0c:	1076      	asrs	r6, r6, #1
 8004b0e:	0052      	lsls	r2, r2, #1
 8004b10:	f04f 0e16 	mov.w	lr, #22
 8004b14:	46ac      	mov	ip, r5
 8004b16:	f44f 1100 	mov.w	r1, #2097152	; 0x200000
 8004b1a:	eb0c 0001 	add.w	r0, ip, r1
 8004b1e:	4298      	cmp	r0, r3
 8004b20:	bfde      	ittt	le
 8004b22:	1a1b      	suble	r3, r3, r0
 8004b24:	eb00 0c01 	addle.w	ip, r0, r1
 8004b28:	186d      	addle	r5, r5, r1
 8004b2a:	005b      	lsls	r3, r3, #1
 8004b2c:	f1be 0e01 	subs.w	lr, lr, #1
 8004b30:	eb03 73d2 	add.w	r3, r3, r2, lsr #31
 8004b34:	ea4f 0151 	mov.w	r1, r1, lsr #1
 8004b38:	ea4f 0242 	mov.w	r2, r2, lsl #1
 8004b3c:	d1ed      	bne.n	8004b1a <__ieee754_sqrt+0x8a>
 8004b3e:	4674      	mov	r4, lr
 8004b40:	2720      	movs	r7, #32
 8004b42:	f04f 4100 	mov.w	r1, #2147483648	; 0x80000000
 8004b46:	4563      	cmp	r3, ip
 8004b48:	eb01 000e 	add.w	r0, r1, lr
 8004b4c:	dc02      	bgt.n	8004b54 <__ieee754_sqrt+0xc4>
 8004b4e:	d113      	bne.n	8004b78 <__ieee754_sqrt+0xe8>
 8004b50:	4290      	cmp	r0, r2
 8004b52:	d811      	bhi.n	8004b78 <__ieee754_sqrt+0xe8>
 8004b54:	2800      	cmp	r0, #0
 8004b56:	eb00 0e01 	add.w	lr, r0, r1
 8004b5a:	da57      	bge.n	8004c0c <__ieee754_sqrt+0x17c>
 8004b5c:	f1be 0f00 	cmp.w	lr, #0
 8004b60:	db54      	blt.n	8004c0c <__ieee754_sqrt+0x17c>
 8004b62:	f10c 0801 	add.w	r8, ip, #1
 8004b66:	eba3 030c 	sub.w	r3, r3, ip
 8004b6a:	4290      	cmp	r0, r2
 8004b6c:	bf88      	it	hi
 8004b6e:	f103 33ff 	addhi.w	r3, r3, #4294967295
 8004b72:	1a12      	subs	r2, r2, r0
 8004b74:	440c      	add	r4, r1
 8004b76:	46c4      	mov	ip, r8
 8004b78:	005b      	lsls	r3, r3, #1
 8004b7a:	3f01      	subs	r7, #1
 8004b7c:	eb03 73d2 	add.w	r3, r3, r2, lsr #31
 8004b80:	ea4f 0151 	mov.w	r1, r1, lsr #1
 8004b84:	ea4f 0242 	mov.w	r2, r2, lsl #1
 8004b88:	d1dd      	bne.n	8004b46 <__ieee754_sqrt+0xb6>
 8004b8a:	4313      	orrs	r3, r2
 8004b8c:	d01b      	beq.n	8004bc6 <__ieee754_sqrt+0x136>
 8004b8e:	f8df a0ac 	ldr.w	sl, [pc, #172]	; 8004c3c <__ieee754_sqrt+0x1ac>
 8004b92:	f8df b0ac 	ldr.w	fp, [pc, #172]	; 8004c40 <__ieee754_sqrt+0x1b0>
 8004b96:	e9da 0100 	ldrd	r0, r1, [sl]
 8004b9a:	e9db 2300 	ldrd	r2, r3, [fp]
 8004b9e:	f7fb fb6b 	bl	8000278 <__aeabi_dsub>
 8004ba2:	e9da 8900 	ldrd	r8, r9, [sl]
 8004ba6:	4602      	mov	r2, r0
 8004ba8:	460b      	mov	r3, r1
 8004baa:	4640      	mov	r0, r8
 8004bac:	4649      	mov	r1, r9
 8004bae:	f7fb ff97 	bl	8000ae0 <__aeabi_dcmple>
 8004bb2:	b140      	cbz	r0, 8004bc6 <__ieee754_sqrt+0x136>
 8004bb4:	f1b4 3fff 	cmp.w	r4, #4294967295
 8004bb8:	e9da 0100 	ldrd	r0, r1, [sl]
 8004bbc:	e9db 2300 	ldrd	r2, r3, [fp]
 8004bc0:	d126      	bne.n	8004c10 <__ieee754_sqrt+0x180>
 8004bc2:	3501      	adds	r5, #1
 8004bc4:	463c      	mov	r4, r7
 8004bc6:	106a      	asrs	r2, r5, #1
 8004bc8:	0863      	lsrs	r3, r4, #1
 8004bca:	07e9      	lsls	r1, r5, #31
 8004bcc:	f102 527f 	add.w	r2, r2, #1069547520	; 0x3fc00000
 8004bd0:	f502 1200 	add.w	r2, r2, #2097152	; 0x200000
 8004bd4:	bf48      	it	mi
 8004bd6:	f043 4300 	orrmi.w	r3, r3, #2147483648	; 0x80000000
 8004bda:	eb02 5506 	add.w	r5, r2, r6, lsl #20
 8004bde:	461c      	mov	r4, r3
 8004be0:	e76d      	b.n	8004abe <__ieee754_sqrt+0x2e>
 8004be2:	0ad3      	lsrs	r3, r2, #11
 8004be4:	3815      	subs	r0, #21
 8004be6:	0552      	lsls	r2, r2, #21
 8004be8:	2b00      	cmp	r3, #0
 8004bea:	d0fa      	beq.n	8004be2 <__ieee754_sqrt+0x152>
 8004bec:	02dc      	lsls	r4, r3, #11
 8004bee:	d50a      	bpl.n	8004c06 <__ieee754_sqrt+0x176>
 8004bf0:	f1c1 0420 	rsb	r4, r1, #32
 8004bf4:	fa22 f404 	lsr.w	r4, r2, r4
 8004bf8:	1e4d      	subs	r5, r1, #1
 8004bfa:	408a      	lsls	r2, r1
 8004bfc:	4323      	orrs	r3, r4
 8004bfe:	1b41      	subs	r1, r0, r5
 8004c00:	e772      	b.n	8004ae8 <__ieee754_sqrt+0x58>
 8004c02:	4608      	mov	r0, r1
 8004c04:	e7f0      	b.n	8004be8 <__ieee754_sqrt+0x158>
 8004c06:	005b      	lsls	r3, r3, #1
 8004c08:	3101      	adds	r1, #1
 8004c0a:	e7ef      	b.n	8004bec <__ieee754_sqrt+0x15c>
 8004c0c:	46e0      	mov	r8, ip
 8004c0e:	e7aa      	b.n	8004b66 <__ieee754_sqrt+0xd6>
 8004c10:	f7fb fb34 	bl	800027c <__adddf3>
 8004c14:	e9da 8900 	ldrd	r8, r9, [sl]
 8004c18:	4602      	mov	r2, r0
 8004c1a:	460b      	mov	r3, r1
 8004c1c:	4640      	mov	r0, r8
 8004c1e:	4649      	mov	r1, r9
 8004c20:	f7fb ff54 	bl	8000acc <__aeabi_dcmplt>
 8004c24:	b120      	cbz	r0, 8004c30 <__ieee754_sqrt+0x1a0>
 8004c26:	1ca0      	adds	r0, r4, #2
 8004c28:	bf08      	it	eq
 8004c2a:	3501      	addeq	r5, #1
 8004c2c:	3402      	adds	r4, #2
 8004c2e:	e7ca      	b.n	8004bc6 <__ieee754_sqrt+0x136>
 8004c30:	3401      	adds	r4, #1
 8004c32:	f024 0401 	bic.w	r4, r4, #1
 8004c36:	e7c6      	b.n	8004bc6 <__ieee754_sqrt+0x136>
 8004c38:	7ff00000 	.word	0x7ff00000
 8004c3c:	200000b0 	.word	0x200000b0
 8004c40:	200000b8 	.word	0x200000b8
 8004c44:	00000000 	.word	0x00000000

08004c48 <__kernel_cos>:
 8004c48:	e92d 4ff7 	stmdb	sp!, {r0, r1, r2, r4, r5, r6, r7, r8, r9, sl, fp, lr}
 8004c4c:	ec57 6b10 	vmov	r6, r7, d0
 8004c50:	f027 4800 	bic.w	r8, r7, #2147483648	; 0x80000000
 8004c54:	f1b8 5f79 	cmp.w	r8, #1044381696	; 0x3e400000
 8004c58:	ed8d 1b00 	vstr	d1, [sp]
 8004c5c:	da07      	bge.n	8004c6e <__kernel_cos+0x26>
 8004c5e:	ee10 0a10 	vmov	r0, s0
 8004c62:	4639      	mov	r1, r7
 8004c64:	f7fb ff70 	bl	8000b48 <__aeabi_d2iz>
 8004c68:	2800      	cmp	r0, #0
 8004c6a:	f000 8088 	beq.w	8004d7e <__kernel_cos+0x136>
 8004c6e:	4632      	mov	r2, r6
 8004c70:	463b      	mov	r3, r7
 8004c72:	4630      	mov	r0, r6
 8004c74:	4639      	mov	r1, r7
 8004c76:	f7fb fcb7 	bl	80005e8 <__aeabi_dmul>
 8004c7a:	4b51      	ldr	r3, [pc, #324]	; (8004dc0 <__kernel_cos+0x178>)
 8004c7c:	2200      	movs	r2, #0
 8004c7e:	4604      	mov	r4, r0
 8004c80:	460d      	mov	r5, r1
 8004c82:	f7fb fcb1 	bl	80005e8 <__aeabi_dmul>
 8004c86:	a340      	add	r3, pc, #256	; (adr r3, 8004d88 <__kernel_cos+0x140>)
 8004c88:	e9d3 2300 	ldrd	r2, r3, [r3]
 8004c8c:	4682      	mov	sl, r0
 8004c8e:	468b      	mov	fp, r1
 8004c90:	4620      	mov	r0, r4
 8004c92:	4629      	mov	r1, r5
 8004c94:	f7fb fca8 	bl	80005e8 <__aeabi_dmul>
 8004c98:	a33d      	add	r3, pc, #244	; (adr r3, 8004d90 <__kernel_cos+0x148>)
 8004c9a:	e9d3 2300 	ldrd	r2, r3, [r3]
 8004c9e:	f7fb faed 	bl	800027c <__adddf3>
 8004ca2:	4622      	mov	r2, r4
 8004ca4:	462b      	mov	r3, r5
 8004ca6:	f7fb fc9f 	bl	80005e8 <__aeabi_dmul>
 8004caa:	a33b      	add	r3, pc, #236	; (adr r3, 8004d98 <__kernel_cos+0x150>)
 8004cac:	e9d3 2300 	ldrd	r2, r3, [r3]
 8004cb0:	f7fb fae2 	bl	8000278 <__aeabi_dsub>
 8004cb4:	4622      	mov	r2, r4
 8004cb6:	462b      	mov	r3, r5
 8004cb8:	f7fb fc96 	bl	80005e8 <__aeabi_dmul>
 8004cbc:	a338      	add	r3, pc, #224	; (adr r3, 8004da0 <__kernel_cos+0x158>)
 8004cbe:	e9d3 2300 	ldrd	r2, r3, [r3]
 8004cc2:	f7fb fadb 	bl	800027c <__adddf3>
 8004cc6:	4622      	mov	r2, r4
 8004cc8:	462b      	mov	r3, r5
 8004cca:	f7fb fc8d 	bl	80005e8 <__aeabi_dmul>
 8004cce:	a336      	add	r3, pc, #216	; (adr r3, 8004da8 <__kernel_cos+0x160>)
 8004cd0:	e9d3 2300 	ldrd	r2, r3, [r3]
 8004cd4:	f7fb fad0 	bl	8000278 <__aeabi_dsub>
 8004cd8:	4622      	mov	r2, r4
 8004cda:	462b      	mov	r3, r5
 8004cdc:	f7fb fc84 	bl	80005e8 <__aeabi_dmul>
 8004ce0:	a333      	add	r3, pc, #204	; (adr r3, 8004db0 <__kernel_cos+0x168>)
 8004ce2:	e9d3 2300 	ldrd	r2, r3, [r3]
 8004ce6:	f7fb fac9 	bl	800027c <__adddf3>
 8004cea:	4622      	mov	r2, r4
 8004cec:	462b      	mov	r3, r5
 8004cee:	f7fb fc7b 	bl	80005e8 <__aeabi_dmul>
 8004cf2:	4622      	mov	r2, r4
 8004cf4:	462b      	mov	r3, r5
 8004cf6:	f7fb fc77 	bl	80005e8 <__aeabi_dmul>
 8004cfa:	e9dd 2300 	ldrd	r2, r3, [sp]
 8004cfe:	4604      	mov	r4, r0
 8004d00:	460d      	mov	r5, r1
 8004d02:	4630      	mov	r0, r6
 8004d04:	4639      	mov	r1, r7
 8004d06:	f7fb fc6f 	bl	80005e8 <__aeabi_dmul>
 8004d0a:	460b      	mov	r3, r1
 8004d0c:	4602      	mov	r2, r0
 8004d0e:	4629      	mov	r1, r5
 8004d10:	4620      	mov	r0, r4
 8004d12:	f7fb fab1 	bl	8000278 <__aeabi_dsub>
 8004d16:	4b2b      	ldr	r3, [pc, #172]	; (8004dc4 <__kernel_cos+0x17c>)
 8004d18:	4598      	cmp	r8, r3
 8004d1a:	4606      	mov	r6, r0
 8004d1c:	460f      	mov	r7, r1
 8004d1e:	dc10      	bgt.n	8004d42 <__kernel_cos+0xfa>
 8004d20:	4602      	mov	r2, r0
 8004d22:	460b      	mov	r3, r1
 8004d24:	4650      	mov	r0, sl
 8004d26:	4659      	mov	r1, fp
 8004d28:	f7fb faa6 	bl	8000278 <__aeabi_dsub>
 8004d2c:	460b      	mov	r3, r1
 8004d2e:	4926      	ldr	r1, [pc, #152]	; (8004dc8 <__kernel_cos+0x180>)
 8004d30:	4602      	mov	r2, r0
 8004d32:	2000      	movs	r0, #0
 8004d34:	f7fb faa0 	bl	8000278 <__aeabi_dsub>
 8004d38:	ec41 0b10 	vmov	d0, r0, r1
 8004d3c:	b003      	add	sp, #12
 8004d3e:	e8bd 8ff0 	ldmia.w	sp!, {r4, r5, r6, r7, r8, r9, sl, fp, pc}
 8004d42:	4b22      	ldr	r3, [pc, #136]	; (8004dcc <__kernel_cos+0x184>)
 8004d44:	4920      	ldr	r1, [pc, #128]	; (8004dc8 <__kernel_cos+0x180>)
 8004d46:	4598      	cmp	r8, r3
 8004d48:	bfcc      	ite	gt
 8004d4a:	4d21      	ldrgt	r5, [pc, #132]	; (8004dd0 <__kernel_cos+0x188>)
 8004d4c:	f5a8 1500 	suble.w	r5, r8, #2097152	; 0x200000
 8004d50:	2400      	movs	r4, #0
 8004d52:	4622      	mov	r2, r4
 8004d54:	462b      	mov	r3, r5
 8004d56:	2000      	movs	r0, #0
 8004d58:	f7fb fa8e 	bl	8000278 <__aeabi_dsub>
 8004d5c:	4622      	mov	r2, r4
 8004d5e:	4680      	mov	r8, r0
 8004d60:	4689      	mov	r9, r1
 8004d62:	462b      	mov	r3, r5
 8004d64:	4650      	mov	r0, sl
 8004d66:	4659      	mov	r1, fp
 8004d68:	f7fb fa86 	bl	8000278 <__aeabi_dsub>
 8004d6c:	4632      	mov	r2, r6
 8004d6e:	463b      	mov	r3, r7
 8004d70:	f7fb fa82 	bl	8000278 <__aeabi_dsub>
 8004d74:	4602      	mov	r2, r0
 8004d76:	460b      	mov	r3, r1
 8004d78:	4640      	mov	r0, r8
 8004d7a:	4649      	mov	r1, r9
 8004d7c:	e7da      	b.n	8004d34 <__kernel_cos+0xec>
 8004d7e:	ed9f 0b0e 	vldr	d0, [pc, #56]	; 8004db8 <__kernel_cos+0x170>
 8004d82:	e7db      	b.n	8004d3c <__kernel_cos+0xf4>
 8004d84:	f3af 8000 	nop.w
 8004d88:	be8838d4 	.word	0xbe8838d4
 8004d8c:	bda8fae9 	.word	0xbda8fae9
 8004d90:	bdb4b1c4 	.word	0xbdb4b1c4
 8004d94:	3e21ee9e 	.word	0x3e21ee9e
 8004d98:	809c52ad 	.word	0x809c52ad
 8004d9c:	3e927e4f 	.word	0x3e927e4f
 8004da0:	19cb1590 	.word	0x19cb1590
 8004da4:	3efa01a0 	.word	0x3efa01a0
 8004da8:	16c15177 	.word	0x16c15177
 8004dac:	3f56c16c 	.word	0x3f56c16c
 8004db0:	5555554c 	.word	0x5555554c
 8004db4:	3fa55555 	.word	0x3fa55555
 8004db8:	00000000 	.word	0x00000000
 8004dbc:	3ff00000 	.word	0x3ff00000
 8004dc0:	3fe00000 	.word	0x3fe00000
 8004dc4:	3fd33332 	.word	0x3fd33332
 8004dc8:	3ff00000 	.word	0x3ff00000
 8004dcc:	3fe90000 	.word	0x3fe90000
 8004dd0:	3fd20000 	.word	0x3fd20000
 8004dd4:	00000000 	.word	0x00000000

08004dd8 <__kernel_sin>:
 8004dd8:	e92d 4ff0 	stmdb	sp!, {r4, r5, r6, r7, r8, r9, sl, fp, lr}
 8004ddc:	ed2d 8b04 	vpush	{d8-d9}
 8004de0:	eeb0 8a41 	vmov.f32	s16, s2
 8004de4:	eef0 8a61 	vmov.f32	s17, s3
 8004de8:	ec55 4b10 	vmov	r4, r5, d0
 8004dec:	b083      	sub	sp, #12
 8004dee:	f025 4300 	bic.w	r3, r5, #2147483648	; 0x80000000
 8004df2:	f1b3 5f79 	cmp.w	r3, #1044381696	; 0x3e400000
 8004df6:	9001      	str	r0, [sp, #4]
 8004df8:	da06      	bge.n	8004e08 <__kernel_sin+0x30>
 8004dfa:	ee10 0a10 	vmov	r0, s0
 8004dfe:	4629      	mov	r1, r5
 8004e00:	f7fb fea2 	bl	8000b48 <__aeabi_d2iz>
 8004e04:	2800      	cmp	r0, #0
 8004e06:	d051      	beq.n	8004eac <__kernel_sin+0xd4>
 8004e08:	4622      	mov	r2, r4
 8004e0a:	462b      	mov	r3, r5
 8004e0c:	4620      	mov	r0, r4
 8004e0e:	4629      	mov	r1, r5
 8004e10:	f7fb fbea 	bl	80005e8 <__aeabi_dmul>
 8004e14:	4682      	mov	sl, r0
 8004e16:	468b      	mov	fp, r1
 8004e18:	4602      	mov	r2, r0
 8004e1a:	460b      	mov	r3, r1
 8004e1c:	4620      	mov	r0, r4
 8004e1e:	4629      	mov	r1, r5
 8004e20:	f7fb fbe2 	bl	80005e8 <__aeabi_dmul>
 8004e24:	a341      	add	r3, pc, #260	; (adr r3, 8004f2c <__kernel_sin+0x154>)
 8004e26:	e9d3 2300 	ldrd	r2, r3, [r3]
 8004e2a:	4680      	mov	r8, r0
 8004e2c:	4689      	mov	r9, r1
 8004e2e:	4650      	mov	r0, sl
 8004e30:	4659      	mov	r1, fp
 8004e32:	f7fb fbd9 	bl	80005e8 <__aeabi_dmul>
 8004e36:	a33f      	add	r3, pc, #252	; (adr r3, 8004f34 <__kernel_sin+0x15c>)
 8004e38:	e9d3 2300 	ldrd	r2, r3, [r3]
 8004e3c:	f7fb fa1c 	bl	8000278 <__aeabi_dsub>
 8004e40:	4652      	mov	r2, sl
 8004e42:	465b      	mov	r3, fp
 8004e44:	f7fb fbd0 	bl	80005e8 <__aeabi_dmul>
 8004e48:	a33c      	add	r3, pc, #240	; (adr r3, 8004f3c <__kernel_sin+0x164>)
 8004e4a:	e9d3 2300 	ldrd	r2, r3, [r3]
 8004e4e:	f7fb fa15 	bl	800027c <__adddf3>
 8004e52:	4652      	mov	r2, sl
 8004e54:	465b      	mov	r3, fp
 8004e56:	f7fb fbc7 	bl	80005e8 <__aeabi_dmul>
 8004e5a:	a33a      	add	r3, pc, #232	; (adr r3, 8004f44 <__kernel_sin+0x16c>)
 8004e5c:	e9d3 2300 	ldrd	r2, r3, [r3]
 8004e60:	f7fb fa0a 	bl	8000278 <__aeabi_dsub>
 8004e64:	4652      	mov	r2, sl
 8004e66:	465b      	mov	r3, fp
 8004e68:	f7fb fbbe 	bl	80005e8 <__aeabi_dmul>
 8004e6c:	a337      	add	r3, pc, #220	; (adr r3, 8004f4c <__kernel_sin+0x174>)
 8004e6e:	e9d3 2300 	ldrd	r2, r3, [r3]
 8004e72:	f7fb fa03 	bl	800027c <__adddf3>
 8004e76:	9b01      	ldr	r3, [sp, #4]
 8004e78:	4606      	mov	r6, r0
 8004e7a:	460f      	mov	r7, r1
 8004e7c:	b9eb      	cbnz	r3, 8004eba <__kernel_sin+0xe2>
 8004e7e:	4602      	mov	r2, r0
 8004e80:	460b      	mov	r3, r1
 8004e82:	4650      	mov	r0, sl
 8004e84:	4659      	mov	r1, fp
 8004e86:	f7fb fbaf 	bl	80005e8 <__aeabi_dmul>
 8004e8a:	a325      	add	r3, pc, #148	; (adr r3, 8004f20 <__kernel_sin+0x148>)
 8004e8c:	e9d3 2300 	ldrd	r2, r3, [r3]
 8004e90:	f7fb f9f2 	bl	8000278 <__aeabi_dsub>
 8004e94:	4642      	mov	r2, r8
 8004e96:	464b      	mov	r3, r9
 8004e98:	f7fb fba6 	bl	80005e8 <__aeabi_dmul>
 8004e9c:	4602      	mov	r2, r0
 8004e9e:	460b      	mov	r3, r1
 8004ea0:	4620      	mov	r0, r4
 8004ea2:	4629      	mov	r1, r5
 8004ea4:	f7fb f9ea 	bl	800027c <__adddf3>
 8004ea8:	4604      	mov	r4, r0
 8004eaa:	460d      	mov	r5, r1
 8004eac:	ec45 4b10 	vmov	d0, r4, r5
 8004eb0:	b003      	add	sp, #12
 8004eb2:	ecbd 8b04 	vpop	{d8-d9}
 8004eb6:	e8bd 8ff0 	ldmia.w	sp!, {r4, r5, r6, r7, r8, r9, sl, fp, pc}
 8004eba:	4b1b      	ldr	r3, [pc, #108]	; (8004f28 <__kernel_sin+0x150>)
 8004ebc:	ec51 0b18 	vmov	r0, r1, d8
 8004ec0:	2200      	movs	r2, #0
 8004ec2:	f7fb fb91 	bl	80005e8 <__aeabi_dmul>
 8004ec6:	4632      	mov	r2, r6
 8004ec8:	ec41 0b19 	vmov	d9, r0, r1
 8004ecc:	463b      	mov	r3, r7
 8004ece:	4640      	mov	r0, r8
 8004ed0:	4649      	mov	r1, r9
 8004ed2:	f7fb fb89 	bl	80005e8 <__aeabi_dmul>
 8004ed6:	4602      	mov	r2, r0
 8004ed8:	460b      	mov	r3, r1
 8004eda:	ec51 0b19 	vmov	r0, r1, d9
 8004ede:	f7fb f9cb 	bl	8000278 <__aeabi_dsub>
 8004ee2:	4652      	mov	r2, sl
 8004ee4:	465b      	mov	r3, fp
 8004ee6:	f7fb fb7f 	bl	80005e8 <__aeabi_dmul>
 8004eea:	ec53 2b18 	vmov	r2, r3, d8
 8004eee:	f7fb f9c3 	bl	8000278 <__aeabi_dsub>
 8004ef2:	a30b      	add	r3, pc, #44	; (adr r3, 8004f20 <__kernel_sin+0x148>)
 8004ef4:	e9d3 2300 	ldrd	r2, r3, [r3]
 8004ef8:	4606      	mov	r6, r0
 8004efa:	460f      	mov	r7, r1
 8004efc:	4640      	mov	r0, r8
 8004efe:	4649      	mov	r1, r9
 8004f00:	f7fb fb72 	bl	80005e8 <__aeabi_dmul>
 8004f04:	4602      	mov	r2, r0
 8004f06:	460b      	mov	r3, r1
 8004f08:	4630      	mov	r0, r6
 8004f0a:	4639      	mov	r1, r7
 8004f0c:	f7fb f9b6 	bl	800027c <__adddf3>
 8004f10:	4602      	mov	r2, r0
 8004f12:	460b      	mov	r3, r1
 8004f14:	4620      	mov	r0, r4
 8004f16:	4629      	mov	r1, r5
 8004f18:	f7fb f9ae 	bl	8000278 <__aeabi_dsub>
 8004f1c:	e7c4      	b.n	8004ea8 <__kernel_sin+0xd0>
 8004f1e:	bf00      	nop
 8004f20:	55555549 	.word	0x55555549
 8004f24:	3fc55555 	.word	0x3fc55555
 8004f28:	3fe00000 	.word	0x3fe00000
 8004f2c:	5acfd57c 	.word	0x5acfd57c
 8004f30:	3de5d93a 	.word	0x3de5d93a
 8004f34:	8a2b9ceb 	.word	0x8a2b9ceb
 8004f38:	3e5ae5e6 	.word	0x3e5ae5e6
 8004f3c:	57b1fe7d 	.word	0x57b1fe7d
 8004f40:	3ec71de3 	.word	0x3ec71de3
 8004f44:	19c161d5 	.word	0x19c161d5
 8004f48:	3f2a01a0 	.word	0x3f2a01a0
 8004f4c:	1110f8a6 	.word	0x1110f8a6
 8004f50:	3f811111 	.word	0x3f811111
 8004f54:	00000000 	.word	0x00000000

08004f58 <__ieee754_rem_pio2>:
 8004f58:	e92d 4ff0 	stmdb	sp!, {r4, r5, r6, r7, r8, r9, sl, fp, lr}
 8004f5c:	ed2d 8b02 	vpush	{d8}
 8004f60:	ec55 4b10 	vmov	r4, r5, d0
 8004f64:	4bca      	ldr	r3, [pc, #808]	; (8005290 <__ieee754_rem_pio2+0x338>)
 8004f66:	b08b      	sub	sp, #44	; 0x2c
 8004f68:	f025 4800 	bic.w	r8, r5, #2147483648	; 0x80000000
 8004f6c:	4598      	cmp	r8, r3
 8004f6e:	4682      	mov	sl, r0
 8004f70:	9502      	str	r5, [sp, #8]
 8004f72:	dc08      	bgt.n	8004f86 <__ieee754_rem_pio2+0x2e>
 8004f74:	2200      	movs	r2, #0
 8004f76:	2300      	movs	r3, #0
 8004f78:	ed80 0b00 	vstr	d0, [r0]
 8004f7c:	e9c0 2302 	strd	r2, r3, [r0, #8]
 8004f80:	f04f 0b00 	mov.w	fp, #0
 8004f84:	e028      	b.n	8004fd8 <__ieee754_rem_pio2+0x80>
 8004f86:	4bc3      	ldr	r3, [pc, #780]	; (8005294 <__ieee754_rem_pio2+0x33c>)
 8004f88:	4598      	cmp	r8, r3
 8004f8a:	dc78      	bgt.n	800507e <__ieee754_rem_pio2+0x126>
 8004f8c:	9b02      	ldr	r3, [sp, #8]
 8004f8e:	4ec2      	ldr	r6, [pc, #776]	; (8005298 <__ieee754_rem_pio2+0x340>)
 8004f90:	2b00      	cmp	r3, #0
 8004f92:	ee10 0a10 	vmov	r0, s0
 8004f96:	a3b0      	add	r3, pc, #704	; (adr r3, 8005258 <__ieee754_rem_pio2+0x300>)
 8004f98:	e9d3 2300 	ldrd	r2, r3, [r3]
 8004f9c:	4629      	mov	r1, r5
 8004f9e:	dd39      	ble.n	8005014 <__ieee754_rem_pio2+0xbc>
 8004fa0:	f7fb f96a 	bl	8000278 <__aeabi_dsub>
 8004fa4:	45b0      	cmp	r8, r6
 8004fa6:	4604      	mov	r4, r0
 8004fa8:	460d      	mov	r5, r1
 8004faa:	d01b      	beq.n	8004fe4 <__ieee754_rem_pio2+0x8c>
 8004fac:	a3ac      	add	r3, pc, #688	; (adr r3, 8005260 <__ieee754_rem_pio2+0x308>)
 8004fae:	e9d3 2300 	ldrd	r2, r3, [r3]
 8004fb2:	f7fb f961 	bl	8000278 <__aeabi_dsub>
 8004fb6:	4602      	mov	r2, r0
 8004fb8:	460b      	mov	r3, r1
 8004fba:	e9ca 2300 	strd	r2, r3, [sl]
 8004fbe:	4620      	mov	r0, r4
 8004fc0:	4629      	mov	r1, r5
 8004fc2:	f7fb f959 	bl	8000278 <__aeabi_dsub>
 8004fc6:	a3a6      	add	r3, pc, #664	; (adr r3, 8005260 <__ieee754_rem_pio2+0x308>)
 8004fc8:	e9d3 2300 	ldrd	r2, r3, [r3]
 8004fcc:	f7fb f954 	bl	8000278 <__aeabi_dsub>
 8004fd0:	e9ca 0102 	strd	r0, r1, [sl, #8]
 8004fd4:	f04f 0b01 	mov.w	fp, #1
 8004fd8:	4658      	mov	r0, fp
 8004fda:	b00b      	add	sp, #44	; 0x2c
 8004fdc:	ecbd 8b02 	vpop	{d8}
 8004fe0:	e8bd 8ff0 	ldmia.w	sp!, {r4, r5, r6, r7, r8, r9, sl, fp, pc}
 8004fe4:	a3a0      	add	r3, pc, #640	; (adr r3, 8005268 <__ieee754_rem_pio2+0x310>)
 8004fe6:	e9d3 2300 	ldrd	r2, r3, [r3]
 8004fea:	f7fb f945 	bl	8000278 <__aeabi_dsub>
 8004fee:	a3a0      	add	r3, pc, #640	; (adr r3, 8005270 <__ieee754_rem_pio2+0x318>)
 8004ff0:	e9d3 2300 	ldrd	r2, r3, [r3]
 8004ff4:	4604      	mov	r4, r0
 8004ff6:	460d      	mov	r5, r1
 8004ff8:	f7fb f93e 	bl	8000278 <__aeabi_dsub>
 8004ffc:	4602      	mov	r2, r0
 8004ffe:	460b      	mov	r3, r1
 8005000:	e9ca 2300 	strd	r2, r3, [sl]
 8005004:	4620      	mov	r0, r4
 8005006:	4629      	mov	r1, r5
 8005008:	f7fb f936 	bl	8000278 <__aeabi_dsub>
 800500c:	a398      	add	r3, pc, #608	; (adr r3, 8005270 <__ieee754_rem_pio2+0x318>)
 800500e:	e9d3 2300 	ldrd	r2, r3, [r3]
 8005012:	e7db      	b.n	8004fcc <__ieee754_rem_pio2+0x74>
 8005014:	f7fb f932 	bl	800027c <__adddf3>
 8005018:	45b0      	cmp	r8, r6
 800501a:	4604      	mov	r4, r0
 800501c:	460d      	mov	r5, r1
 800501e:	d016      	beq.n	800504e <__ieee754_rem_pio2+0xf6>
 8005020:	a38f      	add	r3, pc, #572	; (adr r3, 8005260 <__ieee754_rem_pio2+0x308>)
 8005022:	e9d3 2300 	ldrd	r2, r3, [r3]
 8005026:	f7fb f929 	bl	800027c <__adddf3>
 800502a:	4602      	mov	r2, r0
 800502c:	460b      	mov	r3, r1
 800502e:	e9ca 2300 	strd	r2, r3, [sl]
 8005032:	4620      	mov	r0, r4
 8005034:	4629      	mov	r1, r5
 8005036:	f7fb f91f 	bl	8000278 <__aeabi_dsub>
 800503a:	a389      	add	r3, pc, #548	; (adr r3, 8005260 <__ieee754_rem_pio2+0x308>)
 800503c:	e9d3 2300 	ldrd	r2, r3, [r3]
 8005040:	f7fb f91c 	bl	800027c <__adddf3>
 8005044:	f04f 3bff 	mov.w	fp, #4294967295
 8005048:	e9ca 0102 	strd	r0, r1, [sl, #8]
 800504c:	e7c4      	b.n	8004fd8 <__ieee754_rem_pio2+0x80>
 800504e:	a386      	add	r3, pc, #536	; (adr r3, 8005268 <__ieee754_rem_pio2+0x310>)
 8005050:	e9d3 2300 	ldrd	r2, r3, [r3]
 8005054:	f7fb f912 	bl	800027c <__adddf3>
 8005058:	a385      	add	r3, pc, #532	; (adr r3, 8005270 <__ieee754_rem_pio2+0x318>)
 800505a:	e9d3 2300 	ldrd	r2, r3, [r3]
 800505e:	4604      	mov	r4, r0
 8005060:	460d      	mov	r5, r1
 8005062:	f7fb f90b 	bl	800027c <__adddf3>
 8005066:	4602      	mov	r2, r0
 8005068:	460b      	mov	r3, r1
 800506a:	e9ca 2300 	strd	r2, r3, [sl]
 800506e:	4620      	mov	r0, r4
 8005070:	4629      	mov	r1, r5
 8005072:	f7fb f901 	bl	8000278 <__aeabi_dsub>
 8005076:	a37e      	add	r3, pc, #504	; (adr r3, 8005270 <__ieee754_rem_pio2+0x318>)
 8005078:	e9d3 2300 	ldrd	r2, r3, [r3]
 800507c:	e7e0      	b.n	8005040 <__ieee754_rem_pio2+0xe8>
 800507e:	4b87      	ldr	r3, [pc, #540]	; (800529c <__ieee754_rem_pio2+0x344>)
 8005080:	4598      	cmp	r8, r3
 8005082:	f300 80d8 	bgt.w	8005236 <__ieee754_rem_pio2+0x2de>
 8005086:	f000 f96d 	bl	8005364 <fabs>
 800508a:	ec55 4b10 	vmov	r4, r5, d0
 800508e:	ee10 0a10 	vmov	r0, s0
 8005092:	a379      	add	r3, pc, #484	; (adr r3, 8005278 <__ieee754_rem_pio2+0x320>)
 8005094:	e9d3 2300 	ldrd	r2, r3, [r3]
 8005098:	4629      	mov	r1, r5
 800509a:	f7fb faa5 	bl	80005e8 <__aeabi_dmul>
 800509e:	4b80      	ldr	r3, [pc, #512]	; (80052a0 <__ieee754_rem_pio2+0x348>)
 80050a0:	2200      	movs	r2, #0
 80050a2:	f7fb f8eb 	bl	800027c <__adddf3>
 80050a6:	f7fb fd4f 	bl	8000b48 <__aeabi_d2iz>
 80050aa:	4683      	mov	fp, r0
 80050ac:	f7fb fa32 	bl	8000514 <__aeabi_i2d>
 80050b0:	4602      	mov	r2, r0
 80050b2:	460b      	mov	r3, r1
 80050b4:	ec43 2b18 	vmov	d8, r2, r3
 80050b8:	a367      	add	r3, pc, #412	; (adr r3, 8005258 <__ieee754_rem_pio2+0x300>)
 80050ba:	e9d3 2300 	ldrd	r2, r3, [r3]
 80050be:	f7fb fa93 	bl	80005e8 <__aeabi_dmul>
 80050c2:	4602      	mov	r2, r0
 80050c4:	460b      	mov	r3, r1
 80050c6:	4620      	mov	r0, r4
 80050c8:	4629      	mov	r1, r5
 80050ca:	f7fb f8d5 	bl	8000278 <__aeabi_dsub>
 80050ce:	a364      	add	r3, pc, #400	; (adr r3, 8005260 <__ieee754_rem_pio2+0x308>)
 80050d0:	e9d3 2300 	ldrd	r2, r3, [r3]
 80050d4:	4606      	mov	r6, r0
 80050d6:	460f      	mov	r7, r1
 80050d8:	ec51 0b18 	vmov	r0, r1, d8
 80050dc:	f7fb fa84 	bl	80005e8 <__aeabi_dmul>
 80050e0:	f1bb 0f1f 	cmp.w	fp, #31
 80050e4:	4604      	mov	r4, r0
 80050e6:	460d      	mov	r5, r1
 80050e8:	dc0d      	bgt.n	8005106 <__ieee754_rem_pio2+0x1ae>
 80050ea:	4b6e      	ldr	r3, [pc, #440]	; (80052a4 <__ieee754_rem_pio2+0x34c>)
 80050ec:	f10b 32ff 	add.w	r2, fp, #4294967295
 80050f0:	f853 3022 	ldr.w	r3, [r3, r2, lsl #2]
 80050f4:	4543      	cmp	r3, r8
 80050f6:	d006      	beq.n	8005106 <__ieee754_rem_pio2+0x1ae>
 80050f8:	4622      	mov	r2, r4
 80050fa:	462b      	mov	r3, r5
 80050fc:	4630      	mov	r0, r6
 80050fe:	4639      	mov	r1, r7
 8005100:	f7fb f8ba 	bl	8000278 <__aeabi_dsub>
 8005104:	e00e      	b.n	8005124 <__ieee754_rem_pio2+0x1cc>
 8005106:	462b      	mov	r3, r5
 8005108:	4622      	mov	r2, r4
 800510a:	4630      	mov	r0, r6
 800510c:	4639      	mov	r1, r7
 800510e:	f7fb f8b3 	bl	8000278 <__aeabi_dsub>
 8005112:	ea4f 5328 	mov.w	r3, r8, asr #20
 8005116:	9303      	str	r3, [sp, #12]
 8005118:	f3c1 530a 	ubfx	r3, r1, #20, #11
 800511c:	ebc3 5318 	rsb	r3, r3, r8, lsr #20
 8005120:	2b10      	cmp	r3, #16
 8005122:	dc02      	bgt.n	800512a <__ieee754_rem_pio2+0x1d2>
 8005124:	e9ca 0100 	strd	r0, r1, [sl]
 8005128:	e039      	b.n	800519e <__ieee754_rem_pio2+0x246>
 800512a:	a34f      	add	r3, pc, #316	; (adr r3, 8005268 <__ieee754_rem_pio2+0x310>)
 800512c:	e9d3 2300 	ldrd	r2, r3, [r3]
 8005130:	ec51 0b18 	vmov	r0, r1, d8
 8005134:	f7fb fa58 	bl	80005e8 <__aeabi_dmul>
 8005138:	4604      	mov	r4, r0
 800513a:	460d      	mov	r5, r1
 800513c:	4602      	mov	r2, r0
 800513e:	460b      	mov	r3, r1
 8005140:	4630      	mov	r0, r6
 8005142:	4639      	mov	r1, r7
 8005144:	f7fb f898 	bl	8000278 <__aeabi_dsub>
 8005148:	4602      	mov	r2, r0
 800514a:	460b      	mov	r3, r1
 800514c:	4680      	mov	r8, r0
 800514e:	4689      	mov	r9, r1
 8005150:	4630      	mov	r0, r6
 8005152:	4639      	mov	r1, r7
 8005154:	f7fb f890 	bl	8000278 <__aeabi_dsub>
 8005158:	4622      	mov	r2, r4
 800515a:	462b      	mov	r3, r5
 800515c:	f7fb f88c 	bl	8000278 <__aeabi_dsub>
 8005160:	a343      	add	r3, pc, #268	; (adr r3, 8005270 <__ieee754_rem_pio2+0x318>)
 8005162:	e9d3 2300 	ldrd	r2, r3, [r3]
 8005166:	4604      	mov	r4, r0
 8005168:	460d      	mov	r5, r1
 800516a:	ec51 0b18 	vmov	r0, r1, d8
 800516e:	f7fb fa3b 	bl	80005e8 <__aeabi_dmul>
 8005172:	4622      	mov	r2, r4
 8005174:	462b      	mov	r3, r5
 8005176:	f7fb f87f 	bl	8000278 <__aeabi_dsub>
 800517a:	4602      	mov	r2, r0
 800517c:	460b      	mov	r3, r1
 800517e:	4604      	mov	r4, r0
 8005180:	460d      	mov	r5, r1
 8005182:	4640      	mov	r0, r8
 8005184:	4649      	mov	r1, r9
 8005186:	f7fb f877 	bl	8000278 <__aeabi_dsub>
 800518a:	9a03      	ldr	r2, [sp, #12]
 800518c:	f3c1 530a 	ubfx	r3, r1, #20, #11
 8005190:	1ad3      	subs	r3, r2, r3
 8005192:	2b31      	cmp	r3, #49	; 0x31
 8005194:	dc24      	bgt.n	80051e0 <__ieee754_rem_pio2+0x288>
 8005196:	e9ca 0100 	strd	r0, r1, [sl]
 800519a:	4646      	mov	r6, r8
 800519c:	464f      	mov	r7, r9
 800519e:	e9da 8900 	ldrd	r8, r9, [sl]
 80051a2:	4630      	mov	r0, r6
 80051a4:	4642      	mov	r2, r8
 80051a6:	464b      	mov	r3, r9
 80051a8:	4639      	mov	r1, r7
 80051aa:	f7fb f865 	bl	8000278 <__aeabi_dsub>
 80051ae:	462b      	mov	r3, r5
 80051b0:	4622      	mov	r2, r4
 80051b2:	f7fb f861 	bl	8000278 <__aeabi_dsub>
 80051b6:	9b02      	ldr	r3, [sp, #8]
 80051b8:	2b00      	cmp	r3, #0
 80051ba:	e9ca 0102 	strd	r0, r1, [sl, #8]
 80051be:	f6bf af0b 	bge.w	8004fd8 <__ieee754_rem_pio2+0x80>
 80051c2:	f109 4300 	add.w	r3, r9, #2147483648	; 0x80000000
 80051c6:	f8ca 3004 	str.w	r3, [sl, #4]
 80051ca:	f101 4300 	add.w	r3, r1, #2147483648	; 0x80000000
 80051ce:	f8ca 8000 	str.w	r8, [sl]
 80051d2:	f8ca 0008 	str.w	r0, [sl, #8]
 80051d6:	f8ca 300c 	str.w	r3, [sl, #12]
 80051da:	f1cb 0b00 	rsb	fp, fp, #0
 80051de:	e6fb      	b.n	8004fd8 <__ieee754_rem_pio2+0x80>
 80051e0:	a327      	add	r3, pc, #156	; (adr r3, 8005280 <__ieee754_rem_pio2+0x328>)
 80051e2:	e9d3 2300 	ldrd	r2, r3, [r3]
 80051e6:	ec51 0b18 	vmov	r0, r1, d8
 80051ea:	f7fb f9fd 	bl	80005e8 <__aeabi_dmul>
 80051ee:	4604      	mov	r4, r0
 80051f0:	460d      	mov	r5, r1
 80051f2:	4602      	mov	r2, r0
 80051f4:	460b      	mov	r3, r1
 80051f6:	4640      	mov	r0, r8
 80051f8:	4649      	mov	r1, r9
 80051fa:	f7fb f83d 	bl	8000278 <__aeabi_dsub>
 80051fe:	4602      	mov	r2, r0
 8005200:	460b      	mov	r3, r1
 8005202:	4606      	mov	r6, r0
 8005204:	460f      	mov	r7, r1
 8005206:	4640      	mov	r0, r8
 8005208:	4649      	mov	r1, r9
 800520a:	f7fb f835 	bl	8000278 <__aeabi_dsub>
 800520e:	4622      	mov	r2, r4
 8005210:	462b      	mov	r3, r5
 8005212:	f7fb f831 	bl	8000278 <__aeabi_dsub>
 8005216:	a31c      	add	r3, pc, #112	; (adr r3, 8005288 <__ieee754_rem_pio2+0x330>)
 8005218:	e9d3 2300 	ldrd	r2, r3, [r3]
 800521c:	4604      	mov	r4, r0
 800521e:	460d      	mov	r5, r1
 8005220:	ec51 0b18 	vmov	r0, r1, d8
 8005224:	f7fb f9e0 	bl	80005e8 <__aeabi_dmul>
 8005228:	4622      	mov	r2, r4
 800522a:	462b      	mov	r3, r5
 800522c:	f7fb f824 	bl	8000278 <__aeabi_dsub>
 8005230:	4604      	mov	r4, r0
 8005232:	460d      	mov	r5, r1
 8005234:	e760      	b.n	80050f8 <__ieee754_rem_pio2+0x1a0>
 8005236:	4b1c      	ldr	r3, [pc, #112]	; (80052a8 <__ieee754_rem_pio2+0x350>)
 8005238:	4598      	cmp	r8, r3
 800523a:	dd37      	ble.n	80052ac <__ieee754_rem_pio2+0x354>
 800523c:	ee10 2a10 	vmov	r2, s0
 8005240:	462b      	mov	r3, r5
 8005242:	4620      	mov	r0, r4
 8005244:	4629      	mov	r1, r5
 8005246:	f7fb f817 	bl	8000278 <__aeabi_dsub>
 800524a:	e9ca 0102 	strd	r0, r1, [sl, #8]
 800524e:	e9ca 0100 	strd	r0, r1, [sl]
 8005252:	e695      	b.n	8004f80 <__ieee754_rem_pio2+0x28>
 8005254:	f3af 8000 	nop.w
 8005258:	54400000 	.word	0x54400000
 800525c:	3ff921fb 	.word	0x3ff921fb
 8005260:	1a626331 	.word	0x1a626331
 8005264:	3dd0b461 	.word	0x3dd0b461
 8005268:	1a600000 	.word	0x1a600000
 800526c:	3dd0b461 	.word	0x3dd0b461
 8005270:	2e037073 	.word	0x2e037073
 8005274:	3ba3198a 	.word	0x3ba3198a
 8005278:	6dc9c883 	.word	0x6dc9c883
 800527c:	3fe45f30 	.word	0x3fe45f30
 8005280:	2e000000 	.word	0x2e000000
 8005284:	3ba3198a 	.word	0x3ba3198a
 8005288:	252049c1 	.word	0x252049c1
 800528c:	397b839a 	.word	0x397b839a
 8005290:	3fe921fb 	.word	0x3fe921fb
 8005294:	4002d97b 	.word	0x4002d97b
 8005298:	3ff921fb 	.word	0x3ff921fb
 800529c:	413921fb 	.word	0x413921fb
 80052a0:	3fe00000 	.word	0x3fe00000
 80052a4:	08005c98 	.word	0x08005c98
 80052a8:	7fefffff 	.word	0x7fefffff
 80052ac:	ea4f 5628 	mov.w	r6, r8, asr #20
 80052b0:	f2a6 4616 	subw	r6, r6, #1046	; 0x416
 80052b4:	eba8 5106 	sub.w	r1, r8, r6, lsl #20
 80052b8:	4620      	mov	r0, r4
 80052ba:	460d      	mov	r5, r1
 80052bc:	f7fb fc44 	bl	8000b48 <__aeabi_d2iz>
 80052c0:	f7fb f928 	bl	8000514 <__aeabi_i2d>
 80052c4:	4602      	mov	r2, r0
 80052c6:	460b      	mov	r3, r1
 80052c8:	4620      	mov	r0, r4
 80052ca:	4629      	mov	r1, r5
 80052cc:	e9cd 2304 	strd	r2, r3, [sp, #16]
 80052d0:	f7fa ffd2 	bl	8000278 <__aeabi_dsub>
 80052d4:	4b21      	ldr	r3, [pc, #132]	; (800535c <__ieee754_rem_pio2+0x404>)
 80052d6:	2200      	movs	r2, #0
 80052d8:	f7fb f986 	bl	80005e8 <__aeabi_dmul>
 80052dc:	460d      	mov	r5, r1
 80052de:	4604      	mov	r4, r0
 80052e0:	f7fb fc32 	bl	8000b48 <__aeabi_d2iz>
 80052e4:	f7fb f916 	bl	8000514 <__aeabi_i2d>
 80052e8:	4602      	mov	r2, r0
 80052ea:	460b      	mov	r3, r1
 80052ec:	4620      	mov	r0, r4
 80052ee:	4629      	mov	r1, r5
 80052f0:	e9cd 2306 	strd	r2, r3, [sp, #24]
 80052f4:	f7fa ffc0 	bl	8000278 <__aeabi_dsub>
 80052f8:	4b18      	ldr	r3, [pc, #96]	; (800535c <__ieee754_rem_pio2+0x404>)
 80052fa:	2200      	movs	r2, #0
 80052fc:	f7fb f974 	bl	80005e8 <__aeabi_dmul>
 8005300:	e9cd 0108 	strd	r0, r1, [sp, #32]
 8005304:	f10d 0828 	add.w	r8, sp, #40	; 0x28
 8005308:	2703      	movs	r7, #3
 800530a:	2400      	movs	r4, #0
 800530c:	2500      	movs	r5, #0
 800530e:	e978 0102 	ldrd	r0, r1, [r8, #-8]!
 8005312:	4622      	mov	r2, r4
 8005314:	462b      	mov	r3, r5
 8005316:	46b9      	mov	r9, r7
 8005318:	3f01      	subs	r7, #1
 800531a:	f7fb fbcd 	bl	8000ab8 <__aeabi_dcmpeq>
 800531e:	2800      	cmp	r0, #0
 8005320:	d1f5      	bne.n	800530e <__ieee754_rem_pio2+0x3b6>
 8005322:	4b0f      	ldr	r3, [pc, #60]	; (8005360 <__ieee754_rem_pio2+0x408>)
 8005324:	9301      	str	r3, [sp, #4]
 8005326:	2302      	movs	r3, #2
 8005328:	9300      	str	r3, [sp, #0]
 800532a:	4632      	mov	r2, r6
 800532c:	464b      	mov	r3, r9
 800532e:	4651      	mov	r1, sl
 8005330:	a804      	add	r0, sp, #16
 8005332:	f000 f821 	bl	8005378 <__kernel_rem_pio2>
 8005336:	9b02      	ldr	r3, [sp, #8]
 8005338:	2b00      	cmp	r3, #0
 800533a:	4683      	mov	fp, r0
 800533c:	f6bf ae4c 	bge.w	8004fd8 <__ieee754_rem_pio2+0x80>
 8005340:	e9da 2100 	ldrd	r2, r1, [sl]
 8005344:	f101 4300 	add.w	r3, r1, #2147483648	; 0x80000000
 8005348:	e9ca 2300 	strd	r2, r3, [sl]
 800534c:	e9da 2102 	ldrd	r2, r1, [sl, #8]
 8005350:	f101 4300 	add.w	r3, r1, #2147483648	; 0x80000000
 8005354:	e9ca 2302 	strd	r2, r3, [sl, #8]
 8005358:	e73f      	b.n	80051da <__ieee754_rem_pio2+0x282>
 800535a:	bf00      	nop
 800535c:	41700000 	.word	0x41700000
 8005360:	08005d18 	.word	0x08005d18

08005364 <fabs>:
 8005364:	ec51 0b10 	vmov	r0, r1, d0
 8005368:	ee10 2a10 	vmov	r2, s0
 800536c:	f021 4300 	bic.w	r3, r1, #2147483648	; 0x80000000
 8005370:	ec43 2b10 	vmov	d0, r2, r3
 8005374:	4770      	bx	lr
	...

08005378 <__kernel_rem_pio2>:
 8005378:	e92d 4ff0 	stmdb	sp!, {r4, r5, r6, r7, r8, r9, sl, fp, lr}
 800537c:	ed2d 8b02 	vpush	{d8}
 8005380:	f5ad 7d19 	sub.w	sp, sp, #612	; 0x264
 8005384:	f112 0f14 	cmn.w	r2, #20
 8005388:	9306      	str	r3, [sp, #24]
 800538a:	9104      	str	r1, [sp, #16]
 800538c:	4bc2      	ldr	r3, [pc, #776]	; (8005698 <__kernel_rem_pio2+0x320>)
 800538e:	99a4      	ldr	r1, [sp, #656]	; 0x290
 8005390:	9009      	str	r0, [sp, #36]	; 0x24
 8005392:	f853 3021 	ldr.w	r3, [r3, r1, lsl #2]
 8005396:	9300      	str	r3, [sp, #0]
 8005398:	9b06      	ldr	r3, [sp, #24]
 800539a:	f103 33ff 	add.w	r3, r3, #4294967295
 800539e:	bfa8      	it	ge
 80053a0:	1ed4      	subge	r4, r2, #3
 80053a2:	9305      	str	r3, [sp, #20]
 80053a4:	bfb2      	itee	lt
 80053a6:	2400      	movlt	r4, #0
 80053a8:	2318      	movge	r3, #24
 80053aa:	fb94 f4f3 	sdivge	r4, r4, r3
 80053ae:	f06f 0317 	mvn.w	r3, #23
 80053b2:	fb04 3303 	mla	r3, r4, r3, r3
 80053b6:	eb03 0a02 	add.w	sl, r3, r2
 80053ba:	9b00      	ldr	r3, [sp, #0]
 80053bc:	9a05      	ldr	r2, [sp, #20]
 80053be:	ed9f 8bb2 	vldr	d8, [pc, #712]	; 8005688 <__kernel_rem_pio2+0x310>
 80053c2:	eb03 0802 	add.w	r8, r3, r2
 80053c6:	9ba5      	ldr	r3, [sp, #660]	; 0x294
 80053c8:	1aa7      	subs	r7, r4, r2
 80053ca:	ae20      	add	r6, sp, #128	; 0x80
 80053cc:	eb03 0987 	add.w	r9, r3, r7, lsl #2
 80053d0:	2500      	movs	r5, #0
 80053d2:	4545      	cmp	r5, r8
 80053d4:	dd13      	ble.n	80053fe <__kernel_rem_pio2+0x86>
 80053d6:	9b06      	ldr	r3, [sp, #24]
 80053d8:	aa20      	add	r2, sp, #128	; 0x80
 80053da:	eb02 05c3 	add.w	r5, r2, r3, lsl #3
 80053de:	f50d 7be0 	add.w	fp, sp, #448	; 0x1c0
 80053e2:	f04f 0800 	mov.w	r8, #0
 80053e6:	9b00      	ldr	r3, [sp, #0]
 80053e8:	4598      	cmp	r8, r3
 80053ea:	dc31      	bgt.n	8005450 <__kernel_rem_pio2+0xd8>
 80053ec:	ed9f 7ba6 	vldr	d7, [pc, #664]	; 8005688 <__kernel_rem_pio2+0x310>
 80053f0:	f8dd 9024 	ldr.w	r9, [sp, #36]	; 0x24
 80053f4:	ed8d 7b02 	vstr	d7, [sp, #8]
 80053f8:	462f      	mov	r7, r5
 80053fa:	2600      	movs	r6, #0
 80053fc:	e01b      	b.n	8005436 <__kernel_rem_pio2+0xbe>
 80053fe:	42ef      	cmn	r7, r5
 8005400:	d407      	bmi.n	8005412 <__kernel_rem_pio2+0x9a>
 8005402:	f859 0025 	ldr.w	r0, [r9, r5, lsl #2]
 8005406:	f7fb f885 	bl	8000514 <__aeabi_i2d>
 800540a:	e8e6 0102 	strd	r0, r1, [r6], #8
 800540e:	3501      	adds	r5, #1
 8005410:	e7df      	b.n	80053d2 <__kernel_rem_pio2+0x5a>
 8005412:	ec51 0b18 	vmov	r0, r1, d8
 8005416:	e7f8      	b.n	800540a <__kernel_rem_pio2+0x92>
 8005418:	e9d7 2300 	ldrd	r2, r3, [r7]
 800541c:	e8f9 0102 	ldrd	r0, r1, [r9], #8
 8005420:	f7fb f8e2 	bl	80005e8 <__aeabi_dmul>
 8005424:	4602      	mov	r2, r0
 8005426:	460b      	mov	r3, r1
 8005428:	e9dd 0102 	ldrd	r0, r1, [sp, #8]
 800542c:	f7fa ff26 	bl	800027c <__adddf3>
 8005430:	e9cd 0102 	strd	r0, r1, [sp, #8]
 8005434:	3601      	adds	r6, #1
 8005436:	9b05      	ldr	r3, [sp, #20]
 8005438:	429e      	cmp	r6, r3
 800543a:	f1a7 0708 	sub.w	r7, r7, #8
 800543e:	ddeb      	ble.n	8005418 <__kernel_rem_pio2+0xa0>
 8005440:	ed9d 7b02 	vldr	d7, [sp, #8]
 8005444:	f108 0801 	add.w	r8, r8, #1
 8005448:	ecab 7b02 	vstmia	fp!, {d7}
 800544c:	3508      	adds	r5, #8
 800544e:	e7ca      	b.n	80053e6 <__kernel_rem_pio2+0x6e>
 8005450:	9b00      	ldr	r3, [sp, #0]
 8005452:	aa0c      	add	r2, sp, #48	; 0x30
 8005454:	eb02 0383 	add.w	r3, r2, r3, lsl #2
 8005458:	930b      	str	r3, [sp, #44]	; 0x2c
 800545a:	9ba5      	ldr	r3, [sp, #660]	; 0x294
 800545c:	eb03 0384 	add.w	r3, r3, r4, lsl #2
 8005460:	9c00      	ldr	r4, [sp, #0]
 8005462:	930a      	str	r3, [sp, #40]	; 0x28
 8005464:	00e3      	lsls	r3, r4, #3
 8005466:	9308      	str	r3, [sp, #32]
 8005468:	ab98      	add	r3, sp, #608	; 0x260
 800546a:	eb03 03c4 	add.w	r3, r3, r4, lsl #3
 800546e:	e953 6728 	ldrd	r6, r7, [r3, #-160]	; 0xa0
 8005472:	f10d 0830 	add.w	r8, sp, #48	; 0x30
 8005476:	ab70      	add	r3, sp, #448	; 0x1c0
 8005478:	eb03 05c4 	add.w	r5, r3, r4, lsl #3
 800547c:	46c3      	mov	fp, r8
 800547e:	46a1      	mov	r9, r4
 8005480:	f1b9 0f00 	cmp.w	r9, #0
 8005484:	f1a5 0508 	sub.w	r5, r5, #8
 8005488:	dc77      	bgt.n	800557a <__kernel_rem_pio2+0x202>
 800548a:	ec47 6b10 	vmov	d0, r6, r7
 800548e:	4650      	mov	r0, sl
 8005490:	f000 fac2 	bl	8005a18 <scalbn>
 8005494:	ec57 6b10 	vmov	r6, r7, d0
 8005498:	2200      	movs	r2, #0
 800549a:	f04f 537f 	mov.w	r3, #1069547520	; 0x3fc00000
 800549e:	ee10 0a10 	vmov	r0, s0
 80054a2:	4639      	mov	r1, r7
 80054a4:	f7fb f8a0 	bl	80005e8 <__aeabi_dmul>
 80054a8:	ec41 0b10 	vmov	d0, r0, r1
 80054ac:	f000 fb34 	bl	8005b18 <floor>
 80054b0:	4b7a      	ldr	r3, [pc, #488]	; (800569c <__kernel_rem_pio2+0x324>)
 80054b2:	ec51 0b10 	vmov	r0, r1, d0
 80054b6:	2200      	movs	r2, #0
 80054b8:	f7fb f896 	bl	80005e8 <__aeabi_dmul>
 80054bc:	4602      	mov	r2, r0
 80054be:	460b      	mov	r3, r1
 80054c0:	4630      	mov	r0, r6
 80054c2:	4639      	mov	r1, r7
 80054c4:	f7fa fed8 	bl	8000278 <__aeabi_dsub>
 80054c8:	460f      	mov	r7, r1
 80054ca:	4606      	mov	r6, r0
 80054cc:	f7fb fb3c 	bl	8000b48 <__aeabi_d2iz>
 80054d0:	9002      	str	r0, [sp, #8]
 80054d2:	f7fb f81f 	bl	8000514 <__aeabi_i2d>
 80054d6:	4602      	mov	r2, r0
 80054d8:	460b      	mov	r3, r1
 80054da:	4630      	mov	r0, r6
 80054dc:	4639      	mov	r1, r7
 80054de:	f7fa fecb 	bl	8000278 <__aeabi_dsub>
 80054e2:	f1ba 0f00 	cmp.w	sl, #0
 80054e6:	4606      	mov	r6, r0
 80054e8:	460f      	mov	r7, r1
 80054ea:	dd6d      	ble.n	80055c8 <__kernel_rem_pio2+0x250>
 80054ec:	1e61      	subs	r1, r4, #1
 80054ee:	ab0c      	add	r3, sp, #48	; 0x30
 80054f0:	9d02      	ldr	r5, [sp, #8]
 80054f2:	f853 3021 	ldr.w	r3, [r3, r1, lsl #2]
 80054f6:	f1ca 0018 	rsb	r0, sl, #24
 80054fa:	fa43 f200 	asr.w	r2, r3, r0
 80054fe:	4415      	add	r5, r2
 8005500:	4082      	lsls	r2, r0
 8005502:	1a9b      	subs	r3, r3, r2
 8005504:	aa0c      	add	r2, sp, #48	; 0x30
 8005506:	9502      	str	r5, [sp, #8]
 8005508:	f842 3021 	str.w	r3, [r2, r1, lsl #2]
 800550c:	f1ca 0217 	rsb	r2, sl, #23
 8005510:	fa43 fb02 	asr.w	fp, r3, r2
 8005514:	f1bb 0f00 	cmp.w	fp, #0
 8005518:	dd65      	ble.n	80055e6 <__kernel_rem_pio2+0x26e>
 800551a:	9b02      	ldr	r3, [sp, #8]
 800551c:	2200      	movs	r2, #0
 800551e:	3301      	adds	r3, #1
 8005520:	9302      	str	r3, [sp, #8]
 8005522:	4615      	mov	r5, r2
 8005524:	f06f 417f 	mvn.w	r1, #4278190080	; 0xff000000
 8005528:	4294      	cmp	r4, r2
 800552a:	f300 809f 	bgt.w	800566c <__kernel_rem_pio2+0x2f4>
 800552e:	f1ba 0f00 	cmp.w	sl, #0
 8005532:	dd07      	ble.n	8005544 <__kernel_rem_pio2+0x1cc>
 8005534:	f1ba 0f01 	cmp.w	sl, #1
 8005538:	f000 80c1 	beq.w	80056be <__kernel_rem_pio2+0x346>
 800553c:	f1ba 0f02 	cmp.w	sl, #2
 8005540:	f000 80c7 	beq.w	80056d2 <__kernel_rem_pio2+0x35a>
 8005544:	f1bb 0f02 	cmp.w	fp, #2
 8005548:	d14d      	bne.n	80055e6 <__kernel_rem_pio2+0x26e>
 800554a:	4632      	mov	r2, r6
 800554c:	463b      	mov	r3, r7
 800554e:	4954      	ldr	r1, [pc, #336]	; (80056a0 <__kernel_rem_pio2+0x328>)
 8005550:	2000      	movs	r0, #0
 8005552:	f7fa fe91 	bl	8000278 <__aeabi_dsub>
 8005556:	4606      	mov	r6, r0
 8005558:	460f      	mov	r7, r1
 800555a:	2d00      	cmp	r5, #0
 800555c:	d043      	beq.n	80055e6 <__kernel_rem_pio2+0x26e>
 800555e:	4650      	mov	r0, sl
 8005560:	ed9f 0b4b 	vldr	d0, [pc, #300]	; 8005690 <__kernel_rem_pio2+0x318>
 8005564:	f000 fa58 	bl	8005a18 <scalbn>
 8005568:	4630      	mov	r0, r6
 800556a:	4639      	mov	r1, r7
 800556c:	ec53 2b10 	vmov	r2, r3, d0
 8005570:	f7fa fe82 	bl	8000278 <__aeabi_dsub>
 8005574:	4606      	mov	r6, r0
 8005576:	460f      	mov	r7, r1
 8005578:	e035      	b.n	80055e6 <__kernel_rem_pio2+0x26e>
 800557a:	4b4a      	ldr	r3, [pc, #296]	; (80056a4 <__kernel_rem_pio2+0x32c>)
 800557c:	2200      	movs	r2, #0
 800557e:	4630      	mov	r0, r6
 8005580:	4639      	mov	r1, r7
 8005582:	f7fb f831 	bl	80005e8 <__aeabi_dmul>
 8005586:	f7fb fadf 	bl	8000b48 <__aeabi_d2iz>
 800558a:	f7fa ffc3 	bl	8000514 <__aeabi_i2d>
 800558e:	4602      	mov	r2, r0
 8005590:	460b      	mov	r3, r1
 8005592:	ec43 2b18 	vmov	d8, r2, r3
 8005596:	4b44      	ldr	r3, [pc, #272]	; (80056a8 <__kernel_rem_pio2+0x330>)
 8005598:	2200      	movs	r2, #0
 800559a:	f7fb f825 	bl	80005e8 <__aeabi_dmul>
 800559e:	4602      	mov	r2, r0
 80055a0:	460b      	mov	r3, r1
 80055a2:	4630      	mov	r0, r6
 80055a4:	4639      	mov	r1, r7
 80055a6:	f7fa fe67 	bl	8000278 <__aeabi_dsub>
 80055aa:	f7fb facd 	bl	8000b48 <__aeabi_d2iz>
 80055ae:	e9d5 2300 	ldrd	r2, r3, [r5]
 80055b2:	f84b 0b04 	str.w	r0, [fp], #4
 80055b6:	ec51 0b18 	vmov	r0, r1, d8
 80055ba:	f7fa fe5f 	bl	800027c <__adddf3>
 80055be:	f109 39ff 	add.w	r9, r9, #4294967295
 80055c2:	4606      	mov	r6, r0
 80055c4:	460f      	mov	r7, r1
 80055c6:	e75b      	b.n	8005480 <__kernel_rem_pio2+0x108>
 80055c8:	d106      	bne.n	80055d8 <__kernel_rem_pio2+0x260>
 80055ca:	1e63      	subs	r3, r4, #1
 80055cc:	aa0c      	add	r2, sp, #48	; 0x30
 80055ce:	f852 3023 	ldr.w	r3, [r2, r3, lsl #2]
 80055d2:	ea4f 5be3 	mov.w	fp, r3, asr #23
 80055d6:	e79d      	b.n	8005514 <__kernel_rem_pio2+0x19c>
 80055d8:	4b34      	ldr	r3, [pc, #208]	; (80056ac <__kernel_rem_pio2+0x334>)
 80055da:	2200      	movs	r2, #0
 80055dc:	f7fb fa8a 	bl	8000af4 <__aeabi_dcmpge>
 80055e0:	2800      	cmp	r0, #0
 80055e2:	d140      	bne.n	8005666 <__kernel_rem_pio2+0x2ee>
 80055e4:	4683      	mov	fp, r0
 80055e6:	2200      	movs	r2, #0
 80055e8:	2300      	movs	r3, #0
 80055ea:	4630      	mov	r0, r6
 80055ec:	4639      	mov	r1, r7
 80055ee:	f7fb fa63 	bl	8000ab8 <__aeabi_dcmpeq>
 80055f2:	2800      	cmp	r0, #0
 80055f4:	f000 80c1 	beq.w	800577a <__kernel_rem_pio2+0x402>
 80055f8:	1e65      	subs	r5, r4, #1
 80055fa:	462b      	mov	r3, r5
 80055fc:	2200      	movs	r2, #0
 80055fe:	9900      	ldr	r1, [sp, #0]
 8005600:	428b      	cmp	r3, r1
 8005602:	da6d      	bge.n	80056e0 <__kernel_rem_pio2+0x368>
 8005604:	2a00      	cmp	r2, #0
 8005606:	f000 808a 	beq.w	800571e <__kernel_rem_pio2+0x3a6>
 800560a:	ab0c      	add	r3, sp, #48	; 0x30
 800560c:	f1aa 0a18 	sub.w	sl, sl, #24
 8005610:	f853 3025 	ldr.w	r3, [r3, r5, lsl #2]
 8005614:	2b00      	cmp	r3, #0
 8005616:	f000 80ae 	beq.w	8005776 <__kernel_rem_pio2+0x3fe>
 800561a:	4650      	mov	r0, sl
 800561c:	ed9f 0b1c 	vldr	d0, [pc, #112]	; 8005690 <__kernel_rem_pio2+0x318>
 8005620:	f000 f9fa 	bl	8005a18 <scalbn>
 8005624:	1c6b      	adds	r3, r5, #1
 8005626:	00da      	lsls	r2, r3, #3
 8005628:	9205      	str	r2, [sp, #20]
 800562a:	ec57 6b10 	vmov	r6, r7, d0
 800562e:	aa70      	add	r2, sp, #448	; 0x1c0
 8005630:	f8df 9070 	ldr.w	r9, [pc, #112]	; 80056a4 <__kernel_rem_pio2+0x32c>
 8005634:	eb02 0ac3 	add.w	sl, r2, r3, lsl #3
 8005638:	462c      	mov	r4, r5
 800563a:	f04f 0800 	mov.w	r8, #0
 800563e:	2c00      	cmp	r4, #0
 8005640:	f280 80d4 	bge.w	80057ec <__kernel_rem_pio2+0x474>
 8005644:	462c      	mov	r4, r5
 8005646:	2c00      	cmp	r4, #0
 8005648:	f2c0 8102 	blt.w	8005850 <__kernel_rem_pio2+0x4d8>
 800564c:	4b18      	ldr	r3, [pc, #96]	; (80056b0 <__kernel_rem_pio2+0x338>)
 800564e:	461e      	mov	r6, r3
 8005650:	ab70      	add	r3, sp, #448	; 0x1c0
 8005652:	eb03 08c4 	add.w	r8, r3, r4, lsl #3
 8005656:	1b2b      	subs	r3, r5, r4
 8005658:	f04f 0900 	mov.w	r9, #0
 800565c:	f04f 0a00 	mov.w	sl, #0
 8005660:	2700      	movs	r7, #0
 8005662:	9306      	str	r3, [sp, #24]
 8005664:	e0e6      	b.n	8005834 <__kernel_rem_pio2+0x4bc>
 8005666:	f04f 0b02 	mov.w	fp, #2
 800566a:	e756      	b.n	800551a <__kernel_rem_pio2+0x1a2>
 800566c:	f8d8 3000 	ldr.w	r3, [r8]
 8005670:	bb05      	cbnz	r5, 80056b4 <__kernel_rem_pio2+0x33c>
 8005672:	b123      	cbz	r3, 800567e <__kernel_rem_pio2+0x306>
 8005674:	f1c3 7380 	rsb	r3, r3, #16777216	; 0x1000000
 8005678:	f8c8 3000 	str.w	r3, [r8]
 800567c:	2301      	movs	r3, #1
 800567e:	3201      	adds	r2, #1
 8005680:	f108 0804 	add.w	r8, r8, #4
 8005684:	461d      	mov	r5, r3
 8005686:	e74f      	b.n	8005528 <__kernel_rem_pio2+0x1b0>
	...
 8005694:	3ff00000 	.word	0x3ff00000
 8005698:	08005e60 	.word	0x08005e60
 800569c:	40200000 	.word	0x40200000
 80056a0:	3ff00000 	.word	0x3ff00000
 80056a4:	3e700000 	.word	0x3e700000
 80056a8:	41700000 	.word	0x41700000
 80056ac:	3fe00000 	.word	0x3fe00000
 80056b0:	08005e20 	.word	0x08005e20
 80056b4:	1acb      	subs	r3, r1, r3
 80056b6:	f8c8 3000 	str.w	r3, [r8]
 80056ba:	462b      	mov	r3, r5
 80056bc:	e7df      	b.n	800567e <__kernel_rem_pio2+0x306>
 80056be:	1e62      	subs	r2, r4, #1
 80056c0:	ab0c      	add	r3, sp, #48	; 0x30
 80056c2:	f853 3022 	ldr.w	r3, [r3, r2, lsl #2]
 80056c6:	f3c3 0316 	ubfx	r3, r3, #0, #23
 80056ca:	a90c      	add	r1, sp, #48	; 0x30
 80056cc:	f841 3022 	str.w	r3, [r1, r2, lsl #2]
 80056d0:	e738      	b.n	8005544 <__kernel_rem_pio2+0x1cc>
 80056d2:	1e62      	subs	r2, r4, #1
 80056d4:	ab0c      	add	r3, sp, #48	; 0x30
 80056d6:	f853 3022 	ldr.w	r3, [r3, r2, lsl #2]
 80056da:	f3c3 0315 	ubfx	r3, r3, #0, #22
 80056de:	e7f4      	b.n	80056ca <__kernel_rem_pio2+0x352>
 80056e0:	a90c      	add	r1, sp, #48	; 0x30
 80056e2:	f851 1023 	ldr.w	r1, [r1, r3, lsl #2]
 80056e6:	3b01      	subs	r3, #1
 80056e8:	430a      	orrs	r2, r1
 80056ea:	e788      	b.n	80055fe <__kernel_rem_pio2+0x286>
 80056ec:	3301      	adds	r3, #1
 80056ee:	f852 1d04 	ldr.w	r1, [r2, #-4]!
 80056f2:	2900      	cmp	r1, #0
 80056f4:	d0fa      	beq.n	80056ec <__kernel_rem_pio2+0x374>
 80056f6:	9a08      	ldr	r2, [sp, #32]
 80056f8:	f502 7218 	add.w	r2, r2, #608	; 0x260
 80056fc:	446a      	add	r2, sp
 80056fe:	3a98      	subs	r2, #152	; 0x98
 8005700:	9208      	str	r2, [sp, #32]
 8005702:	9a06      	ldr	r2, [sp, #24]
 8005704:	a920      	add	r1, sp, #128	; 0x80
 8005706:	18a2      	adds	r2, r4, r2
 8005708:	18e3      	adds	r3, r4, r3
 800570a:	f104 0801 	add.w	r8, r4, #1
 800570e:	eb01 05c2 	add.w	r5, r1, r2, lsl #3
 8005712:	9302      	str	r3, [sp, #8]
 8005714:	9b02      	ldr	r3, [sp, #8]
 8005716:	4543      	cmp	r3, r8
 8005718:	da04      	bge.n	8005724 <__kernel_rem_pio2+0x3ac>
 800571a:	461c      	mov	r4, r3
 800571c:	e6a2      	b.n	8005464 <__kernel_rem_pio2+0xec>
 800571e:	9a0b      	ldr	r2, [sp, #44]	; 0x2c
 8005720:	2301      	movs	r3, #1
 8005722:	e7e4      	b.n	80056ee <__kernel_rem_pio2+0x376>
 8005724:	9b0a      	ldr	r3, [sp, #40]	; 0x28
 8005726:	f853 0028 	ldr.w	r0, [r3, r8, lsl #2]
 800572a:	f7fa fef3 	bl	8000514 <__aeabi_i2d>
 800572e:	e8e5 0102 	strd	r0, r1, [r5], #8
 8005732:	9b09      	ldr	r3, [sp, #36]	; 0x24
 8005734:	46ab      	mov	fp, r5
 8005736:	461c      	mov	r4, r3
 8005738:	f04f 0900 	mov.w	r9, #0
 800573c:	2600      	movs	r6, #0
 800573e:	2700      	movs	r7, #0
 8005740:	9b05      	ldr	r3, [sp, #20]
 8005742:	4599      	cmp	r9, r3
 8005744:	dd06      	ble.n	8005754 <__kernel_rem_pio2+0x3dc>
 8005746:	9b08      	ldr	r3, [sp, #32]
 8005748:	e8e3 6702 	strd	r6, r7, [r3], #8
 800574c:	f108 0801 	add.w	r8, r8, #1
 8005750:	9308      	str	r3, [sp, #32]
 8005752:	e7df      	b.n	8005714 <__kernel_rem_pio2+0x39c>
 8005754:	e97b 2302 	ldrd	r2, r3, [fp, #-8]!
 8005758:	e8f4 0102 	ldrd	r0, r1, [r4], #8
 800575c:	f7fa ff44 	bl	80005e8 <__aeabi_dmul>
 8005760:	4602      	mov	r2, r0
 8005762:	460b      	mov	r3, r1
 8005764:	4630      	mov	r0, r6
 8005766:	4639      	mov	r1, r7
 8005768:	f7fa fd88 	bl	800027c <__adddf3>
 800576c:	f109 0901 	add.w	r9, r9, #1
 8005770:	4606      	mov	r6, r0
 8005772:	460f      	mov	r7, r1
 8005774:	e7e4      	b.n	8005740 <__kernel_rem_pio2+0x3c8>
 8005776:	3d01      	subs	r5, #1
 8005778:	e747      	b.n	800560a <__kernel_rem_pio2+0x292>
 800577a:	ec47 6b10 	vmov	d0, r6, r7
 800577e:	f1ca 0000 	rsb	r0, sl, #0
 8005782:	f000 f949 	bl	8005a18 <scalbn>
 8005786:	ec57 6b10 	vmov	r6, r7, d0
 800578a:	4ba0      	ldr	r3, [pc, #640]	; (8005a0c <__kernel_rem_pio2+0x694>)
 800578c:	ee10 0a10 	vmov	r0, s0
 8005790:	2200      	movs	r2, #0
 8005792:	4639      	mov	r1, r7
 8005794:	f7fb f9ae 	bl	8000af4 <__aeabi_dcmpge>
 8005798:	b1f8      	cbz	r0, 80057da <__kernel_rem_pio2+0x462>
 800579a:	4b9d      	ldr	r3, [pc, #628]	; (8005a10 <__kernel_rem_pio2+0x698>)
 800579c:	2200      	movs	r2, #0
 800579e:	4630      	mov	r0, r6
 80057a0:	4639      	mov	r1, r7
 80057a2:	f7fa ff21 	bl	80005e8 <__aeabi_dmul>
 80057a6:	f7fb f9cf 	bl	8000b48 <__aeabi_d2iz>
 80057aa:	4680      	mov	r8, r0
 80057ac:	f7fa feb2 	bl	8000514 <__aeabi_i2d>
 80057b0:	4b96      	ldr	r3, [pc, #600]	; (8005a0c <__kernel_rem_pio2+0x694>)
 80057b2:	2200      	movs	r2, #0
 80057b4:	f7fa ff18 	bl	80005e8 <__aeabi_dmul>
 80057b8:	460b      	mov	r3, r1
 80057ba:	4602      	mov	r2, r0
 80057bc:	4639      	mov	r1, r7
 80057be:	4630      	mov	r0, r6
 80057c0:	f7fa fd5a 	bl	8000278 <__aeabi_dsub>
 80057c4:	f7fb f9c0 	bl	8000b48 <__aeabi_d2iz>
 80057c8:	1c65      	adds	r5, r4, #1
 80057ca:	ab0c      	add	r3, sp, #48	; 0x30
 80057cc:	f10a 0a18 	add.w	sl, sl, #24
 80057d0:	f843 0024 	str.w	r0, [r3, r4, lsl #2]
 80057d4:	f843 8025 	str.w	r8, [r3, r5, lsl #2]
 80057d8:	e71f      	b.n	800561a <__kernel_rem_pio2+0x2a2>
 80057da:	4630      	mov	r0, r6
 80057dc:	4639      	mov	r1, r7
 80057de:	f7fb f9b3 	bl	8000b48 <__aeabi_d2iz>
 80057e2:	ab0c      	add	r3, sp, #48	; 0x30
 80057e4:	4625      	mov	r5, r4
 80057e6:	f843 0024 	str.w	r0, [r3, r4, lsl #2]
 80057ea:	e716      	b.n	800561a <__kernel_rem_pio2+0x2a2>
 80057ec:	ab0c      	add	r3, sp, #48	; 0x30
 80057ee:	f853 0024 	ldr.w	r0, [r3, r4, lsl #2]
 80057f2:	f7fa fe8f 	bl	8000514 <__aeabi_i2d>
 80057f6:	4632      	mov	r2, r6
 80057f8:	463b      	mov	r3, r7
 80057fa:	f7fa fef5 	bl	80005e8 <__aeabi_dmul>
 80057fe:	4642      	mov	r2, r8
 8005800:	e96a 0102 	strd	r0, r1, [sl, #-8]!
 8005804:	464b      	mov	r3, r9
 8005806:	4630      	mov	r0, r6
 8005808:	4639      	mov	r1, r7
 800580a:	f7fa feed 	bl	80005e8 <__aeabi_dmul>
 800580e:	3c01      	subs	r4, #1
 8005810:	4606      	mov	r6, r0
 8005812:	460f      	mov	r7, r1
 8005814:	e713      	b.n	800563e <__kernel_rem_pio2+0x2c6>
 8005816:	e8f8 2302 	ldrd	r2, r3, [r8], #8
 800581a:	e8f6 0102 	ldrd	r0, r1, [r6], #8
 800581e:	f7fa fee3 	bl	80005e8 <__aeabi_dmul>
 8005822:	4602      	mov	r2, r0
 8005824:	460b      	mov	r3, r1
 8005826:	4648      	mov	r0, r9
 8005828:	4651      	mov	r1, sl
 800582a:	f7fa fd27 	bl	800027c <__adddf3>
 800582e:	3701      	adds	r7, #1
 8005830:	4681      	mov	r9, r0
 8005832:	468a      	mov	sl, r1
 8005834:	9b00      	ldr	r3, [sp, #0]
 8005836:	429f      	cmp	r7, r3
 8005838:	dc02      	bgt.n	8005840 <__kernel_rem_pio2+0x4c8>
 800583a:	9b06      	ldr	r3, [sp, #24]
 800583c:	429f      	cmp	r7, r3
 800583e:	ddea      	ble.n	8005816 <__kernel_rem_pio2+0x49e>
 8005840:	9a06      	ldr	r2, [sp, #24]
 8005842:	ab48      	add	r3, sp, #288	; 0x120
 8005844:	eb03 06c2 	add.w	r6, r3, r2, lsl #3
 8005848:	e9c6 9a00 	strd	r9, sl, [r6]
 800584c:	3c01      	subs	r4, #1
 800584e:	e6fa      	b.n	8005646 <__kernel_rem_pio2+0x2ce>
 8005850:	9ba4      	ldr	r3, [sp, #656]	; 0x290
 8005852:	2b02      	cmp	r3, #2
 8005854:	dc0b      	bgt.n	800586e <__kernel_rem_pio2+0x4f6>
 8005856:	2b00      	cmp	r3, #0
 8005858:	dc39      	bgt.n	80058ce <__kernel_rem_pio2+0x556>
 800585a:	d05d      	beq.n	8005918 <__kernel_rem_pio2+0x5a0>
 800585c:	9b02      	ldr	r3, [sp, #8]
 800585e:	f003 0007 	and.w	r0, r3, #7
 8005862:	f50d 7d19 	add.w	sp, sp, #612	; 0x264
 8005866:	ecbd 8b02 	vpop	{d8}
 800586a:	e8bd 8ff0 	ldmia.w	sp!, {r4, r5, r6, r7, r8, r9, sl, fp, pc}
 800586e:	9ba4      	ldr	r3, [sp, #656]	; 0x290
 8005870:	2b03      	cmp	r3, #3
 8005872:	d1f3      	bne.n	800585c <__kernel_rem_pio2+0x4e4>
 8005874:	9b05      	ldr	r3, [sp, #20]
 8005876:	9500      	str	r5, [sp, #0]
 8005878:	f503 7318 	add.w	r3, r3, #608	; 0x260
 800587c:	eb0d 0403 	add.w	r4, sp, r3
 8005880:	f5a4 74a4 	sub.w	r4, r4, #328	; 0x148
 8005884:	46a2      	mov	sl, r4
 8005886:	9b00      	ldr	r3, [sp, #0]
 8005888:	2b00      	cmp	r3, #0
 800588a:	f1aa 0a08 	sub.w	sl, sl, #8
 800588e:	dc69      	bgt.n	8005964 <__kernel_rem_pio2+0x5ec>
 8005890:	46aa      	mov	sl, r5
 8005892:	f1ba 0f01 	cmp.w	sl, #1
 8005896:	f1a4 0408 	sub.w	r4, r4, #8
 800589a:	f300 8083 	bgt.w	80059a4 <__kernel_rem_pio2+0x62c>
 800589e:	9c05      	ldr	r4, [sp, #20]
 80058a0:	ab48      	add	r3, sp, #288	; 0x120
 80058a2:	441c      	add	r4, r3
 80058a4:	2000      	movs	r0, #0
 80058a6:	2100      	movs	r1, #0
 80058a8:	2d01      	cmp	r5, #1
 80058aa:	f300 809a 	bgt.w	80059e2 <__kernel_rem_pio2+0x66a>
 80058ae:	e9dd 7848 	ldrd	r7, r8, [sp, #288]	; 0x120
 80058b2:	e9dd 564a 	ldrd	r5, r6, [sp, #296]	; 0x128
 80058b6:	f1bb 0f00 	cmp.w	fp, #0
 80058ba:	f040 8098 	bne.w	80059ee <__kernel_rem_pio2+0x676>
 80058be:	9b04      	ldr	r3, [sp, #16]
 80058c0:	e9c3 7800 	strd	r7, r8, [r3]
 80058c4:	e9c3 5602 	strd	r5, r6, [r3, #8]
 80058c8:	e9c3 0104 	strd	r0, r1, [r3, #16]
 80058cc:	e7c6      	b.n	800585c <__kernel_rem_pio2+0x4e4>
 80058ce:	9e05      	ldr	r6, [sp, #20]
 80058d0:	ab48      	add	r3, sp, #288	; 0x120
 80058d2:	441e      	add	r6, r3
 80058d4:	462c      	mov	r4, r5
 80058d6:	2000      	movs	r0, #0
 80058d8:	2100      	movs	r1, #0
 80058da:	2c00      	cmp	r4, #0
 80058dc:	da33      	bge.n	8005946 <__kernel_rem_pio2+0x5ce>
 80058de:	f1bb 0f00 	cmp.w	fp, #0
 80058e2:	d036      	beq.n	8005952 <__kernel_rem_pio2+0x5da>
 80058e4:	4602      	mov	r2, r0
 80058e6:	f101 4300 	add.w	r3, r1, #2147483648	; 0x80000000
 80058ea:	9c04      	ldr	r4, [sp, #16]
 80058ec:	e9c4 2300 	strd	r2, r3, [r4]
 80058f0:	4602      	mov	r2, r0
 80058f2:	460b      	mov	r3, r1
 80058f4:	e9dd 0148 	ldrd	r0, r1, [sp, #288]	; 0x120
 80058f8:	f7fa fcbe 	bl	8000278 <__aeabi_dsub>
 80058fc:	ae4a      	add	r6, sp, #296	; 0x128
 80058fe:	2401      	movs	r4, #1
 8005900:	42a5      	cmp	r5, r4
 8005902:	da29      	bge.n	8005958 <__kernel_rem_pio2+0x5e0>
 8005904:	f1bb 0f00 	cmp.w	fp, #0
 8005908:	d002      	beq.n	8005910 <__kernel_rem_pio2+0x598>
 800590a:	f101 4300 	add.w	r3, r1, #2147483648	; 0x80000000
 800590e:	4619      	mov	r1, r3
 8005910:	9b04      	ldr	r3, [sp, #16]
 8005912:	e9c3 0102 	strd	r0, r1, [r3, #8]
 8005916:	e7a1      	b.n	800585c <__kernel_rem_pio2+0x4e4>
 8005918:	9c05      	ldr	r4, [sp, #20]
 800591a:	ab48      	add	r3, sp, #288	; 0x120
 800591c:	441c      	add	r4, r3
 800591e:	2000      	movs	r0, #0
 8005920:	2100      	movs	r1, #0
 8005922:	2d00      	cmp	r5, #0
 8005924:	da09      	bge.n	800593a <__kernel_rem_pio2+0x5c2>
 8005926:	f1bb 0f00 	cmp.w	fp, #0
 800592a:	d002      	beq.n	8005932 <__kernel_rem_pio2+0x5ba>
 800592c:	f101 4300 	add.w	r3, r1, #2147483648	; 0x80000000
 8005930:	4619      	mov	r1, r3
 8005932:	9b04      	ldr	r3, [sp, #16]
 8005934:	e9c3 0100 	strd	r0, r1, [r3]
 8005938:	e790      	b.n	800585c <__kernel_rem_pio2+0x4e4>
 800593a:	e974 2302 	ldrd	r2, r3, [r4, #-8]!
 800593e:	f7fa fc9d 	bl	800027c <__adddf3>
 8005942:	3d01      	subs	r5, #1
 8005944:	e7ed      	b.n	8005922 <__kernel_rem_pio2+0x5aa>
 8005946:	e976 2302 	ldrd	r2, r3, [r6, #-8]!
 800594a:	f7fa fc97 	bl	800027c <__adddf3>
 800594e:	3c01      	subs	r4, #1
 8005950:	e7c3      	b.n	80058da <__kernel_rem_pio2+0x562>
 8005952:	4602      	mov	r2, r0
 8005954:	460b      	mov	r3, r1
 8005956:	e7c8      	b.n	80058ea <__kernel_rem_pio2+0x572>
 8005958:	e8f6 2302 	ldrd	r2, r3, [r6], #8
 800595c:	f7fa fc8e 	bl	800027c <__adddf3>
 8005960:	3401      	adds	r4, #1
 8005962:	e7cd      	b.n	8005900 <__kernel_rem_pio2+0x588>
 8005964:	e9da 8900 	ldrd	r8, r9, [sl]
 8005968:	e9da 6702 	ldrd	r6, r7, [sl, #8]
 800596c:	9b00      	ldr	r3, [sp, #0]
 800596e:	3b01      	subs	r3, #1
 8005970:	9300      	str	r3, [sp, #0]
 8005972:	4632      	mov	r2, r6
 8005974:	463b      	mov	r3, r7
 8005976:	4640      	mov	r0, r8
 8005978:	4649      	mov	r1, r9
 800597a:	f7fa fc7f 	bl	800027c <__adddf3>
 800597e:	e9cd 0106 	strd	r0, r1, [sp, #24]
 8005982:	4602      	mov	r2, r0
 8005984:	460b      	mov	r3, r1
 8005986:	4640      	mov	r0, r8
 8005988:	4649      	mov	r1, r9
 800598a:	f7fa fc75 	bl	8000278 <__aeabi_dsub>
 800598e:	4632      	mov	r2, r6
 8005990:	463b      	mov	r3, r7
 8005992:	f7fa fc73 	bl	800027c <__adddf3>
 8005996:	ed9d 7b06 	vldr	d7, [sp, #24]
 800599a:	e9ca 0102 	strd	r0, r1, [sl, #8]
 800599e:	ed8a 7b00 	vstr	d7, [sl]
 80059a2:	e770      	b.n	8005886 <__kernel_rem_pio2+0x50e>
 80059a4:	e9d4 8900 	ldrd	r8, r9, [r4]
 80059a8:	e9d4 6702 	ldrd	r6, r7, [r4, #8]
 80059ac:	4640      	mov	r0, r8
 80059ae:	4632      	mov	r2, r6
 80059b0:	463b      	mov	r3, r7
 80059b2:	4649      	mov	r1, r9
 80059b4:	f7fa fc62 	bl	800027c <__adddf3>
 80059b8:	e9cd 0100 	strd	r0, r1, [sp]
 80059bc:	4602      	mov	r2, r0
 80059be:	460b      	mov	r3, r1
 80059c0:	4640      	mov	r0, r8
 80059c2:	4649      	mov	r1, r9
 80059c4:	f7fa fc58 	bl	8000278 <__aeabi_dsub>
 80059c8:	4632      	mov	r2, r6
 80059ca:	463b      	mov	r3, r7
 80059cc:	f7fa fc56 	bl	800027c <__adddf3>
 80059d0:	ed9d 7b00 	vldr	d7, [sp]
 80059d4:	e9c4 0102 	strd	r0, r1, [r4, #8]
 80059d8:	ed84 7b00 	vstr	d7, [r4]
 80059dc:	f10a 3aff 	add.w	sl, sl, #4294967295
 80059e0:	e757      	b.n	8005892 <__kernel_rem_pio2+0x51a>
 80059e2:	e974 2302 	ldrd	r2, r3, [r4, #-8]!
 80059e6:	f7fa fc49 	bl	800027c <__adddf3>
 80059ea:	3d01      	subs	r5, #1
 80059ec:	e75c      	b.n	80058a8 <__kernel_rem_pio2+0x530>
 80059ee:	9b04      	ldr	r3, [sp, #16]
 80059f0:	9a04      	ldr	r2, [sp, #16]
 80059f2:	601f      	str	r7, [r3, #0]
 80059f4:	f108 4400 	add.w	r4, r8, #2147483648	; 0x80000000
 80059f8:	605c      	str	r4, [r3, #4]
 80059fa:	609d      	str	r5, [r3, #8]
 80059fc:	f106 4300 	add.w	r3, r6, #2147483648	; 0x80000000
 8005a00:	60d3      	str	r3, [r2, #12]
 8005a02:	f101 4300 	add.w	r3, r1, #2147483648	; 0x80000000
 8005a06:	6110      	str	r0, [r2, #16]
 8005a08:	6153      	str	r3, [r2, #20]
 8005a0a:	e727      	b.n	800585c <__kernel_rem_pio2+0x4e4>
 8005a0c:	41700000 	.word	0x41700000
 8005a10:	3e700000 	.word	0x3e700000
 8005a14:	00000000 	.word	0x00000000

08005a18 <scalbn>:
 8005a18:	b570      	push	{r4, r5, r6, lr}
 8005a1a:	ec55 4b10 	vmov	r4, r5, d0
 8005a1e:	f3c5 510a 	ubfx	r1, r5, #20, #11
 8005a22:	4606      	mov	r6, r0
 8005a24:	462b      	mov	r3, r5
 8005a26:	b999      	cbnz	r1, 8005a50 <scalbn+0x38>
 8005a28:	f025 4300 	bic.w	r3, r5, #2147483648	; 0x80000000
 8005a2c:	4323      	orrs	r3, r4
 8005a2e:	d03f      	beq.n	8005ab0 <scalbn+0x98>
 8005a30:	4b35      	ldr	r3, [pc, #212]	; (8005b08 <scalbn+0xf0>)
 8005a32:	4629      	mov	r1, r5
 8005a34:	ee10 0a10 	vmov	r0, s0
 8005a38:	2200      	movs	r2, #0
 8005a3a:	f7fa fdd5 	bl	80005e8 <__aeabi_dmul>
 8005a3e:	4b33      	ldr	r3, [pc, #204]	; (8005b0c <scalbn+0xf4>)
 8005a40:	429e      	cmp	r6, r3
 8005a42:	4604      	mov	r4, r0
 8005a44:	460d      	mov	r5, r1
 8005a46:	da10      	bge.n	8005a6a <scalbn+0x52>
 8005a48:	a327      	add	r3, pc, #156	; (adr r3, 8005ae8 <scalbn+0xd0>)
 8005a4a:	e9d3 2300 	ldrd	r2, r3, [r3]
 8005a4e:	e01f      	b.n	8005a90 <scalbn+0x78>
 8005a50:	f240 72ff 	movw	r2, #2047	; 0x7ff
 8005a54:	4291      	cmp	r1, r2
 8005a56:	d10c      	bne.n	8005a72 <scalbn+0x5a>
 8005a58:	ee10 2a10 	vmov	r2, s0
 8005a5c:	4620      	mov	r0, r4
 8005a5e:	4629      	mov	r1, r5
 8005a60:	f7fa fc0c 	bl	800027c <__adddf3>
 8005a64:	4604      	mov	r4, r0
 8005a66:	460d      	mov	r5, r1
 8005a68:	e022      	b.n	8005ab0 <scalbn+0x98>
 8005a6a:	460b      	mov	r3, r1
 8005a6c:	f3c1 510a 	ubfx	r1, r1, #20, #11
 8005a70:	3936      	subs	r1, #54	; 0x36
 8005a72:	f24c 3250 	movw	r2, #50000	; 0xc350
 8005a76:	4296      	cmp	r6, r2
 8005a78:	dd0d      	ble.n	8005a96 <scalbn+0x7e>
 8005a7a:	2d00      	cmp	r5, #0
 8005a7c:	a11c      	add	r1, pc, #112	; (adr r1, 8005af0 <scalbn+0xd8>)
 8005a7e:	e9d1 0100 	ldrd	r0, r1, [r1]
 8005a82:	da02      	bge.n	8005a8a <scalbn+0x72>
 8005a84:	a11c      	add	r1, pc, #112	; (adr r1, 8005af8 <scalbn+0xe0>)
 8005a86:	e9d1 0100 	ldrd	r0, r1, [r1]
 8005a8a:	a319      	add	r3, pc, #100	; (adr r3, 8005af0 <scalbn+0xd8>)
 8005a8c:	e9d3 2300 	ldrd	r2, r3, [r3]
 8005a90:	f7fa fdaa 	bl	80005e8 <__aeabi_dmul>
 8005a94:	e7e6      	b.n	8005a64 <scalbn+0x4c>
 8005a96:	1872      	adds	r2, r6, r1
 8005a98:	f240 71fe 	movw	r1, #2046	; 0x7fe
 8005a9c:	428a      	cmp	r2, r1
 8005a9e:	dcec      	bgt.n	8005a7a <scalbn+0x62>
 8005aa0:	2a00      	cmp	r2, #0
 8005aa2:	dd08      	ble.n	8005ab6 <scalbn+0x9e>
 8005aa4:	f023 43ff 	bic.w	r3, r3, #2139095040	; 0x7f800000
 8005aa8:	f423 03e0 	bic.w	r3, r3, #7340032	; 0x700000
 8005aac:	ea43 5502 	orr.w	r5, r3, r2, lsl #20
 8005ab0:	ec45 4b10 	vmov	d0, r4, r5
 8005ab4:	bd70      	pop	{r4, r5, r6, pc}
 8005ab6:	f112 0f35 	cmn.w	r2, #53	; 0x35
 8005aba:	da08      	bge.n	8005ace <scalbn+0xb6>
 8005abc:	2d00      	cmp	r5, #0
 8005abe:	a10a      	add	r1, pc, #40	; (adr r1, 8005ae8 <scalbn+0xd0>)
 8005ac0:	e9d1 0100 	ldrd	r0, r1, [r1]
 8005ac4:	dac0      	bge.n	8005a48 <scalbn+0x30>
 8005ac6:	a10e      	add	r1, pc, #56	; (adr r1, 8005b00 <scalbn+0xe8>)
 8005ac8:	e9d1 0100 	ldrd	r0, r1, [r1]
 8005acc:	e7bc      	b.n	8005a48 <scalbn+0x30>
 8005ace:	f023 43ff 	bic.w	r3, r3, #2139095040	; 0x7f800000
 8005ad2:	3236      	adds	r2, #54	; 0x36
 8005ad4:	f423 03e0 	bic.w	r3, r3, #7340032	; 0x700000
 8005ad8:	ea43 5102 	orr.w	r1, r3, r2, lsl #20
 8005adc:	4620      	mov	r0, r4
 8005ade:	4b0c      	ldr	r3, [pc, #48]	; (8005b10 <scalbn+0xf8>)
 8005ae0:	2200      	movs	r2, #0
 8005ae2:	e7d5      	b.n	8005a90 <scalbn+0x78>
 8005ae4:	f3af 8000 	nop.w
 8005ae8:	c2f8f359 	.word	0xc2f8f359
 8005aec:	01a56e1f 	.word	0x01a56e1f
 8005af0:	8800759c 	.word	0x8800759c
 8005af4:	7e37e43c 	.word	0x7e37e43c
 8005af8:	8800759c 	.word	0x8800759c
 8005afc:	fe37e43c 	.word	0xfe37e43c
 8005b00:	c2f8f359 	.word	0xc2f8f359
 8005b04:	81a56e1f 	.word	0x81a56e1f
 8005b08:	43500000 	.word	0x43500000
 8005b0c:	ffff3cb0 	.word	0xffff3cb0
 8005b10:	3c900000 	.word	0x3c900000
 8005b14:	00000000 	.word	0x00000000

08005b18 <floor>:
 8005b18:	ec51 0b10 	vmov	r0, r1, d0
 8005b1c:	f3c1 530a 	ubfx	r3, r1, #20, #11
 8005b20:	e92d 41f0 	stmdb	sp!, {r4, r5, r6, r7, r8, lr}
 8005b24:	f2a3 36ff 	subw	r6, r3, #1023	; 0x3ff
 8005b28:	2e13      	cmp	r6, #19
 8005b2a:	ee10 5a10 	vmov	r5, s0
 8005b2e:	ee10 8a10 	vmov	r8, s0
 8005b32:	460c      	mov	r4, r1
 8005b34:	dc31      	bgt.n	8005b9a <floor+0x82>
 8005b36:	2e00      	cmp	r6, #0
 8005b38:	da14      	bge.n	8005b64 <floor+0x4c>
 8005b3a:	a333      	add	r3, pc, #204	; (adr r3, 8005c08 <floor+0xf0>)
 8005b3c:	e9d3 2300 	ldrd	r2, r3, [r3]
 8005b40:	f7fa fb9c 	bl	800027c <__adddf3>
 8005b44:	2200      	movs	r2, #0
 8005b46:	2300      	movs	r3, #0
 8005b48:	f7fa ffde 	bl	8000b08 <__aeabi_dcmpgt>
 8005b4c:	b138      	cbz	r0, 8005b5e <floor+0x46>
 8005b4e:	2c00      	cmp	r4, #0
 8005b50:	da53      	bge.n	8005bfa <floor+0xe2>
 8005b52:	f024 4400 	bic.w	r4, r4, #2147483648	; 0x80000000
 8005b56:	4325      	orrs	r5, r4
 8005b58:	d052      	beq.n	8005c00 <floor+0xe8>
 8005b5a:	4c2d      	ldr	r4, [pc, #180]	; (8005c10 <floor+0xf8>)
 8005b5c:	2500      	movs	r5, #0
 8005b5e:	4621      	mov	r1, r4
 8005b60:	4628      	mov	r0, r5
 8005b62:	e024      	b.n	8005bae <floor+0x96>
 8005b64:	4f2b      	ldr	r7, [pc, #172]	; (8005c14 <floor+0xfc>)
 8005b66:	4137      	asrs	r7, r6
 8005b68:	ea01 0307 	and.w	r3, r1, r7
 8005b6c:	4303      	orrs	r3, r0
 8005b6e:	d01e      	beq.n	8005bae <floor+0x96>
 8005b70:	a325      	add	r3, pc, #148	; (adr r3, 8005c08 <floor+0xf0>)
 8005b72:	e9d3 2300 	ldrd	r2, r3, [r3]
 8005b76:	f7fa fb81 	bl	800027c <__adddf3>
 8005b7a:	2200      	movs	r2, #0
 8005b7c:	2300      	movs	r3, #0
 8005b7e:	f7fa ffc3 	bl	8000b08 <__aeabi_dcmpgt>
 8005b82:	2800      	cmp	r0, #0
 8005b84:	d0eb      	beq.n	8005b5e <floor+0x46>
 8005b86:	2c00      	cmp	r4, #0
 8005b88:	bfbe      	ittt	lt
 8005b8a:	f44f 1380 	movlt.w	r3, #1048576	; 0x100000
 8005b8e:	4133      	asrlt	r3, r6
 8005b90:	18e4      	addlt	r4, r4, r3
 8005b92:	ea24 0407 	bic.w	r4, r4, r7
 8005b96:	2500      	movs	r5, #0
 8005b98:	e7e1      	b.n	8005b5e <floor+0x46>
 8005b9a:	2e33      	cmp	r6, #51	; 0x33
 8005b9c:	dd0b      	ble.n	8005bb6 <floor+0x9e>
 8005b9e:	f5b6 6f80 	cmp.w	r6, #1024	; 0x400
 8005ba2:	d104      	bne.n	8005bae <floor+0x96>
 8005ba4:	ee10 2a10 	vmov	r2, s0
 8005ba8:	460b      	mov	r3, r1
 8005baa:	f7fa fb67 	bl	800027c <__adddf3>
 8005bae:	ec41 0b10 	vmov	d0, r0, r1
 8005bb2:	e8bd 81f0 	ldmia.w	sp!, {r4, r5, r6, r7, r8, pc}
 8005bb6:	f2a3 4313 	subw	r3, r3, #1043	; 0x413
 8005bba:	f04f 37ff 	mov.w	r7, #4294967295
 8005bbe:	40df      	lsrs	r7, r3
 8005bc0:	4238      	tst	r0, r7
 8005bc2:	d0f4      	beq.n	8005bae <floor+0x96>
 8005bc4:	a310      	add	r3, pc, #64	; (adr r3, 8005c08 <floor+0xf0>)
 8005bc6:	e9d3 2300 	ldrd	r2, r3, [r3]
 8005bca:	f7fa fb57 	bl	800027c <__adddf3>
 8005bce:	2200      	movs	r2, #0
 8005bd0:	2300      	movs	r3, #0
 8005bd2:	f7fa ff99 	bl	8000b08 <__aeabi_dcmpgt>
 8005bd6:	2800      	cmp	r0, #0
 8005bd8:	d0c1      	beq.n	8005b5e <floor+0x46>
 8005bda:	2c00      	cmp	r4, #0
 8005bdc:	da0a      	bge.n	8005bf4 <floor+0xdc>
 8005bde:	2e14      	cmp	r6, #20
 8005be0:	d101      	bne.n	8005be6 <floor+0xce>
 8005be2:	3401      	adds	r4, #1
 8005be4:	e006      	b.n	8005bf4 <floor+0xdc>
 8005be6:	f1c6 0634 	rsb	r6, r6, #52	; 0x34
 8005bea:	2301      	movs	r3, #1
 8005bec:	40b3      	lsls	r3, r6
 8005bee:	441d      	add	r5, r3
 8005bf0:	45a8      	cmp	r8, r5
 8005bf2:	d8f6      	bhi.n	8005be2 <floor+0xca>
 8005bf4:	ea25 0507 	bic.w	r5, r5, r7
 8005bf8:	e7b1      	b.n	8005b5e <floor+0x46>
 8005bfa:	2500      	movs	r5, #0
 8005bfc:	462c      	mov	r4, r5
 8005bfe:	e7ae      	b.n	8005b5e <floor+0x46>
 8005c00:	f04f 4400 	mov.w	r4, #2147483648	; 0x80000000
 8005c04:	e7ab      	b.n	8005b5e <floor+0x46>
 8005c06:	bf00      	nop
 8005c08:	8800759c 	.word	0x8800759c
 8005c0c:	7e37e43c 	.word	0x7e37e43c
 8005c10:	bff00000 	.word	0xbff00000
 8005c14:	000fffff 	.word	0x000fffff

08005c18 <_init>:
 8005c18:	b5f8      	push	{r3, r4, r5, r6, r7, lr}
 8005c1a:	bf00      	nop
 8005c1c:	bcf8      	pop	{r3, r4, r5, r6, r7}
 8005c1e:	bc08      	pop	{r3}
 8005c20:	469e      	mov	lr, r3
 8005c22:	4770      	bx	lr

08005c24 <_fini>:
 8005c24:	b5f8      	push	{r3, r4, r5, r6, r7, lr}
 8005c26:	bf00      	nop
 8005c28:	bcf8      	pop	{r3, r4, r5, r6, r7}
 8005c2a:	bc08      	pop	{r3}
 8005c2c:	469e      	mov	lr, r3
 8005c2e:	4770      	bx	lr
